ARM GAS  /tmp/cch7iMLb.s 			page 1


   1              		.cpu cortex-m0
   2              		.eabi_attribute 20, 1
   3              		.eabi_attribute 21, 1
   4              		.eabi_attribute 23, 3
   5              		.eabi_attribute 24, 1
   6              		.eabi_attribute 25, 1
   7              		.eabi_attribute 26, 1
   8              		.eabi_attribute 30, 1
   9              		.eabi_attribute 34, 0
  10              		.eabi_attribute 18, 4
  11              		.file	"usbd_conf.c"
  12              		.text
  13              	.Ltext0:
  14              		.cfi_sections	.debug_frame
  15              		.section	.text.USBD_Get_USB_Status,"ax",%progbits
  16              		.align	1
  17              		.arch armv6s-m
  18              		.syntax unified
  19              		.code	16
  20              		.thumb_func
  21              		.fpu softvfp
  23              	USBD_Get_USB_Status:
  24              	.LVL0:
  25              	.LFB68:
  26              		.file 1 "Src/usbd_conf.c"
   1:Src/usbd_conf.c **** /* USER CODE BEGIN Header */
   2:Src/usbd_conf.c **** /**
   3:Src/usbd_conf.c ****   ******************************************************************************
   4:Src/usbd_conf.c ****   * @file           : usbd_conf.c
   5:Src/usbd_conf.c ****   * @version        : v2.0_Cube
   6:Src/usbd_conf.c ****   * @brief          : This file implements the board support package for the USB device library
   7:Src/usbd_conf.c ****   ******************************************************************************
   8:Src/usbd_conf.c ****   * @attention
   9:Src/usbd_conf.c ****   *
  10:Src/usbd_conf.c ****   * <h2><center>&copy; Copyright (c) 2019 STMicroelectronics.
  11:Src/usbd_conf.c ****   * All rights reserved.</center></h2>
  12:Src/usbd_conf.c ****   *
  13:Src/usbd_conf.c ****   * This software component is licensed by ST under Ultimate Liberty license
  14:Src/usbd_conf.c ****   * SLA0044, the "License"; You may not use this file except in compliance with
  15:Src/usbd_conf.c ****   * the License. You may obtain a copy of the License at:
  16:Src/usbd_conf.c ****   *                             www.st.com/SLA0044
  17:Src/usbd_conf.c ****   *
  18:Src/usbd_conf.c ****   ******************************************************************************
  19:Src/usbd_conf.c ****   */
  20:Src/usbd_conf.c **** /* USER CODE END Header */
  21:Src/usbd_conf.c **** 
  22:Src/usbd_conf.c **** /* Includes ------------------------------------------------------------------*/
  23:Src/usbd_conf.c **** #include "stm32f0xx.h"
  24:Src/usbd_conf.c **** #include "stm32f0xx_hal.h"
  25:Src/usbd_conf.c **** #include "usbd_def.h"
  26:Src/usbd_conf.c **** #include "usbd_core.h"
  27:Src/usbd_conf.c **** #include "usbd_hid.h"
  28:Src/usbd_conf.c **** 
  29:Src/usbd_conf.c **** /* USER CODE BEGIN Includes */
  30:Src/usbd_conf.c **** 
  31:Src/usbd_conf.c **** /* USER CODE END Includes */
  32:Src/usbd_conf.c **** 
ARM GAS  /tmp/cch7iMLb.s 			page 2


  33:Src/usbd_conf.c **** /* Private typedef -----------------------------------------------------------*/
  34:Src/usbd_conf.c **** /* Private define ------------------------------------------------------------*/
  35:Src/usbd_conf.c **** /* Private macro -------------------------------------------------------------*/
  36:Src/usbd_conf.c **** 
  37:Src/usbd_conf.c **** /* USER CODE BEGIN PV */
  38:Src/usbd_conf.c **** /* Private variables ---------------------------------------------------------*/
  39:Src/usbd_conf.c **** 
  40:Src/usbd_conf.c **** /* USER CODE END PV */
  41:Src/usbd_conf.c **** 
  42:Src/usbd_conf.c **** PCD_HandleTypeDef hpcd_USB_FS;
  43:Src/usbd_conf.c **** void Error_Handler(void);
  44:Src/usbd_conf.c **** 
  45:Src/usbd_conf.c **** /* USER CODE BEGIN 0 */
  46:Src/usbd_conf.c **** 
  47:Src/usbd_conf.c **** /* USER CODE END 0 */
  48:Src/usbd_conf.c **** 
  49:Src/usbd_conf.c **** /* USER CODE BEGIN PFP */
  50:Src/usbd_conf.c **** /* Private function prototypes -----------------------------------------------*/
  51:Src/usbd_conf.c **** 
  52:Src/usbd_conf.c **** /* USER CODE END PFP */
  53:Src/usbd_conf.c **** 
  54:Src/usbd_conf.c **** /* Private functions ---------------------------------------------------------*/
  55:Src/usbd_conf.c **** static USBD_StatusTypeDef USBD_Get_USB_Status(HAL_StatusTypeDef hal_status);
  56:Src/usbd_conf.c **** /* USER CODE BEGIN 1 */
  57:Src/usbd_conf.c **** static void SystemClockConfig_Resume(void);
  58:Src/usbd_conf.c **** /* USER CODE END 1 */
  59:Src/usbd_conf.c **** extern void SystemClock_Config(void);
  60:Src/usbd_conf.c **** 
  61:Src/usbd_conf.c **** /*******************************************************************************
  62:Src/usbd_conf.c ****                        LL Driver Callbacks (PCD -> USB Device Library)
  63:Src/usbd_conf.c **** *******************************************************************************/
  64:Src/usbd_conf.c **** /* MSP Init */
  65:Src/usbd_conf.c **** 
  66:Src/usbd_conf.c **** void HAL_PCD_MspInit(PCD_HandleTypeDef* pcdHandle)
  67:Src/usbd_conf.c **** {
  68:Src/usbd_conf.c ****   if(pcdHandle->Instance==USB)
  69:Src/usbd_conf.c ****   {
  70:Src/usbd_conf.c ****   /* USER CODE BEGIN USB_MspInit 0 */
  71:Src/usbd_conf.c **** 
  72:Src/usbd_conf.c ****   /* USER CODE END USB_MspInit 0 */
  73:Src/usbd_conf.c ****     /* Peripheral clock enable */
  74:Src/usbd_conf.c ****     __HAL_RCC_USB_CLK_ENABLE();
  75:Src/usbd_conf.c **** 
  76:Src/usbd_conf.c ****     /* Peripheral interrupt init */
  77:Src/usbd_conf.c ****     HAL_NVIC_SetPriority(USB_IRQn, 0, 0);
  78:Src/usbd_conf.c ****     HAL_NVIC_EnableIRQ(USB_IRQn);
  79:Src/usbd_conf.c ****   /* USER CODE BEGIN USB_MspInit 1 */
  80:Src/usbd_conf.c **** 
  81:Src/usbd_conf.c ****   /* USER CODE END USB_MspInit 1 */
  82:Src/usbd_conf.c ****   }
  83:Src/usbd_conf.c **** }
  84:Src/usbd_conf.c **** 
  85:Src/usbd_conf.c **** void HAL_PCD_MspDeInit(PCD_HandleTypeDef* pcdHandle)
  86:Src/usbd_conf.c **** {
  87:Src/usbd_conf.c ****   if(pcdHandle->Instance==USB)
  88:Src/usbd_conf.c ****   {
  89:Src/usbd_conf.c ****   /* USER CODE BEGIN USB_MspDeInit 0 */
ARM GAS  /tmp/cch7iMLb.s 			page 3


  90:Src/usbd_conf.c **** 
  91:Src/usbd_conf.c ****   /* USER CODE END USB_MspDeInit 0 */
  92:Src/usbd_conf.c ****     /* Peripheral clock disable */
  93:Src/usbd_conf.c ****     __HAL_RCC_USB_CLK_DISABLE();
  94:Src/usbd_conf.c **** 
  95:Src/usbd_conf.c ****     /* Peripheral interrupt Deinit*/
  96:Src/usbd_conf.c ****     HAL_NVIC_DisableIRQ(USB_IRQn);
  97:Src/usbd_conf.c **** 
  98:Src/usbd_conf.c ****   /* USER CODE BEGIN USB_MspDeInit 1 */
  99:Src/usbd_conf.c **** 
 100:Src/usbd_conf.c ****   /* USER CODE END USB_MspDeInit 1 */
 101:Src/usbd_conf.c ****   }
 102:Src/usbd_conf.c **** }
 103:Src/usbd_conf.c **** 
 104:Src/usbd_conf.c **** /**
 105:Src/usbd_conf.c ****   * @brief  Setup stage callback
 106:Src/usbd_conf.c ****   * @param  hpcd: PCD handle
 107:Src/usbd_conf.c ****   * @retval None
 108:Src/usbd_conf.c ****   */
 109:Src/usbd_conf.c **** #if (USE_HAL_PCD_REGISTER_CALLBACKS == 1U)
 110:Src/usbd_conf.c **** static void PCD_SetupStageCallback(PCD_HandleTypeDef *hpcd)
 111:Src/usbd_conf.c **** #else
 112:Src/usbd_conf.c **** void HAL_PCD_SetupStageCallback(PCD_HandleTypeDef *hpcd)
 113:Src/usbd_conf.c **** #endif /* USE_HAL_PCD_REGISTER_CALLBACKS */
 114:Src/usbd_conf.c **** {
 115:Src/usbd_conf.c ****   USBD_LL_SetupStage((USBD_HandleTypeDef*)hpcd->pData, (uint8_t *)hpcd->Setup);
 116:Src/usbd_conf.c **** }
 117:Src/usbd_conf.c **** 
 118:Src/usbd_conf.c **** /**
 119:Src/usbd_conf.c ****   * @brief  Data Out stage callback.
 120:Src/usbd_conf.c ****   * @param  hpcd: PCD handle
 121:Src/usbd_conf.c ****   * @param  epnum: Endpoint number
 122:Src/usbd_conf.c ****   * @retval None
 123:Src/usbd_conf.c ****   */
 124:Src/usbd_conf.c **** #if (USE_HAL_PCD_REGISTER_CALLBACKS == 1U)
 125:Src/usbd_conf.c **** static void PCD_DataOutStageCallback(PCD_HandleTypeDef *hpcd, uint8_t epnum)
 126:Src/usbd_conf.c **** #else
 127:Src/usbd_conf.c **** void HAL_PCD_DataOutStageCallback(PCD_HandleTypeDef *hpcd, uint8_t epnum)
 128:Src/usbd_conf.c **** #endif /* USE_HAL_PCD_REGISTER_CALLBACKS */
 129:Src/usbd_conf.c **** {
 130:Src/usbd_conf.c ****   USBD_LL_DataOutStage((USBD_HandleTypeDef*)hpcd->pData, epnum, hpcd->OUT_ep[epnum].xfer_buff);
 131:Src/usbd_conf.c **** }
 132:Src/usbd_conf.c **** 
 133:Src/usbd_conf.c **** /**
 134:Src/usbd_conf.c ****   * @brief  Data In stage callback.
 135:Src/usbd_conf.c ****   * @param  hpcd: PCD handle
 136:Src/usbd_conf.c ****   * @param  epnum: Endpoint number
 137:Src/usbd_conf.c ****   * @retval None
 138:Src/usbd_conf.c ****   */
 139:Src/usbd_conf.c **** #if (USE_HAL_PCD_REGISTER_CALLBACKS == 1U)
 140:Src/usbd_conf.c **** static void PCD_DataInStageCallback(PCD_HandleTypeDef *hpcd, uint8_t epnum)
 141:Src/usbd_conf.c **** #else
 142:Src/usbd_conf.c **** void HAL_PCD_DataInStageCallback(PCD_HandleTypeDef *hpcd, uint8_t epnum)
 143:Src/usbd_conf.c **** #endif /* USE_HAL_PCD_REGISTER_CALLBACKS */
 144:Src/usbd_conf.c **** {
 145:Src/usbd_conf.c ****   USBD_LL_DataInStage((USBD_HandleTypeDef*)hpcd->pData, epnum, hpcd->IN_ep[epnum].xfer_buff);
 146:Src/usbd_conf.c **** }
ARM GAS  /tmp/cch7iMLb.s 			page 4


 147:Src/usbd_conf.c **** 
 148:Src/usbd_conf.c **** /**
 149:Src/usbd_conf.c ****   * @brief  SOF callback.
 150:Src/usbd_conf.c ****   * @param  hpcd: PCD handle
 151:Src/usbd_conf.c ****   * @retval None
 152:Src/usbd_conf.c ****   */
 153:Src/usbd_conf.c **** #if (USE_HAL_PCD_REGISTER_CALLBACKS == 1U)
 154:Src/usbd_conf.c **** static void PCD_SOFCallback(PCD_HandleTypeDef *hpcd)
 155:Src/usbd_conf.c **** #else
 156:Src/usbd_conf.c **** void HAL_PCD_SOFCallback(PCD_HandleTypeDef *hpcd)
 157:Src/usbd_conf.c **** #endif /* USE_HAL_PCD_REGISTER_CALLBACKS */
 158:Src/usbd_conf.c **** {
 159:Src/usbd_conf.c ****   USBD_LL_SOF((USBD_HandleTypeDef*)hpcd->pData);
 160:Src/usbd_conf.c **** }
 161:Src/usbd_conf.c **** 
 162:Src/usbd_conf.c **** /**
 163:Src/usbd_conf.c ****   * @brief  Reset callback.
 164:Src/usbd_conf.c ****   * @param  hpcd: PCD handle
 165:Src/usbd_conf.c ****   * @retval None
 166:Src/usbd_conf.c ****   */
 167:Src/usbd_conf.c **** #if (USE_HAL_PCD_REGISTER_CALLBACKS == 1U)
 168:Src/usbd_conf.c **** static void PCD_ResetCallback(PCD_HandleTypeDef *hpcd)
 169:Src/usbd_conf.c **** #else
 170:Src/usbd_conf.c **** void HAL_PCD_ResetCallback(PCD_HandleTypeDef *hpcd)
 171:Src/usbd_conf.c **** #endif /* USE_HAL_PCD_REGISTER_CALLBACKS */
 172:Src/usbd_conf.c **** { 
 173:Src/usbd_conf.c ****   USBD_SpeedTypeDef speed = USBD_SPEED_FULL;
 174:Src/usbd_conf.c **** 
 175:Src/usbd_conf.c ****   if ( hpcd->Init.speed != PCD_SPEED_FULL)
 176:Src/usbd_conf.c ****   {
 177:Src/usbd_conf.c ****     Error_Handler();
 178:Src/usbd_conf.c ****   }
 179:Src/usbd_conf.c ****     /* Set Speed. */
 180:Src/usbd_conf.c ****   USBD_LL_SetSpeed((USBD_HandleTypeDef*)hpcd->pData, speed);
 181:Src/usbd_conf.c **** 
 182:Src/usbd_conf.c ****   /* Reset Device. */
 183:Src/usbd_conf.c ****   USBD_LL_Reset((USBD_HandleTypeDef*)hpcd->pData);
 184:Src/usbd_conf.c **** }
 185:Src/usbd_conf.c **** 
 186:Src/usbd_conf.c **** /**
 187:Src/usbd_conf.c ****   * @brief  Suspend callback.
 188:Src/usbd_conf.c ****   * When Low power mode is enabled the debug cannot be used (IAR, Keil doesn't support it)
 189:Src/usbd_conf.c ****   * @param  hpcd: PCD handle
 190:Src/usbd_conf.c ****   * @retval None
 191:Src/usbd_conf.c ****   */
 192:Src/usbd_conf.c **** #if (USE_HAL_PCD_REGISTER_CALLBACKS == 1U)
 193:Src/usbd_conf.c **** static void PCD_SuspendCallback(PCD_HandleTypeDef *hpcd)
 194:Src/usbd_conf.c **** #else
 195:Src/usbd_conf.c **** void HAL_PCD_SuspendCallback(PCD_HandleTypeDef *hpcd)
 196:Src/usbd_conf.c **** #endif /* USE_HAL_PCD_REGISTER_CALLBACKS */
 197:Src/usbd_conf.c **** {
 198:Src/usbd_conf.c ****   /* Inform USB library that core enters in suspend Mode. */
 199:Src/usbd_conf.c ****   USBD_LL_Suspend((USBD_HandleTypeDef*)hpcd->pData);
 200:Src/usbd_conf.c ****   /* Enter in STOP mode. */
 201:Src/usbd_conf.c ****   /* USER CODE BEGIN 2 */
 202:Src/usbd_conf.c ****   if (hpcd->Init.low_power_enable)
 203:Src/usbd_conf.c ****   {
ARM GAS  /tmp/cch7iMLb.s 			page 5


 204:Src/usbd_conf.c ****     /* Set SLEEPDEEP bit and SleepOnExit of Cortex System Control Register. */
 205:Src/usbd_conf.c ****     SCB->SCR |= (uint32_t)((uint32_t)(SCB_SCR_SLEEPDEEP_Msk | SCB_SCR_SLEEPONEXIT_Msk));
 206:Src/usbd_conf.c ****   }
 207:Src/usbd_conf.c ****   /* USER CODE END 2 */
 208:Src/usbd_conf.c **** }
 209:Src/usbd_conf.c **** 
 210:Src/usbd_conf.c **** /**
 211:Src/usbd_conf.c ****   * @brief  Resume callback.
 212:Src/usbd_conf.c ****   * When Low power mode is enabled the debug cannot be used (IAR, Keil doesn't support it)
 213:Src/usbd_conf.c ****   * @param  hpcd: PCD handle
 214:Src/usbd_conf.c ****   * @retval None
 215:Src/usbd_conf.c ****   */
 216:Src/usbd_conf.c **** #if (USE_HAL_PCD_REGISTER_CALLBACKS == 1U)
 217:Src/usbd_conf.c **** static void PCD_ResumeCallback(PCD_HandleTypeDef *hpcd)
 218:Src/usbd_conf.c **** #else
 219:Src/usbd_conf.c **** void HAL_PCD_ResumeCallback(PCD_HandleTypeDef *hpcd)
 220:Src/usbd_conf.c **** #endif /* USE_HAL_PCD_REGISTER_CALLBACKS */
 221:Src/usbd_conf.c **** {
 222:Src/usbd_conf.c ****   /* USER CODE BEGIN 3 */
 223:Src/usbd_conf.c ****   if (hpcd->Init.low_power_enable)
 224:Src/usbd_conf.c ****   {
 225:Src/usbd_conf.c ****     /* Reset SLEEPDEEP bit of Cortex System Control Register. */
 226:Src/usbd_conf.c ****     SCB->SCR &= (uint32_t)~((uint32_t)(SCB_SCR_SLEEPDEEP_Msk | SCB_SCR_SLEEPONEXIT_Msk));
 227:Src/usbd_conf.c ****     SystemClockConfig_Resume();
 228:Src/usbd_conf.c ****   }
 229:Src/usbd_conf.c ****   /* USER CODE END 3 */
 230:Src/usbd_conf.c ****   USBD_LL_Resume((USBD_HandleTypeDef*)hpcd->pData);
 231:Src/usbd_conf.c **** }
 232:Src/usbd_conf.c **** 
 233:Src/usbd_conf.c **** /**
 234:Src/usbd_conf.c ****   * @brief  ISOOUTIncomplete callback.
 235:Src/usbd_conf.c ****   * @param  hpcd: PCD handle
 236:Src/usbd_conf.c ****   * @param  epnum: Endpoint number
 237:Src/usbd_conf.c ****   * @retval None
 238:Src/usbd_conf.c ****   */
 239:Src/usbd_conf.c **** #if (USE_HAL_PCD_REGISTER_CALLBACKS == 1U)
 240:Src/usbd_conf.c **** static void PCD_ISOOUTIncompleteCallback(PCD_HandleTypeDef *hpcd, uint8_t epnum)
 241:Src/usbd_conf.c **** #else
 242:Src/usbd_conf.c **** void HAL_PCD_ISOOUTIncompleteCallback(PCD_HandleTypeDef *hpcd, uint8_t epnum)
 243:Src/usbd_conf.c **** #endif /* USE_HAL_PCD_REGISTER_CALLBACKS */
 244:Src/usbd_conf.c **** {
 245:Src/usbd_conf.c ****   USBD_LL_IsoOUTIncomplete((USBD_HandleTypeDef*)hpcd->pData, epnum);
 246:Src/usbd_conf.c **** }
 247:Src/usbd_conf.c **** 
 248:Src/usbd_conf.c **** /**
 249:Src/usbd_conf.c ****   * @brief  ISOINIncomplete callback.
 250:Src/usbd_conf.c ****   * @param  hpcd: PCD handle
 251:Src/usbd_conf.c ****   * @param  epnum: Endpoint number
 252:Src/usbd_conf.c ****   * @retval None
 253:Src/usbd_conf.c ****   */
 254:Src/usbd_conf.c **** #if (USE_HAL_PCD_REGISTER_CALLBACKS == 1U)
 255:Src/usbd_conf.c **** static void PCD_ISOINIncompleteCallback(PCD_HandleTypeDef *hpcd, uint8_t epnum)
 256:Src/usbd_conf.c **** #else
 257:Src/usbd_conf.c **** void HAL_PCD_ISOINIncompleteCallback(PCD_HandleTypeDef *hpcd, uint8_t epnum)
 258:Src/usbd_conf.c **** #endif /* USE_HAL_PCD_REGISTER_CALLBACKS */
 259:Src/usbd_conf.c **** {
 260:Src/usbd_conf.c ****   USBD_LL_IsoINIncomplete((USBD_HandleTypeDef*)hpcd->pData, epnum);
ARM GAS  /tmp/cch7iMLb.s 			page 6


 261:Src/usbd_conf.c **** }
 262:Src/usbd_conf.c **** 
 263:Src/usbd_conf.c **** /**
 264:Src/usbd_conf.c ****   * @brief  Connect callback.
 265:Src/usbd_conf.c ****   * @param  hpcd: PCD handle
 266:Src/usbd_conf.c ****   * @retval None
 267:Src/usbd_conf.c ****   */
 268:Src/usbd_conf.c **** #if (USE_HAL_PCD_REGISTER_CALLBACKS == 1U)
 269:Src/usbd_conf.c **** static void PCD_ConnectCallback(PCD_HandleTypeDef *hpcd)
 270:Src/usbd_conf.c **** #else
 271:Src/usbd_conf.c **** void HAL_PCD_ConnectCallback(PCD_HandleTypeDef *hpcd)
 272:Src/usbd_conf.c **** #endif /* USE_HAL_PCD_REGISTER_CALLBACKS */
 273:Src/usbd_conf.c **** {
 274:Src/usbd_conf.c ****   USBD_LL_DevConnected((USBD_HandleTypeDef*)hpcd->pData);
 275:Src/usbd_conf.c **** }
 276:Src/usbd_conf.c **** 
 277:Src/usbd_conf.c **** /**
 278:Src/usbd_conf.c ****   * @brief  Disconnect callback.
 279:Src/usbd_conf.c ****   * @param  hpcd: PCD handle
 280:Src/usbd_conf.c ****   * @retval None
 281:Src/usbd_conf.c ****   */
 282:Src/usbd_conf.c **** #if (USE_HAL_PCD_REGISTER_CALLBACKS == 1U)
 283:Src/usbd_conf.c **** static void PCD_DisconnectCallback(PCD_HandleTypeDef *hpcd)
 284:Src/usbd_conf.c **** #else
 285:Src/usbd_conf.c **** void HAL_PCD_DisconnectCallback(PCD_HandleTypeDef *hpcd)
 286:Src/usbd_conf.c **** #endif /* USE_HAL_PCD_REGISTER_CALLBACKS */
 287:Src/usbd_conf.c **** {
 288:Src/usbd_conf.c ****   USBD_LL_DevDisconnected((USBD_HandleTypeDef*)hpcd->pData);
 289:Src/usbd_conf.c **** }
 290:Src/usbd_conf.c **** 
 291:Src/usbd_conf.c **** /*******************************************************************************
 292:Src/usbd_conf.c ****                        LL Driver Interface (USB Device Library --> PCD)
 293:Src/usbd_conf.c **** *******************************************************************************/
 294:Src/usbd_conf.c **** 
 295:Src/usbd_conf.c **** /**
 296:Src/usbd_conf.c ****   * @brief  Initializes the low level portion of the device driver.
 297:Src/usbd_conf.c ****   * @param  pdev: Device handle
 298:Src/usbd_conf.c ****   * @retval USBD status
 299:Src/usbd_conf.c ****   */
 300:Src/usbd_conf.c **** USBD_StatusTypeDef USBD_LL_Init(USBD_HandleTypeDef *pdev)
 301:Src/usbd_conf.c **** {
 302:Src/usbd_conf.c ****   /* Init USB Ip. */
 303:Src/usbd_conf.c ****   /* Link the driver to the stack. */
 304:Src/usbd_conf.c ****   hpcd_USB_FS.pData = pdev;
 305:Src/usbd_conf.c ****   pdev->pData = &hpcd_USB_FS;
 306:Src/usbd_conf.c **** 
 307:Src/usbd_conf.c ****   hpcd_USB_FS.Instance = USB;
 308:Src/usbd_conf.c ****   hpcd_USB_FS.Init.dev_endpoints = 8;
 309:Src/usbd_conf.c ****   hpcd_USB_FS.Init.speed = PCD_SPEED_FULL;
 310:Src/usbd_conf.c ****   hpcd_USB_FS.Init.phy_itface = PCD_PHY_EMBEDDED;
 311:Src/usbd_conf.c ****   hpcd_USB_FS.Init.low_power_enable = DISABLE;
 312:Src/usbd_conf.c ****   hpcd_USB_FS.Init.lpm_enable = DISABLE;
 313:Src/usbd_conf.c ****   hpcd_USB_FS.Init.battery_charging_enable = DISABLE;
 314:Src/usbd_conf.c ****   if (HAL_PCD_Init(&hpcd_USB_FS) != HAL_OK)
 315:Src/usbd_conf.c ****   {
 316:Src/usbd_conf.c ****     Error_Handler( );
 317:Src/usbd_conf.c ****   }
ARM GAS  /tmp/cch7iMLb.s 			page 7


 318:Src/usbd_conf.c **** 
 319:Src/usbd_conf.c **** #if (USE_HAL_PCD_REGISTER_CALLBACKS == 1U)
 320:Src/usbd_conf.c ****   /* Register USB PCD CallBacks */
 321:Src/usbd_conf.c ****   HAL_PCD_RegisterCallback(&hpcd_USB_FS, HAL_PCD_SOF_CB_ID, PCD_SOFCallback);
 322:Src/usbd_conf.c ****   HAL_PCD_RegisterCallback(&hpcd_USB_FS, HAL_PCD_SETUPSTAGE_CB_ID, PCD_SetupStageCallback);
 323:Src/usbd_conf.c ****   HAL_PCD_RegisterCallback(&hpcd_USB_FS, HAL_PCD_RESET_CB_ID, PCD_ResetCallback);
 324:Src/usbd_conf.c ****   HAL_PCD_RegisterCallback(&hpcd_USB_FS, HAL_PCD_SUSPEND_CB_ID, PCD_SuspendCallback);
 325:Src/usbd_conf.c ****   HAL_PCD_RegisterCallback(&hpcd_USB_FS, HAL_PCD_RESUME_CB_ID, PCD_ResumeCallback);
 326:Src/usbd_conf.c ****   HAL_PCD_RegisterCallback(&hpcd_USB_FS, HAL_PCD_CONNECT_CB_ID, PCD_ConnectCallback);
 327:Src/usbd_conf.c ****   HAL_PCD_RegisterCallback(&hpcd_USB_FS, HAL_PCD_DISCONNECT_CB_ID, PCD_DisconnectCallback);
 328:Src/usbd_conf.c **** 
 329:Src/usbd_conf.c ****   HAL_PCD_RegisterDataOutStageCallback(&hpcd_USB_FS, PCD_DataOutStageCallback);
 330:Src/usbd_conf.c ****   HAL_PCD_RegisterDataInStageCallback(&hpcd_USB_FS, PCD_DataInStageCallback);
 331:Src/usbd_conf.c ****   HAL_PCD_RegisterIsoOutIncpltCallback(&hpcd_USB_FS, PCD_ISOOUTIncompleteCallback);
 332:Src/usbd_conf.c ****   HAL_PCD_RegisterIsoInIncpltCallback(&hpcd_USB_FS, PCD_ISOINIncompleteCallback);
 333:Src/usbd_conf.c **** #endif /* USE_HAL_PCD_REGISTER_CALLBACKS */
 334:Src/usbd_conf.c ****   /* USER CODE BEGIN EndPoint_Configuration */
 335:Src/usbd_conf.c ****   HAL_PCDEx_PMAConfig((PCD_HandleTypeDef*)pdev->pData , 0x00 , PCD_SNG_BUF, 0x18);
 336:Src/usbd_conf.c ****   HAL_PCDEx_PMAConfig((PCD_HandleTypeDef*)pdev->pData , 0x80 , PCD_SNG_BUF, 0x58);
 337:Src/usbd_conf.c ****   /* USER CODE END EndPoint_Configuration */
 338:Src/usbd_conf.c ****   /* USER CODE BEGIN EndPoint_Configuration_HID */
 339:Src/usbd_conf.c ****   HAL_PCDEx_PMAConfig((PCD_HandleTypeDef*)pdev->pData , 0x81 , PCD_SNG_BUF, 0x100);
 340:Src/usbd_conf.c ****   /* USER CODE END EndPoint_Configuration_HID */
 341:Src/usbd_conf.c ****   return USBD_OK;
 342:Src/usbd_conf.c **** }
 343:Src/usbd_conf.c **** 
 344:Src/usbd_conf.c **** /**
 345:Src/usbd_conf.c ****   * @brief  De-Initializes the low level portion of the device driver.
 346:Src/usbd_conf.c ****   * @param  pdev: Device handle
 347:Src/usbd_conf.c ****   * @retval USBD status
 348:Src/usbd_conf.c ****   */
 349:Src/usbd_conf.c **** USBD_StatusTypeDef USBD_LL_DeInit(USBD_HandleTypeDef *pdev)
 350:Src/usbd_conf.c **** {
 351:Src/usbd_conf.c ****   HAL_StatusTypeDef hal_status = HAL_OK;
 352:Src/usbd_conf.c ****   USBD_StatusTypeDef usb_status = USBD_OK;
 353:Src/usbd_conf.c **** 
 354:Src/usbd_conf.c ****   hal_status = HAL_PCD_DeInit(pdev->pData);
 355:Src/usbd_conf.c **** 
 356:Src/usbd_conf.c ****   usb_status =  USBD_Get_USB_Status(hal_status);
 357:Src/usbd_conf.c ****  
 358:Src/usbd_conf.c ****   return usb_status; 
 359:Src/usbd_conf.c **** }
 360:Src/usbd_conf.c **** 
 361:Src/usbd_conf.c **** /**
 362:Src/usbd_conf.c ****   * @brief  Starts the low level portion of the device driver.
 363:Src/usbd_conf.c ****   * @param  pdev: Device handle
 364:Src/usbd_conf.c ****   * @retval USBD status
 365:Src/usbd_conf.c ****   */
 366:Src/usbd_conf.c **** USBD_StatusTypeDef USBD_LL_Start(USBD_HandleTypeDef *pdev)
 367:Src/usbd_conf.c **** {
 368:Src/usbd_conf.c ****   HAL_StatusTypeDef hal_status = HAL_OK;
 369:Src/usbd_conf.c ****   USBD_StatusTypeDef usb_status = USBD_OK;
 370:Src/usbd_conf.c ****  
 371:Src/usbd_conf.c ****   hal_status = HAL_PCD_Start(pdev->pData);
 372:Src/usbd_conf.c ****      
 373:Src/usbd_conf.c ****   usb_status =  USBD_Get_USB_Status(hal_status);
 374:Src/usbd_conf.c ****   
ARM GAS  /tmp/cch7iMLb.s 			page 8


 375:Src/usbd_conf.c ****   return usb_status;
 376:Src/usbd_conf.c **** }
 377:Src/usbd_conf.c **** 
 378:Src/usbd_conf.c **** /**
 379:Src/usbd_conf.c ****   * @brief  Stops the low level portion of the device driver.
 380:Src/usbd_conf.c ****   * @param  pdev: Device handle
 381:Src/usbd_conf.c ****   * @retval USBD status
 382:Src/usbd_conf.c ****   */
 383:Src/usbd_conf.c **** USBD_StatusTypeDef USBD_LL_Stop(USBD_HandleTypeDef *pdev)
 384:Src/usbd_conf.c **** {
 385:Src/usbd_conf.c ****   HAL_StatusTypeDef hal_status = HAL_OK;
 386:Src/usbd_conf.c ****   USBD_StatusTypeDef usb_status = USBD_OK;
 387:Src/usbd_conf.c **** 
 388:Src/usbd_conf.c ****   hal_status = HAL_PCD_Stop(pdev->pData);
 389:Src/usbd_conf.c **** 
 390:Src/usbd_conf.c ****   usb_status =  USBD_Get_USB_Status(hal_status);
 391:Src/usbd_conf.c ****   
 392:Src/usbd_conf.c ****   return usb_status;
 393:Src/usbd_conf.c **** }
 394:Src/usbd_conf.c **** 
 395:Src/usbd_conf.c **** /**
 396:Src/usbd_conf.c ****   * @brief  Opens an endpoint of the low level driver.
 397:Src/usbd_conf.c ****   * @param  pdev: Device handle
 398:Src/usbd_conf.c ****   * @param  ep_addr: Endpoint number
 399:Src/usbd_conf.c ****   * @param  ep_type: Endpoint type
 400:Src/usbd_conf.c ****   * @param  ep_mps: Endpoint max packet size
 401:Src/usbd_conf.c ****   * @retval USBD status
 402:Src/usbd_conf.c ****   */
 403:Src/usbd_conf.c **** USBD_StatusTypeDef USBD_LL_OpenEP(USBD_HandleTypeDef *pdev, uint8_t ep_addr, uint8_t ep_type, uint1
 404:Src/usbd_conf.c **** {
 405:Src/usbd_conf.c ****   HAL_StatusTypeDef hal_status = HAL_OK;
 406:Src/usbd_conf.c ****   USBD_StatusTypeDef usb_status = USBD_OK;
 407:Src/usbd_conf.c **** 
 408:Src/usbd_conf.c ****   hal_status = HAL_PCD_EP_Open(pdev->pData, ep_addr, ep_mps, ep_type);
 409:Src/usbd_conf.c **** 
 410:Src/usbd_conf.c ****   usb_status =  USBD_Get_USB_Status(hal_status);
 411:Src/usbd_conf.c ****  
 412:Src/usbd_conf.c ****   return usb_status;
 413:Src/usbd_conf.c **** }
 414:Src/usbd_conf.c **** 
 415:Src/usbd_conf.c **** /**
 416:Src/usbd_conf.c ****   * @brief  Closes an endpoint of the low level driver.
 417:Src/usbd_conf.c ****   * @param  pdev: Device handle
 418:Src/usbd_conf.c ****   * @param  ep_addr: Endpoint number
 419:Src/usbd_conf.c ****   * @retval USBD status
 420:Src/usbd_conf.c ****   */
 421:Src/usbd_conf.c **** USBD_StatusTypeDef USBD_LL_CloseEP(USBD_HandleTypeDef *pdev, uint8_t ep_addr)
 422:Src/usbd_conf.c **** {
 423:Src/usbd_conf.c ****   HAL_StatusTypeDef hal_status = HAL_OK;
 424:Src/usbd_conf.c ****   USBD_StatusTypeDef usb_status = USBD_OK;
 425:Src/usbd_conf.c ****   
 426:Src/usbd_conf.c ****   hal_status = HAL_PCD_EP_Close(pdev->pData, ep_addr);
 427:Src/usbd_conf.c ****       
 428:Src/usbd_conf.c ****   usb_status =  USBD_Get_USB_Status(hal_status);
 429:Src/usbd_conf.c **** 
 430:Src/usbd_conf.c ****   return usb_status;  
 431:Src/usbd_conf.c **** }
ARM GAS  /tmp/cch7iMLb.s 			page 9


 432:Src/usbd_conf.c **** 
 433:Src/usbd_conf.c **** /**
 434:Src/usbd_conf.c ****   * @brief  Flushes an endpoint of the Low Level Driver.
 435:Src/usbd_conf.c ****   * @param  pdev: Device handle
 436:Src/usbd_conf.c ****   * @param  ep_addr: Endpoint number
 437:Src/usbd_conf.c ****   * @retval USBD status
 438:Src/usbd_conf.c ****   */
 439:Src/usbd_conf.c **** USBD_StatusTypeDef USBD_LL_FlushEP(USBD_HandleTypeDef *pdev, uint8_t ep_addr)
 440:Src/usbd_conf.c **** {
 441:Src/usbd_conf.c ****   HAL_StatusTypeDef hal_status = HAL_OK;
 442:Src/usbd_conf.c ****   USBD_StatusTypeDef usb_status = USBD_OK;
 443:Src/usbd_conf.c ****   
 444:Src/usbd_conf.c ****   hal_status = HAL_PCD_EP_Flush(pdev->pData, ep_addr);
 445:Src/usbd_conf.c ****       
 446:Src/usbd_conf.c ****   usb_status =  USBD_Get_USB_Status(hal_status);
 447:Src/usbd_conf.c ****   
 448:Src/usbd_conf.c ****   return usb_status;  
 449:Src/usbd_conf.c **** }
 450:Src/usbd_conf.c **** 
 451:Src/usbd_conf.c **** /**
 452:Src/usbd_conf.c ****   * @brief  Sets a Stall condition on an endpoint of the Low Level Driver.
 453:Src/usbd_conf.c ****   * @param  pdev: Device handle
 454:Src/usbd_conf.c ****   * @param  ep_addr: Endpoint number
 455:Src/usbd_conf.c ****   * @retval USBD status
 456:Src/usbd_conf.c ****   */
 457:Src/usbd_conf.c **** USBD_StatusTypeDef USBD_LL_StallEP(USBD_HandleTypeDef *pdev, uint8_t ep_addr)
 458:Src/usbd_conf.c **** {
 459:Src/usbd_conf.c ****   HAL_StatusTypeDef hal_status = HAL_OK;
 460:Src/usbd_conf.c ****   USBD_StatusTypeDef usb_status = USBD_OK;
 461:Src/usbd_conf.c ****   
 462:Src/usbd_conf.c ****   hal_status = HAL_PCD_EP_SetStall(pdev->pData, ep_addr);
 463:Src/usbd_conf.c **** 
 464:Src/usbd_conf.c ****   usb_status =  USBD_Get_USB_Status(hal_status);
 465:Src/usbd_conf.c ****  
 466:Src/usbd_conf.c ****   return usb_status;  
 467:Src/usbd_conf.c **** }
 468:Src/usbd_conf.c **** 
 469:Src/usbd_conf.c **** /**
 470:Src/usbd_conf.c ****   * @brief  Clears a Stall condition on an endpoint of the Low Level Driver.
 471:Src/usbd_conf.c ****   * @param  pdev: Device handle
 472:Src/usbd_conf.c ****   * @param  ep_addr: Endpoint number
 473:Src/usbd_conf.c ****   * @retval USBD status
 474:Src/usbd_conf.c ****   */
 475:Src/usbd_conf.c **** USBD_StatusTypeDef USBD_LL_ClearStallEP(USBD_HandleTypeDef *pdev, uint8_t ep_addr)
 476:Src/usbd_conf.c **** {
 477:Src/usbd_conf.c ****   HAL_StatusTypeDef hal_status = HAL_OK;
 478:Src/usbd_conf.c ****   USBD_StatusTypeDef usb_status = USBD_OK;
 479:Src/usbd_conf.c ****   
 480:Src/usbd_conf.c ****   hal_status = HAL_PCD_EP_ClrStall(pdev->pData, ep_addr);  
 481:Src/usbd_conf.c ****      
 482:Src/usbd_conf.c ****   usb_status =  USBD_Get_USB_Status(hal_status);
 483:Src/usbd_conf.c **** 
 484:Src/usbd_conf.c ****   return usb_status; 
 485:Src/usbd_conf.c **** }
 486:Src/usbd_conf.c **** 
 487:Src/usbd_conf.c **** /**
 488:Src/usbd_conf.c ****   * @brief  Returns Stall condition.
ARM GAS  /tmp/cch7iMLb.s 			page 10


 489:Src/usbd_conf.c ****   * @param  pdev: Device handle
 490:Src/usbd_conf.c ****   * @param  ep_addr: Endpoint number
 491:Src/usbd_conf.c ****   * @retval Stall (1: Yes, 0: No)
 492:Src/usbd_conf.c ****   */
 493:Src/usbd_conf.c **** uint8_t USBD_LL_IsStallEP(USBD_HandleTypeDef *pdev, uint8_t ep_addr)
 494:Src/usbd_conf.c **** {
 495:Src/usbd_conf.c ****   PCD_HandleTypeDef *hpcd = (PCD_HandleTypeDef*) pdev->pData;
 496:Src/usbd_conf.c ****   
 497:Src/usbd_conf.c ****   if((ep_addr & 0x80) == 0x80)
 498:Src/usbd_conf.c ****   {
 499:Src/usbd_conf.c ****     return hpcd->IN_ep[ep_addr & 0x7F].is_stall; 
 500:Src/usbd_conf.c ****   }
 501:Src/usbd_conf.c ****   else
 502:Src/usbd_conf.c ****   {
 503:Src/usbd_conf.c ****     return hpcd->OUT_ep[ep_addr & 0x7F].is_stall; 
 504:Src/usbd_conf.c ****   }
 505:Src/usbd_conf.c **** }
 506:Src/usbd_conf.c **** 
 507:Src/usbd_conf.c **** /**
 508:Src/usbd_conf.c ****   * @brief  Assigns a USB address to the device.
 509:Src/usbd_conf.c ****   * @param  pdev: Device handle
 510:Src/usbd_conf.c ****   * @param  dev_addr: Device address
 511:Src/usbd_conf.c ****   * @retval USBD status
 512:Src/usbd_conf.c ****   */
 513:Src/usbd_conf.c **** USBD_StatusTypeDef USBD_LL_SetUSBAddress(USBD_HandleTypeDef *pdev, uint8_t dev_addr)
 514:Src/usbd_conf.c **** {
 515:Src/usbd_conf.c ****   HAL_StatusTypeDef hal_status = HAL_OK;
 516:Src/usbd_conf.c ****   USBD_StatusTypeDef usb_status = USBD_OK;
 517:Src/usbd_conf.c ****   
 518:Src/usbd_conf.c ****   hal_status = HAL_PCD_SetAddress(pdev->pData, dev_addr);
 519:Src/usbd_conf.c ****      
 520:Src/usbd_conf.c ****   usb_status =  USBD_Get_USB_Status(hal_status);
 521:Src/usbd_conf.c ****  
 522:Src/usbd_conf.c ****   return usb_status;  
 523:Src/usbd_conf.c **** }
 524:Src/usbd_conf.c **** 
 525:Src/usbd_conf.c **** /**
 526:Src/usbd_conf.c ****   * @brief  Transmits data over an endpoint.
 527:Src/usbd_conf.c ****   * @param  pdev: Device handle
 528:Src/usbd_conf.c ****   * @param  ep_addr: Endpoint number
 529:Src/usbd_conf.c ****   * @param  pbuf: Pointer to data to be sent
 530:Src/usbd_conf.c ****   * @param  size: Data size    
 531:Src/usbd_conf.c ****   * @retval USBD status
 532:Src/usbd_conf.c ****   */
 533:Src/usbd_conf.c **** USBD_StatusTypeDef USBD_LL_Transmit(USBD_HandleTypeDef *pdev, uint8_t ep_addr, uint8_t *pbuf, uint1
 534:Src/usbd_conf.c **** {
 535:Src/usbd_conf.c ****   HAL_StatusTypeDef hal_status = HAL_OK;
 536:Src/usbd_conf.c ****   USBD_StatusTypeDef usb_status = USBD_OK;
 537:Src/usbd_conf.c **** 
 538:Src/usbd_conf.c ****   hal_status = HAL_PCD_EP_Transmit(pdev->pData, ep_addr, pbuf, size);
 539:Src/usbd_conf.c ****      
 540:Src/usbd_conf.c ****   usb_status =  USBD_Get_USB_Status(hal_status);
 541:Src/usbd_conf.c ****   
 542:Src/usbd_conf.c ****   return usb_status;    
 543:Src/usbd_conf.c **** }
 544:Src/usbd_conf.c **** 
 545:Src/usbd_conf.c **** /**
ARM GAS  /tmp/cch7iMLb.s 			page 11


 546:Src/usbd_conf.c ****   * @brief  Prepares an endpoint for reception.
 547:Src/usbd_conf.c ****   * @param  pdev: Device handle
 548:Src/usbd_conf.c ****   * @param  ep_addr: Endpoint number
 549:Src/usbd_conf.c ****   * @param  pbuf: Pointer to data to be received
 550:Src/usbd_conf.c ****   * @param  size: Data size
 551:Src/usbd_conf.c ****   * @retval USBD status
 552:Src/usbd_conf.c ****   */
 553:Src/usbd_conf.c **** USBD_StatusTypeDef USBD_LL_PrepareReceive(USBD_HandleTypeDef *pdev, uint8_t ep_addr, uint8_t *pbuf,
 554:Src/usbd_conf.c **** {
 555:Src/usbd_conf.c ****   HAL_StatusTypeDef hal_status = HAL_OK;
 556:Src/usbd_conf.c ****   USBD_StatusTypeDef usb_status = USBD_OK;
 557:Src/usbd_conf.c **** 
 558:Src/usbd_conf.c ****   hal_status = HAL_PCD_EP_Receive(pdev->pData, ep_addr, pbuf, size);
 559:Src/usbd_conf.c ****      
 560:Src/usbd_conf.c ****   usb_status =  USBD_Get_USB_Status(hal_status);
 561:Src/usbd_conf.c ****   	
 562:Src/usbd_conf.c ****   return usb_status; 
 563:Src/usbd_conf.c **** }
 564:Src/usbd_conf.c **** 
 565:Src/usbd_conf.c **** /**
 566:Src/usbd_conf.c ****   * @brief  Returns the last transfered packet size.
 567:Src/usbd_conf.c ****   * @param  pdev: Device handle
 568:Src/usbd_conf.c ****   * @param  ep_addr: Endpoint number
 569:Src/usbd_conf.c ****   * @retval Recived Data Size
 570:Src/usbd_conf.c ****   */
 571:Src/usbd_conf.c **** uint32_t USBD_LL_GetRxDataSize(USBD_HandleTypeDef *pdev, uint8_t ep_addr)
 572:Src/usbd_conf.c **** {
 573:Src/usbd_conf.c ****   return HAL_PCD_EP_GetRxCount((PCD_HandleTypeDef*) pdev->pData, ep_addr);
 574:Src/usbd_conf.c **** }
 575:Src/usbd_conf.c **** 
 576:Src/usbd_conf.c **** /**
 577:Src/usbd_conf.c ****   * @brief  Delays routine for the USB device library.
 578:Src/usbd_conf.c ****   * @param  Delay: Delay in ms
 579:Src/usbd_conf.c ****   * @retval None
 580:Src/usbd_conf.c ****   */
 581:Src/usbd_conf.c **** void USBD_LL_Delay(uint32_t Delay)
 582:Src/usbd_conf.c **** {
 583:Src/usbd_conf.c ****   HAL_Delay(Delay);
 584:Src/usbd_conf.c **** }
 585:Src/usbd_conf.c **** 
 586:Src/usbd_conf.c **** /**
 587:Src/usbd_conf.c ****   * @brief  Static single allocation.
 588:Src/usbd_conf.c ****   * @param  size: Size of allocated memory
 589:Src/usbd_conf.c ****   * @retval None
 590:Src/usbd_conf.c ****   */
 591:Src/usbd_conf.c **** void *USBD_static_malloc(uint32_t size)
 592:Src/usbd_conf.c **** {
 593:Src/usbd_conf.c ****   static uint32_t mem[(sizeof(USBD_HID_HandleTypeDef)/4)+1];/* On 32-bit boundary */
 594:Src/usbd_conf.c ****   return mem;
 595:Src/usbd_conf.c **** }
 596:Src/usbd_conf.c **** 
 597:Src/usbd_conf.c **** /**
 598:Src/usbd_conf.c ****   * @brief  Dummy memory free
 599:Src/usbd_conf.c ****   * @param  p: Pointer to allocated  memory address
 600:Src/usbd_conf.c ****   * @retval None
 601:Src/usbd_conf.c ****   */
 602:Src/usbd_conf.c **** void USBD_static_free(void *p)
ARM GAS  /tmp/cch7iMLb.s 			page 12


 603:Src/usbd_conf.c **** {
 604:Src/usbd_conf.c **** 
 605:Src/usbd_conf.c **** }
 606:Src/usbd_conf.c **** 
 607:Src/usbd_conf.c **** /* USER CODE BEGIN 5 */
 608:Src/usbd_conf.c **** /**
 609:Src/usbd_conf.c ****   * @brief  Configures system clock after wake-up from USB Resume CallBack:
 610:Src/usbd_conf.c ****   *         enable HSI, PLL and select PLL as system clock source.
 611:Src/usbd_conf.c ****   * @retval None
 612:Src/usbd_conf.c ****   */
 613:Src/usbd_conf.c **** static void SystemClockConfig_Resume(void)
 614:Src/usbd_conf.c **** {
 615:Src/usbd_conf.c ****   SystemClock_Config();
 616:Src/usbd_conf.c **** }
 617:Src/usbd_conf.c **** /* USER CODE END 5 */
 618:Src/usbd_conf.c **** 
 619:Src/usbd_conf.c **** /**
 620:Src/usbd_conf.c ****   * @brief  Retuns the USB status depending on the HAL status:
 621:Src/usbd_conf.c ****   * @param  hal_status: HAL status
 622:Src/usbd_conf.c ****   * @retval USB status
 623:Src/usbd_conf.c ****   */
 624:Src/usbd_conf.c **** USBD_StatusTypeDef USBD_Get_USB_Status(HAL_StatusTypeDef hal_status)
 625:Src/usbd_conf.c **** {
  27              		.loc 1 625 1 view -0
  28              		.cfi_startproc
  29              		@ args = 0, pretend = 0, frame = 0
  30              		@ frame_needed = 0, uses_anonymous_args = 0
  31              		@ link register save eliminated.
 626:Src/usbd_conf.c ****   USBD_StatusTypeDef usb_status = USBD_OK;
  32              		.loc 1 626 3 view .LVU1
 627:Src/usbd_conf.c **** 
 628:Src/usbd_conf.c ****   switch (hal_status)
  33              		.loc 1 628 3 view .LVU2
  34 0000 0228     		cmp	r0, #2
  35 0002 04D0     		beq	.L3
  36 0004 05D8     		bhi	.L4
  37 0006 0028     		cmp	r0, #0
  38 0008 00D0     		beq	.L2
 629:Src/usbd_conf.c ****   {
 630:Src/usbd_conf.c ****     case HAL_OK :
 631:Src/usbd_conf.c ****       usb_status = USBD_OK;
 632:Src/usbd_conf.c ****     break;
 633:Src/usbd_conf.c ****     case HAL_ERROR :
 634:Src/usbd_conf.c ****       usb_status = USBD_FAIL;
  39              		.loc 1 634 18 is_stmt 0 view .LVU3
  40 000a 0220     		movs	r0, #2
  41              	.LVL1:
  42              	.L2:
 635:Src/usbd_conf.c ****     break;
 636:Src/usbd_conf.c ****     case HAL_BUSY :
 637:Src/usbd_conf.c ****       usb_status = USBD_BUSY;
 638:Src/usbd_conf.c ****     break;
 639:Src/usbd_conf.c ****     case HAL_TIMEOUT :
 640:Src/usbd_conf.c ****       usb_status = USBD_FAIL;
 641:Src/usbd_conf.c ****     break;
 642:Src/usbd_conf.c ****     default :
 643:Src/usbd_conf.c ****       usb_status = USBD_FAIL;
ARM GAS  /tmp/cch7iMLb.s 			page 13


 644:Src/usbd_conf.c ****     break;
 645:Src/usbd_conf.c ****   }
 646:Src/usbd_conf.c ****   return usb_status;
  43              		.loc 1 646 3 is_stmt 1 view .LVU4
 647:Src/usbd_conf.c **** }
  44              		.loc 1 647 1 is_stmt 0 view .LVU5
  45              		@ sp needed
  46 000c 7047     		bx	lr
  47              	.LVL2:
  48              	.L3:
 637:Src/usbd_conf.c ****     break;
  49              		.loc 1 637 18 view .LVU6
  50 000e 0120     		movs	r0, #1
  51              	.LVL3:
 637:Src/usbd_conf.c ****     break;
  52              		.loc 1 637 18 view .LVU7
  53 0010 FCE7     		b	.L2
  54              	.LVL4:
  55              	.L4:
 640:Src/usbd_conf.c ****     break;
  56              		.loc 1 640 18 view .LVU8
  57 0012 0220     		movs	r0, #2
  58              	.LVL5:
 640:Src/usbd_conf.c ****     break;
  59              		.loc 1 640 18 view .LVU9
  60 0014 FAE7     		b	.L2
  61              		.cfi_endproc
  62              	.LFE68:
  64              		.section	.text.SystemClockConfig_Resume,"ax",%progbits
  65              		.align	1
  66              		.syntax unified
  67              		.code	16
  68              		.thumb_func
  69              		.fpu softvfp
  71              	SystemClockConfig_Resume:
  72              	.LFB67:
 614:Src/usbd_conf.c ****   SystemClock_Config();
  73              		.loc 1 614 1 is_stmt 1 view -0
  74              		.cfi_startproc
  75              		@ args = 0, pretend = 0, frame = 0
  76              		@ frame_needed = 0, uses_anonymous_args = 0
  77 0000 10B5     		push	{r4, lr}
  78              	.LCFI0:
  79              		.cfi_def_cfa_offset 8
  80              		.cfi_offset 4, -8
  81              		.cfi_offset 14, -4
 615:Src/usbd_conf.c **** }
  82              		.loc 1 615 3 view .LVU11
  83 0002 FFF7FEFF 		bl	SystemClock_Config
  84              	.LVL6:
 616:Src/usbd_conf.c **** /* USER CODE END 5 */
  85              		.loc 1 616 1 is_stmt 0 view .LVU12
  86              		@ sp needed
  87 0006 10BD     		pop	{r4, pc}
  88              		.cfi_endproc
  89              	.LFE67:
  91              		.section	.text.HAL_PCD_MspInit,"ax",%progbits
ARM GAS  /tmp/cch7iMLb.s 			page 14


  92              		.align	1
  93              		.global	HAL_PCD_MspInit
  94              		.syntax unified
  95              		.code	16
  96              		.thumb_func
  97              		.fpu softvfp
  99              	HAL_PCD_MspInit:
 100              	.LVL7:
 101              	.LFB37:
  67:Src/usbd_conf.c ****   if(pcdHandle->Instance==USB)
 102              		.loc 1 67 1 is_stmt 1 view -0
 103              		.cfi_startproc
 104              		@ args = 0, pretend = 0, frame = 8
 105              		@ frame_needed = 0, uses_anonymous_args = 0
  67:Src/usbd_conf.c ****   if(pcdHandle->Instance==USB)
 106              		.loc 1 67 1 is_stmt 0 view .LVU14
 107 0000 00B5     		push	{lr}
 108              	.LCFI1:
 109              		.cfi_def_cfa_offset 4
 110              		.cfi_offset 14, -4
 111 0002 83B0     		sub	sp, sp, #12
 112              	.LCFI2:
 113              		.cfi_def_cfa_offset 16
  68:Src/usbd_conf.c ****   {
 114              		.loc 1 68 3 is_stmt 1 view .LVU15
  68:Src/usbd_conf.c ****   {
 115              		.loc 1 68 15 is_stmt 0 view .LVU16
 116 0004 0268     		ldr	r2, [r0]
  68:Src/usbd_conf.c ****   {
 117              		.loc 1 68 5 view .LVU17
 118 0006 0C4B     		ldr	r3, .L10
 119 0008 9A42     		cmp	r2, r3
 120 000a 01D0     		beq	.L9
 121              	.LVL8:
 122              	.L7:
  83:Src/usbd_conf.c **** 
 123              		.loc 1 83 1 view .LVU18
 124 000c 03B0     		add	sp, sp, #12
 125              		@ sp needed
 126 000e 00BD     		pop	{pc}
 127              	.LVL9:
 128              	.L9:
  74:Src/usbd_conf.c **** 
 129              		.loc 1 74 5 is_stmt 1 view .LVU19
 130              	.LBB2:
  74:Src/usbd_conf.c **** 
 131              		.loc 1 74 5 view .LVU20
  74:Src/usbd_conf.c **** 
 132              		.loc 1 74 5 view .LVU21
 133 0010 0A4A     		ldr	r2, .L10+4
 134 0012 D169     		ldr	r1, [r2, #28]
 135 0014 8020     		movs	r0, #128
 136              	.LVL10:
  74:Src/usbd_conf.c **** 
 137              		.loc 1 74 5 is_stmt 0 view .LVU22
 138 0016 0004     		lsls	r0, r0, #16
 139 0018 0143     		orrs	r1, r0
ARM GAS  /tmp/cch7iMLb.s 			page 15


 140 001a D161     		str	r1, [r2, #28]
  74:Src/usbd_conf.c **** 
 141              		.loc 1 74 5 is_stmt 1 view .LVU23
 142 001c D369     		ldr	r3, [r2, #28]
 143 001e 0340     		ands	r3, r0
 144 0020 0193     		str	r3, [sp, #4]
  74:Src/usbd_conf.c **** 
 145              		.loc 1 74 5 view .LVU24
 146 0022 019B     		ldr	r3, [sp, #4]
 147              	.LBE2:
  77:Src/usbd_conf.c ****     HAL_NVIC_EnableIRQ(USB_IRQn);
 148              		.loc 1 77 5 view .LVU25
 149 0024 0022     		movs	r2, #0
 150 0026 0021     		movs	r1, #0
 151 0028 1F20     		movs	r0, #31
 152 002a FFF7FEFF 		bl	HAL_NVIC_SetPriority
 153              	.LVL11:
  78:Src/usbd_conf.c ****   /* USER CODE BEGIN USB_MspInit 1 */
 154              		.loc 1 78 5 view .LVU26
 155 002e 1F20     		movs	r0, #31
 156 0030 FFF7FEFF 		bl	HAL_NVIC_EnableIRQ
 157              	.LVL12:
  83:Src/usbd_conf.c **** 
 158              		.loc 1 83 1 is_stmt 0 view .LVU27
 159 0034 EAE7     		b	.L7
 160              	.L11:
 161 0036 C046     		.align	2
 162              	.L10:
 163 0038 005C0040 		.word	1073765376
 164 003c 00100240 		.word	1073876992
 165              		.cfi_endproc
 166              	.LFE37:
 168              		.section	.text.HAL_PCD_MspDeInit,"ax",%progbits
 169              		.align	1
 170              		.global	HAL_PCD_MspDeInit
 171              		.syntax unified
 172              		.code	16
 173              		.thumb_func
 174              		.fpu softvfp
 176              	HAL_PCD_MspDeInit:
 177              	.LVL13:
 178              	.LFB38:
  86:Src/usbd_conf.c ****   if(pcdHandle->Instance==USB)
 179              		.loc 1 86 1 is_stmt 1 view -0
 180              		.cfi_startproc
 181              		@ args = 0, pretend = 0, frame = 0
 182              		@ frame_needed = 0, uses_anonymous_args = 0
  86:Src/usbd_conf.c ****   if(pcdHandle->Instance==USB)
 183              		.loc 1 86 1 is_stmt 0 view .LVU29
 184 0000 10B5     		push	{r4, lr}
 185              	.LCFI3:
 186              		.cfi_def_cfa_offset 8
 187              		.cfi_offset 4, -8
 188              		.cfi_offset 14, -4
  87:Src/usbd_conf.c ****   {
 189              		.loc 1 87 3 is_stmt 1 view .LVU30
  87:Src/usbd_conf.c ****   {
ARM GAS  /tmp/cch7iMLb.s 			page 16


 190              		.loc 1 87 15 is_stmt 0 view .LVU31
 191 0002 0268     		ldr	r2, [r0]
  87:Src/usbd_conf.c ****   {
 192              		.loc 1 87 5 view .LVU32
 193 0004 064B     		ldr	r3, .L15
 194 0006 9A42     		cmp	r2, r3
 195 0008 00D0     		beq	.L14
 196              	.LVL14:
 197              	.L12:
 102:Src/usbd_conf.c **** 
 198              		.loc 1 102 1 view .LVU33
 199              		@ sp needed
 200 000a 10BD     		pop	{r4, pc}
 201              	.LVL15:
 202              	.L14:
  93:Src/usbd_conf.c **** 
 203              		.loc 1 93 5 is_stmt 1 view .LVU34
 204 000c 054A     		ldr	r2, .L15+4
 205 000e D369     		ldr	r3, [r2, #28]
 206 0010 0549     		ldr	r1, .L15+8
 207 0012 0B40     		ands	r3, r1
 208 0014 D361     		str	r3, [r2, #28]
  96:Src/usbd_conf.c **** 
 209              		.loc 1 96 5 view .LVU35
 210 0016 1F20     		movs	r0, #31
 211              	.LVL16:
  96:Src/usbd_conf.c **** 
 212              		.loc 1 96 5 is_stmt 0 view .LVU36
 213 0018 FFF7FEFF 		bl	HAL_NVIC_DisableIRQ
 214              	.LVL17:
 102:Src/usbd_conf.c **** 
 215              		.loc 1 102 1 view .LVU37
 216 001c F5E7     		b	.L12
 217              	.L16:
 218 001e C046     		.align	2
 219              	.L15:
 220 0020 005C0040 		.word	1073765376
 221 0024 00100240 		.word	1073876992
 222 0028 FFFF7FFF 		.word	-8388609
 223              		.cfi_endproc
 224              	.LFE38:
 226              		.section	.text.HAL_PCD_SetupStageCallback,"ax",%progbits
 227              		.align	1
 228              		.global	HAL_PCD_SetupStageCallback
 229              		.syntax unified
 230              		.code	16
 231              		.thumb_func
 232              		.fpu softvfp
 234              	HAL_PCD_SetupStageCallback:
 235              	.LVL18:
 236              	.LFB39:
 114:Src/usbd_conf.c ****   USBD_LL_SetupStage((USBD_HandleTypeDef*)hpcd->pData, (uint8_t *)hpcd->Setup);
 237              		.loc 1 114 1 is_stmt 1 view -0
 238              		.cfi_startproc
 239              		@ args = 0, pretend = 0, frame = 0
 240              		@ frame_needed = 0, uses_anonymous_args = 0
 114:Src/usbd_conf.c ****   USBD_LL_SetupStage((USBD_HandleTypeDef*)hpcd->pData, (uint8_t *)hpcd->Setup);
ARM GAS  /tmp/cch7iMLb.s 			page 17


 241              		.loc 1 114 1 is_stmt 0 view .LVU39
 242 0000 10B5     		push	{r4, lr}
 243              	.LCFI4:
 244              		.cfi_def_cfa_offset 8
 245              		.cfi_offset 4, -8
 246              		.cfi_offset 14, -4
 247 0002 0100     		movs	r1, r0
 115:Src/usbd_conf.c **** }
 248              		.loc 1 115 3 is_stmt 1 view .LVU40
 115:Src/usbd_conf.c **** }
 249              		.loc 1 115 47 is_stmt 0 view .LVU41
 250 0004 8723     		movs	r3, #135
 251 0006 9B00     		lsls	r3, r3, #2
 252 0008 C058     		ldr	r0, [r0, r3]
 253              	.LVL19:
 115:Src/usbd_conf.c **** }
 254              		.loc 1 115 67 view .LVU42
 255 000a ED31     		adds	r1, r1, #237
 256              	.LVL20:
 115:Src/usbd_conf.c **** }
 257              		.loc 1 115 67 view .LVU43
 258 000c FF31     		adds	r1, r1, #255
 259              	.LVL21:
 115:Src/usbd_conf.c **** }
 260              		.loc 1 115 3 view .LVU44
 261 000e FFF7FEFF 		bl	USBD_LL_SetupStage
 262              	.LVL22:
 116:Src/usbd_conf.c **** 
 263              		.loc 1 116 1 view .LVU45
 264              		@ sp needed
 265 0012 10BD     		pop	{r4, pc}
 266              		.cfi_endproc
 267              	.LFE39:
 269              		.section	.text.HAL_PCD_DataOutStageCallback,"ax",%progbits
 270              		.align	1
 271              		.global	HAL_PCD_DataOutStageCallback
 272              		.syntax unified
 273              		.code	16
 274              		.thumb_func
 275              		.fpu softvfp
 277              	HAL_PCD_DataOutStageCallback:
 278              	.LVL23:
 279              	.LFB40:
 129:Src/usbd_conf.c ****   USBD_LL_DataOutStage((USBD_HandleTypeDef*)hpcd->pData, epnum, hpcd->OUT_ep[epnum].xfer_buff);
 280              		.loc 1 129 1 is_stmt 1 view -0
 281              		.cfi_startproc
 282              		@ args = 0, pretend = 0, frame = 0
 283              		@ frame_needed = 0, uses_anonymous_args = 0
 129:Src/usbd_conf.c ****   USBD_LL_DataOutStage((USBD_HandleTypeDef*)hpcd->pData, epnum, hpcd->OUT_ep[epnum].xfer_buff);
 284              		.loc 1 129 1 is_stmt 0 view .LVU47
 285 0000 10B5     		push	{r4, lr}
 286              	.LCFI5:
 287              		.cfi_def_cfa_offset 8
 288              		.cfi_offset 4, -8
 289              		.cfi_offset 14, -4
 290 0002 0300     		movs	r3, r0
 130:Src/usbd_conf.c **** }
ARM GAS  /tmp/cch7iMLb.s 			page 18


 291              		.loc 1 130 3 is_stmt 1 view .LVU48
 130:Src/usbd_conf.c **** }
 292              		.loc 1 130 49 is_stmt 0 view .LVU49
 293 0004 8722     		movs	r2, #135
 294 0006 9200     		lsls	r2, r2, #2
 295 0008 8058     		ldr	r0, [r0, r2]
 296              	.LVL24:
 130:Src/usbd_conf.c **** }
 297              		.loc 1 130 3 view .LVU50
 298 000a CA00     		lsls	r2, r1, #3
 299 000c 521A     		subs	r2, r2, r1
 300 000e 9200     		lsls	r2, r2, #2
 301 0010 9B18     		adds	r3, r3, r2
 302              	.LVL25:
 130:Src/usbd_conf.c **** }
 303              		.loc 1 130 3 view .LVU51
 304 0012 1933     		adds	r3, r3, #25
 305 0014 FF33     		adds	r3, r3, #255
 306 0016 1A68     		ldr	r2, [r3]
 307 0018 FFF7FEFF 		bl	USBD_LL_DataOutStage
 308              	.LVL26:
 131:Src/usbd_conf.c **** 
 309              		.loc 1 131 1 view .LVU52
 310              		@ sp needed
 311 001c 10BD     		pop	{r4, pc}
 312              		.cfi_endproc
 313              	.LFE40:
 315              		.section	.text.HAL_PCD_DataInStageCallback,"ax",%progbits
 316              		.align	1
 317              		.global	HAL_PCD_DataInStageCallback
 318              		.syntax unified
 319              		.code	16
 320              		.thumb_func
 321              		.fpu softvfp
 323              	HAL_PCD_DataInStageCallback:
 324              	.LVL27:
 325              	.LFB41:
 144:Src/usbd_conf.c ****   USBD_LL_DataInStage((USBD_HandleTypeDef*)hpcd->pData, epnum, hpcd->IN_ep[epnum].xfer_buff);
 326              		.loc 1 144 1 is_stmt 1 view -0
 327              		.cfi_startproc
 328              		@ args = 0, pretend = 0, frame = 0
 329              		@ frame_needed = 0, uses_anonymous_args = 0
 144:Src/usbd_conf.c ****   USBD_LL_DataInStage((USBD_HandleTypeDef*)hpcd->pData, epnum, hpcd->IN_ep[epnum].xfer_buff);
 330              		.loc 1 144 1 is_stmt 0 view .LVU54
 331 0000 10B5     		push	{r4, lr}
 332              	.LCFI6:
 333              		.cfi_def_cfa_offset 8
 334              		.cfi_offset 4, -8
 335              		.cfi_offset 14, -4
 336 0002 0300     		movs	r3, r0
 145:Src/usbd_conf.c **** }
 337              		.loc 1 145 3 is_stmt 1 view .LVU55
 145:Src/usbd_conf.c **** }
 338              		.loc 1 145 48 is_stmt 0 view .LVU56
 339 0004 8722     		movs	r2, #135
 340 0006 9200     		lsls	r2, r2, #2
 341 0008 8058     		ldr	r0, [r0, r2]
ARM GAS  /tmp/cch7iMLb.s 			page 19


 342              	.LVL28:
 145:Src/usbd_conf.c **** }
 343              		.loc 1 145 3 view .LVU57
 344 000a CA00     		lsls	r2, r1, #3
 345 000c 521A     		subs	r2, r2, r1
 346 000e 9200     		lsls	r2, r2, #2
 347 0010 9B18     		adds	r3, r3, r2
 348              	.LVL29:
 145:Src/usbd_conf.c **** }
 349              		.loc 1 145 3 view .LVU58
 350 0012 9A6B     		ldr	r2, [r3, #56]
 351 0014 FFF7FEFF 		bl	USBD_LL_DataInStage
 352              	.LVL30:
 146:Src/usbd_conf.c **** 
 353              		.loc 1 146 1 view .LVU59
 354              		@ sp needed
 355 0018 10BD     		pop	{r4, pc}
 356              		.cfi_endproc
 357              	.LFE41:
 359              		.section	.text.HAL_PCD_SOFCallback,"ax",%progbits
 360              		.align	1
 361              		.global	HAL_PCD_SOFCallback
 362              		.syntax unified
 363              		.code	16
 364              		.thumb_func
 365              		.fpu softvfp
 367              	HAL_PCD_SOFCallback:
 368              	.LVL31:
 369              	.LFB42:
 158:Src/usbd_conf.c ****   USBD_LL_SOF((USBD_HandleTypeDef*)hpcd->pData);
 370              		.loc 1 158 1 is_stmt 1 view -0
 371              		.cfi_startproc
 372              		@ args = 0, pretend = 0, frame = 0
 373              		@ frame_needed = 0, uses_anonymous_args = 0
 158:Src/usbd_conf.c ****   USBD_LL_SOF((USBD_HandleTypeDef*)hpcd->pData);
 374              		.loc 1 158 1 is_stmt 0 view .LVU61
 375 0000 10B5     		push	{r4, lr}
 376              	.LCFI7:
 377              		.cfi_def_cfa_offset 8
 378              		.cfi_offset 4, -8
 379              		.cfi_offset 14, -4
 159:Src/usbd_conf.c **** }
 380              		.loc 1 159 3 is_stmt 1 view .LVU62
 159:Src/usbd_conf.c **** }
 381              		.loc 1 159 40 is_stmt 0 view .LVU63
 382 0002 8723     		movs	r3, #135
 383 0004 9B00     		lsls	r3, r3, #2
 384 0006 C058     		ldr	r0, [r0, r3]
 385              	.LVL32:
 159:Src/usbd_conf.c **** }
 386              		.loc 1 159 3 view .LVU64
 387 0008 FFF7FEFF 		bl	USBD_LL_SOF
 388              	.LVL33:
 160:Src/usbd_conf.c **** 
 389              		.loc 1 160 1 view .LVU65
 390              		@ sp needed
 391 000c 10BD     		pop	{r4, pc}
ARM GAS  /tmp/cch7iMLb.s 			page 20


 392              		.cfi_endproc
 393              	.LFE42:
 395              		.section	.text.HAL_PCD_ResetCallback,"ax",%progbits
 396              		.align	1
 397              		.global	HAL_PCD_ResetCallback
 398              		.syntax unified
 399              		.code	16
 400              		.thumb_func
 401              		.fpu softvfp
 403              	HAL_PCD_ResetCallback:
 404              	.LVL34:
 405              	.LFB43:
 172:Src/usbd_conf.c ****   USBD_SpeedTypeDef speed = USBD_SPEED_FULL;
 406              		.loc 1 172 1 is_stmt 1 view -0
 407              		.cfi_startproc
 408              		@ args = 0, pretend = 0, frame = 0
 409              		@ frame_needed = 0, uses_anonymous_args = 0
 172:Src/usbd_conf.c ****   USBD_SpeedTypeDef speed = USBD_SPEED_FULL;
 410              		.loc 1 172 1 is_stmt 0 view .LVU67
 411 0000 70B5     		push	{r4, r5, r6, lr}
 412              	.LCFI8:
 413              		.cfi_def_cfa_offset 16
 414              		.cfi_offset 4, -16
 415              		.cfi_offset 5, -12
 416              		.cfi_offset 6, -8
 417              		.cfi_offset 14, -4
 418 0002 0400     		movs	r4, r0
 173:Src/usbd_conf.c **** 
 419              		.loc 1 173 3 is_stmt 1 view .LVU68
 420              	.LVL35:
 175:Src/usbd_conf.c ****   {
 421              		.loc 1 175 3 view .LVU69
 175:Src/usbd_conf.c ****   {
 422              		.loc 1 175 6 is_stmt 0 view .LVU70
 423 0004 8368     		ldr	r3, [r0, #8]
 424 0006 022B     		cmp	r3, #2
 425 0008 09D1     		bne	.L23
 426              	.LVL36:
 427              	.L22:
 180:Src/usbd_conf.c **** 
 428              		.loc 1 180 3 is_stmt 1 view .LVU71
 180:Src/usbd_conf.c **** 
 429              		.loc 1 180 45 is_stmt 0 view .LVU72
 430 000a 8725     		movs	r5, #135
 431 000c AD00     		lsls	r5, r5, #2
 180:Src/usbd_conf.c **** 
 432              		.loc 1 180 3 view .LVU73
 433 000e 0121     		movs	r1, #1
 434 0010 6059     		ldr	r0, [r4, r5]
 435 0012 FFF7FEFF 		bl	USBD_LL_SetSpeed
 436              	.LVL37:
 183:Src/usbd_conf.c **** }
 437              		.loc 1 183 3 is_stmt 1 view .LVU74
 183:Src/usbd_conf.c **** }
 438              		.loc 1 183 42 is_stmt 0 view .LVU75
 439 0016 6059     		ldr	r0, [r4, r5]
 183:Src/usbd_conf.c **** }
ARM GAS  /tmp/cch7iMLb.s 			page 21


 440              		.loc 1 183 3 view .LVU76
 441 0018 FFF7FEFF 		bl	USBD_LL_Reset
 442              	.LVL38:
 184:Src/usbd_conf.c **** 
 443              		.loc 1 184 1 view .LVU77
 444              		@ sp needed
 445              	.LVL39:
 184:Src/usbd_conf.c **** 
 446              		.loc 1 184 1 view .LVU78
 447 001c 70BD     		pop	{r4, r5, r6, pc}
 448              	.LVL40:
 449              	.L23:
 177:Src/usbd_conf.c ****   }
 450              		.loc 1 177 5 is_stmt 1 view .LVU79
 451 001e FFF7FEFF 		bl	Error_Handler
 452              	.LVL41:
 177:Src/usbd_conf.c ****   }
 453              		.loc 1 177 5 is_stmt 0 view .LVU80
 454 0022 F2E7     		b	.L22
 455              		.cfi_endproc
 456              	.LFE43:
 458              		.section	.text.HAL_PCD_SuspendCallback,"ax",%progbits
 459              		.align	1
 460              		.global	HAL_PCD_SuspendCallback
 461              		.syntax unified
 462              		.code	16
 463              		.thumb_func
 464              		.fpu softvfp
 466              	HAL_PCD_SuspendCallback:
 467              	.LVL42:
 468              	.LFB44:
 197:Src/usbd_conf.c ****   /* Inform USB library that core enters in suspend Mode. */
 469              		.loc 1 197 1 is_stmt 1 view -0
 470              		.cfi_startproc
 471              		@ args = 0, pretend = 0, frame = 0
 472              		@ frame_needed = 0, uses_anonymous_args = 0
 197:Src/usbd_conf.c ****   /* Inform USB library that core enters in suspend Mode. */
 473              		.loc 1 197 1 is_stmt 0 view .LVU82
 474 0000 10B5     		push	{r4, lr}
 475              	.LCFI9:
 476              		.cfi_def_cfa_offset 8
 477              		.cfi_offset 4, -8
 478              		.cfi_offset 14, -4
 479 0002 0400     		movs	r4, r0
 199:Src/usbd_conf.c ****   /* Enter in STOP mode. */
 480              		.loc 1 199 3 is_stmt 1 view .LVU83
 199:Src/usbd_conf.c ****   /* Enter in STOP mode. */
 481              		.loc 1 199 44 is_stmt 0 view .LVU84
 482 0004 8723     		movs	r3, #135
 483 0006 9B00     		lsls	r3, r3, #2
 484 0008 C058     		ldr	r0, [r0, r3]
 485              	.LVL43:
 199:Src/usbd_conf.c ****   /* Enter in STOP mode. */
 486              		.loc 1 199 3 view .LVU85
 487 000a FFF7FEFF 		bl	USBD_LL_Suspend
 488              	.LVL44:
 202:Src/usbd_conf.c ****   {
ARM GAS  /tmp/cch7iMLb.s 			page 22


 489              		.loc 1 202 3 is_stmt 1 view .LVU86
 202:Src/usbd_conf.c ****   {
 490              		.loc 1 202 17 is_stmt 0 view .LVU87
 491 000e A369     		ldr	r3, [r4, #24]
 202:Src/usbd_conf.c ****   {
 492              		.loc 1 202 6 view .LVU88
 493 0010 002B     		cmp	r3, #0
 494 0012 04D0     		beq	.L24
 205:Src/usbd_conf.c ****   }
 495              		.loc 1 205 5 is_stmt 1 view .LVU89
 205:Src/usbd_conf.c ****   }
 496              		.loc 1 205 14 is_stmt 0 view .LVU90
 497 0014 024A     		ldr	r2, .L26
 498 0016 1369     		ldr	r3, [r2, #16]
 499 0018 0621     		movs	r1, #6
 500 001a 0B43     		orrs	r3, r1
 501 001c 1361     		str	r3, [r2, #16]
 502              	.L24:
 208:Src/usbd_conf.c **** 
 503              		.loc 1 208 1 view .LVU91
 504              		@ sp needed
 505              	.LVL45:
 208:Src/usbd_conf.c **** 
 506              		.loc 1 208 1 view .LVU92
 507 001e 10BD     		pop	{r4, pc}
 508              	.L27:
 509              		.align	2
 510              	.L26:
 511 0020 00ED00E0 		.word	-536810240
 512              		.cfi_endproc
 513              	.LFE44:
 515              		.section	.text.HAL_PCD_ResumeCallback,"ax",%progbits
 516              		.align	1
 517              		.global	HAL_PCD_ResumeCallback
 518              		.syntax unified
 519              		.code	16
 520              		.thumb_func
 521              		.fpu softvfp
 523              	HAL_PCD_ResumeCallback:
 524              	.LVL46:
 525              	.LFB45:
 221:Src/usbd_conf.c ****   /* USER CODE BEGIN 3 */
 526              		.loc 1 221 1 is_stmt 1 view -0
 527              		.cfi_startproc
 528              		@ args = 0, pretend = 0, frame = 0
 529              		@ frame_needed = 0, uses_anonymous_args = 0
 221:Src/usbd_conf.c ****   /* USER CODE BEGIN 3 */
 530              		.loc 1 221 1 is_stmt 0 view .LVU94
 531 0000 10B5     		push	{r4, lr}
 532              	.LCFI10:
 533              		.cfi_def_cfa_offset 8
 534              		.cfi_offset 4, -8
 535              		.cfi_offset 14, -4
 536 0002 0400     		movs	r4, r0
 223:Src/usbd_conf.c ****   {
 537              		.loc 1 223 3 is_stmt 1 view .LVU95
 223:Src/usbd_conf.c ****   {
ARM GAS  /tmp/cch7iMLb.s 			page 23


 538              		.loc 1 223 6 is_stmt 0 view .LVU96
 539 0004 8369     		ldr	r3, [r0, #24]
 540 0006 002B     		cmp	r3, #0
 541 0008 05D1     		bne	.L30
 542              	.LVL47:
 543              	.L29:
 230:Src/usbd_conf.c **** }
 544              		.loc 1 230 3 is_stmt 1 view .LVU97
 230:Src/usbd_conf.c **** }
 545              		.loc 1 230 43 is_stmt 0 view .LVU98
 546 000a 8723     		movs	r3, #135
 547 000c 9B00     		lsls	r3, r3, #2
 548 000e E058     		ldr	r0, [r4, r3]
 230:Src/usbd_conf.c **** }
 549              		.loc 1 230 3 view .LVU99
 550 0010 FFF7FEFF 		bl	USBD_LL_Resume
 551              	.LVL48:
 231:Src/usbd_conf.c **** 
 552              		.loc 1 231 1 view .LVU100
 553              		@ sp needed
 554              	.LVL49:
 231:Src/usbd_conf.c **** 
 555              		.loc 1 231 1 view .LVU101
 556 0014 10BD     		pop	{r4, pc}
 557              	.LVL50:
 558              	.L30:
 226:Src/usbd_conf.c ****     SystemClockConfig_Resume();
 559              		.loc 1 226 5 is_stmt 1 view .LVU102
 226:Src/usbd_conf.c ****     SystemClockConfig_Resume();
 560              		.loc 1 226 14 is_stmt 0 view .LVU103
 561 0016 044A     		ldr	r2, .L31
 562 0018 1369     		ldr	r3, [r2, #16]
 563 001a 0621     		movs	r1, #6
 564 001c 8B43     		bics	r3, r1
 565 001e 1361     		str	r3, [r2, #16]
 227:Src/usbd_conf.c ****   }
 566              		.loc 1 227 5 is_stmt 1 view .LVU104
 567 0020 FFF7FEFF 		bl	SystemClockConfig_Resume
 568              	.LVL51:
 227:Src/usbd_conf.c ****   }
 569              		.loc 1 227 5 is_stmt 0 view .LVU105
 570 0024 F1E7     		b	.L29
 571              	.L32:
 572 0026 C046     		.align	2
 573              	.L31:
 574 0028 00ED00E0 		.word	-536810240
 575              		.cfi_endproc
 576              	.LFE45:
 578              		.section	.text.HAL_PCD_ISOOUTIncompleteCallback,"ax",%progbits
 579              		.align	1
 580              		.global	HAL_PCD_ISOOUTIncompleteCallback
 581              		.syntax unified
 582              		.code	16
 583              		.thumb_func
 584              		.fpu softvfp
 586              	HAL_PCD_ISOOUTIncompleteCallback:
 587              	.LVL52:
ARM GAS  /tmp/cch7iMLb.s 			page 24


 588              	.LFB46:
 244:Src/usbd_conf.c ****   USBD_LL_IsoOUTIncomplete((USBD_HandleTypeDef*)hpcd->pData, epnum);
 589              		.loc 1 244 1 is_stmt 1 view -0
 590              		.cfi_startproc
 591              		@ args = 0, pretend = 0, frame = 0
 592              		@ frame_needed = 0, uses_anonymous_args = 0
 244:Src/usbd_conf.c ****   USBD_LL_IsoOUTIncomplete((USBD_HandleTypeDef*)hpcd->pData, epnum);
 593              		.loc 1 244 1 is_stmt 0 view .LVU107
 594 0000 10B5     		push	{r4, lr}
 595              	.LCFI11:
 596              		.cfi_def_cfa_offset 8
 597              		.cfi_offset 4, -8
 598              		.cfi_offset 14, -4
 245:Src/usbd_conf.c **** }
 599              		.loc 1 245 3 is_stmt 1 view .LVU108
 245:Src/usbd_conf.c **** }
 600              		.loc 1 245 53 is_stmt 0 view .LVU109
 601 0002 8723     		movs	r3, #135
 602 0004 9B00     		lsls	r3, r3, #2
 603 0006 C058     		ldr	r0, [r0, r3]
 604              	.LVL53:
 245:Src/usbd_conf.c **** }
 605              		.loc 1 245 3 view .LVU110
 606 0008 FFF7FEFF 		bl	USBD_LL_IsoOUTIncomplete
 607              	.LVL54:
 246:Src/usbd_conf.c **** 
 608              		.loc 1 246 1 view .LVU111
 609              		@ sp needed
 610 000c 10BD     		pop	{r4, pc}
 611              		.cfi_endproc
 612              	.LFE46:
 614              		.section	.text.HAL_PCD_ISOINIncompleteCallback,"ax",%progbits
 615              		.align	1
 616              		.global	HAL_PCD_ISOINIncompleteCallback
 617              		.syntax unified
 618              		.code	16
 619              		.thumb_func
 620              		.fpu softvfp
 622              	HAL_PCD_ISOINIncompleteCallback:
 623              	.LVL55:
 624              	.LFB47:
 259:Src/usbd_conf.c ****   USBD_LL_IsoINIncomplete((USBD_HandleTypeDef*)hpcd->pData, epnum);
 625              		.loc 1 259 1 is_stmt 1 view -0
 626              		.cfi_startproc
 627              		@ args = 0, pretend = 0, frame = 0
 628              		@ frame_needed = 0, uses_anonymous_args = 0
 259:Src/usbd_conf.c ****   USBD_LL_IsoINIncomplete((USBD_HandleTypeDef*)hpcd->pData, epnum);
 629              		.loc 1 259 1 is_stmt 0 view .LVU113
 630 0000 10B5     		push	{r4, lr}
 631              	.LCFI12:
 632              		.cfi_def_cfa_offset 8
 633              		.cfi_offset 4, -8
 634              		.cfi_offset 14, -4
 260:Src/usbd_conf.c **** }
 635              		.loc 1 260 3 is_stmt 1 view .LVU114
 260:Src/usbd_conf.c **** }
 636              		.loc 1 260 52 is_stmt 0 view .LVU115
ARM GAS  /tmp/cch7iMLb.s 			page 25


 637 0002 8723     		movs	r3, #135
 638 0004 9B00     		lsls	r3, r3, #2
 639 0006 C058     		ldr	r0, [r0, r3]
 640              	.LVL56:
 260:Src/usbd_conf.c **** }
 641              		.loc 1 260 3 view .LVU116
 642 0008 FFF7FEFF 		bl	USBD_LL_IsoINIncomplete
 643              	.LVL57:
 261:Src/usbd_conf.c **** 
 644              		.loc 1 261 1 view .LVU117
 645              		@ sp needed
 646 000c 10BD     		pop	{r4, pc}
 647              		.cfi_endproc
 648              	.LFE47:
 650              		.section	.text.HAL_PCD_ConnectCallback,"ax",%progbits
 651              		.align	1
 652              		.global	HAL_PCD_ConnectCallback
 653              		.syntax unified
 654              		.code	16
 655              		.thumb_func
 656              		.fpu softvfp
 658              	HAL_PCD_ConnectCallback:
 659              	.LVL58:
 660              	.LFB48:
 273:Src/usbd_conf.c ****   USBD_LL_DevConnected((USBD_HandleTypeDef*)hpcd->pData);
 661              		.loc 1 273 1 is_stmt 1 view -0
 662              		.cfi_startproc
 663              		@ args = 0, pretend = 0, frame = 0
 664              		@ frame_needed = 0, uses_anonymous_args = 0
 273:Src/usbd_conf.c ****   USBD_LL_DevConnected((USBD_HandleTypeDef*)hpcd->pData);
 665              		.loc 1 273 1 is_stmt 0 view .LVU119
 666 0000 10B5     		push	{r4, lr}
 667              	.LCFI13:
 668              		.cfi_def_cfa_offset 8
 669              		.cfi_offset 4, -8
 670              		.cfi_offset 14, -4
 274:Src/usbd_conf.c **** }
 671              		.loc 1 274 3 is_stmt 1 view .LVU120
 274:Src/usbd_conf.c **** }
 672              		.loc 1 274 49 is_stmt 0 view .LVU121
 673 0002 8723     		movs	r3, #135
 674 0004 9B00     		lsls	r3, r3, #2
 675 0006 C058     		ldr	r0, [r0, r3]
 676              	.LVL59:
 274:Src/usbd_conf.c **** }
 677              		.loc 1 274 3 view .LVU122
 678 0008 FFF7FEFF 		bl	USBD_LL_DevConnected
 679              	.LVL60:
 275:Src/usbd_conf.c **** 
 680              		.loc 1 275 1 view .LVU123
 681              		@ sp needed
 682 000c 10BD     		pop	{r4, pc}
 683              		.cfi_endproc
 684              	.LFE48:
 686              		.section	.text.HAL_PCD_DisconnectCallback,"ax",%progbits
 687              		.align	1
 688              		.global	HAL_PCD_DisconnectCallback
ARM GAS  /tmp/cch7iMLb.s 			page 26


 689              		.syntax unified
 690              		.code	16
 691              		.thumb_func
 692              		.fpu softvfp
 694              	HAL_PCD_DisconnectCallback:
 695              	.LVL61:
 696              	.LFB49:
 287:Src/usbd_conf.c ****   USBD_LL_DevDisconnected((USBD_HandleTypeDef*)hpcd->pData);
 697              		.loc 1 287 1 is_stmt 1 view -0
 698              		.cfi_startproc
 699              		@ args = 0, pretend = 0, frame = 0
 700              		@ frame_needed = 0, uses_anonymous_args = 0
 287:Src/usbd_conf.c ****   USBD_LL_DevDisconnected((USBD_HandleTypeDef*)hpcd->pData);
 701              		.loc 1 287 1 is_stmt 0 view .LVU125
 702 0000 10B5     		push	{r4, lr}
 703              	.LCFI14:
 704              		.cfi_def_cfa_offset 8
 705              		.cfi_offset 4, -8
 706              		.cfi_offset 14, -4
 288:Src/usbd_conf.c **** }
 707              		.loc 1 288 3 is_stmt 1 view .LVU126
 288:Src/usbd_conf.c **** }
 708              		.loc 1 288 52 is_stmt 0 view .LVU127
 709 0002 8723     		movs	r3, #135
 710 0004 9B00     		lsls	r3, r3, #2
 711 0006 C058     		ldr	r0, [r0, r3]
 712              	.LVL62:
 288:Src/usbd_conf.c **** }
 713              		.loc 1 288 3 view .LVU128
 714 0008 FFF7FEFF 		bl	USBD_LL_DevDisconnected
 715              	.LVL63:
 289:Src/usbd_conf.c **** 
 716              		.loc 1 289 1 view .LVU129
 717              		@ sp needed
 718 000c 10BD     		pop	{r4, pc}
 719              		.cfi_endproc
 720              	.LFE49:
 722              		.section	.text.USBD_LL_Init,"ax",%progbits
 723              		.align	1
 724              		.global	USBD_LL_Init
 725              		.syntax unified
 726              		.code	16
 727              		.thumb_func
 728              		.fpu softvfp
 730              	USBD_LL_Init:
 731              	.LVL64:
 732              	.LFB50:
 301:Src/usbd_conf.c ****   /* Init USB Ip. */
 733              		.loc 1 301 1 is_stmt 1 view -0
 734              		.cfi_startproc
 735              		@ args = 0, pretend = 0, frame = 0
 736              		@ frame_needed = 0, uses_anonymous_args = 0
 301:Src/usbd_conf.c ****   /* Init USB Ip. */
 737              		.loc 1 301 1 is_stmt 0 view .LVU131
 738 0000 70B5     		push	{r4, r5, r6, lr}
 739              	.LCFI15:
 740              		.cfi_def_cfa_offset 16
ARM GAS  /tmp/cch7iMLb.s 			page 27


 741              		.cfi_offset 4, -16
 742              		.cfi_offset 5, -12
 743              		.cfi_offset 6, -8
 744              		.cfi_offset 14, -4
 745 0002 0400     		movs	r4, r0
 304:Src/usbd_conf.c ****   pdev->pData = &hpcd_USB_FS;
 746              		.loc 1 304 3 is_stmt 1 view .LVU132
 304:Src/usbd_conf.c ****   pdev->pData = &hpcd_USB_FS;
 747              		.loc 1 304 21 is_stmt 0 view .LVU133
 748 0004 1748     		ldr	r0, .L40
 749              	.LVL65:
 304:Src/usbd_conf.c ****   pdev->pData = &hpcd_USB_FS;
 750              		.loc 1 304 21 view .LVU134
 751 0006 8723     		movs	r3, #135
 752 0008 9B00     		lsls	r3, r3, #2
 753 000a C450     		str	r4, [r0, r3]
 305:Src/usbd_conf.c **** 
 754              		.loc 1 305 3 is_stmt 1 view .LVU135
 305:Src/usbd_conf.c **** 
 755              		.loc 1 305 15 is_stmt 0 view .LVU136
 756 000c 0433     		adds	r3, r3, #4
 757 000e E050     		str	r0, [r4, r3]
 307:Src/usbd_conf.c ****   hpcd_USB_FS.Init.dev_endpoints = 8;
 758              		.loc 1 307 3 is_stmt 1 view .LVU137
 307:Src/usbd_conf.c ****   hpcd_USB_FS.Init.dev_endpoints = 8;
 759              		.loc 1 307 24 is_stmt 0 view .LVU138
 760 0010 154B     		ldr	r3, .L40+4
 761 0012 0360     		str	r3, [r0]
 308:Src/usbd_conf.c ****   hpcd_USB_FS.Init.speed = PCD_SPEED_FULL;
 762              		.loc 1 308 3 is_stmt 1 view .LVU139
 308:Src/usbd_conf.c ****   hpcd_USB_FS.Init.speed = PCD_SPEED_FULL;
 763              		.loc 1 308 34 is_stmt 0 view .LVU140
 764 0014 0823     		movs	r3, #8
 765 0016 4360     		str	r3, [r0, #4]
 309:Src/usbd_conf.c ****   hpcd_USB_FS.Init.phy_itface = PCD_PHY_EMBEDDED;
 766              		.loc 1 309 3 is_stmt 1 view .LVU141
 309:Src/usbd_conf.c ****   hpcd_USB_FS.Init.phy_itface = PCD_PHY_EMBEDDED;
 767              		.loc 1 309 26 is_stmt 0 view .LVU142
 768 0018 063B     		subs	r3, r3, #6
 769 001a 8360     		str	r3, [r0, #8]
 310:Src/usbd_conf.c ****   hpcd_USB_FS.Init.low_power_enable = DISABLE;
 770              		.loc 1 310 3 is_stmt 1 view .LVU143
 310:Src/usbd_conf.c ****   hpcd_USB_FS.Init.low_power_enable = DISABLE;
 771              		.loc 1 310 31 is_stmt 0 view .LVU144
 772 001c 0361     		str	r3, [r0, #16]
 311:Src/usbd_conf.c ****   hpcd_USB_FS.Init.lpm_enable = DISABLE;
 773              		.loc 1 311 3 is_stmt 1 view .LVU145
 311:Src/usbd_conf.c ****   hpcd_USB_FS.Init.lpm_enable = DISABLE;
 774              		.loc 1 311 37 is_stmt 0 view .LVU146
 775 001e 0023     		movs	r3, #0
 776 0020 8361     		str	r3, [r0, #24]
 312:Src/usbd_conf.c ****   hpcd_USB_FS.Init.battery_charging_enable = DISABLE;
 777              		.loc 1 312 3 is_stmt 1 view .LVU147
 312:Src/usbd_conf.c ****   hpcd_USB_FS.Init.battery_charging_enable = DISABLE;
 778              		.loc 1 312 31 is_stmt 0 view .LVU148
 779 0022 C361     		str	r3, [r0, #28]
 313:Src/usbd_conf.c ****   if (HAL_PCD_Init(&hpcd_USB_FS) != HAL_OK)
ARM GAS  /tmp/cch7iMLb.s 			page 28


 780              		.loc 1 313 3 is_stmt 1 view .LVU149
 313:Src/usbd_conf.c ****   if (HAL_PCD_Init(&hpcd_USB_FS) != HAL_OK)
 781              		.loc 1 313 44 is_stmt 0 view .LVU150
 782 0024 0362     		str	r3, [r0, #32]
 314:Src/usbd_conf.c ****   {
 783              		.loc 1 314 3 is_stmt 1 view .LVU151
 314:Src/usbd_conf.c ****   {
 784              		.loc 1 314 7 is_stmt 0 view .LVU152
 785 0026 FFF7FEFF 		bl	HAL_PCD_Init
 786              	.LVL66:
 314:Src/usbd_conf.c ****   {
 787              		.loc 1 314 6 view .LVU153
 788 002a 0028     		cmp	r0, #0
 789 002c 16D1     		bne	.L39
 790              	.L38:
 335:Src/usbd_conf.c ****   HAL_PCDEx_PMAConfig((PCD_HandleTypeDef*)pdev->pData , 0x80 , PCD_SNG_BUF, 0x58);
 791              		.loc 1 335 3 is_stmt 1 view .LVU154
 335:Src/usbd_conf.c ****   HAL_PCDEx_PMAConfig((PCD_HandleTypeDef*)pdev->pData , 0x80 , PCD_SNG_BUF, 0x58);
 792              		.loc 1 335 47 is_stmt 0 view .LVU155
 793 002e 8825     		movs	r5, #136
 794 0030 AD00     		lsls	r5, r5, #2
 335:Src/usbd_conf.c ****   HAL_PCDEx_PMAConfig((PCD_HandleTypeDef*)pdev->pData , 0x80 , PCD_SNG_BUF, 0x58);
 795              		.loc 1 335 3 view .LVU156
 796 0032 1823     		movs	r3, #24
 797 0034 0022     		movs	r2, #0
 798 0036 0021     		movs	r1, #0
 799 0038 6059     		ldr	r0, [r4, r5]
 800 003a FFF7FEFF 		bl	HAL_PCDEx_PMAConfig
 801              	.LVL67:
 336:Src/usbd_conf.c ****   /* USER CODE END EndPoint_Configuration */
 802              		.loc 1 336 3 is_stmt 1 view .LVU157
 803 003e 5823     		movs	r3, #88
 804 0040 0022     		movs	r2, #0
 805 0042 8021     		movs	r1, #128
 806 0044 6059     		ldr	r0, [r4, r5]
 807 0046 FFF7FEFF 		bl	HAL_PCDEx_PMAConfig
 808              	.LVL68:
 339:Src/usbd_conf.c ****   /* USER CODE END EndPoint_Configuration_HID */
 809              		.loc 1 339 3 view .LVU158
 339:Src/usbd_conf.c ****   /* USER CODE END EndPoint_Configuration_HID */
 810              		.loc 1 339 47 is_stmt 0 view .LVU159
 811 004a 6059     		ldr	r0, [r4, r5]
 339:Src/usbd_conf.c ****   /* USER CODE END EndPoint_Configuration_HID */
 812              		.loc 1 339 3 view .LVU160
 813 004c 8023     		movs	r3, #128
 814 004e 5B00     		lsls	r3, r3, #1
 815 0050 0022     		movs	r2, #0
 816 0052 8121     		movs	r1, #129
 817 0054 FFF7FEFF 		bl	HAL_PCDEx_PMAConfig
 818              	.LVL69:
 341:Src/usbd_conf.c **** }
 819              		.loc 1 341 3 is_stmt 1 view .LVU161
 342:Src/usbd_conf.c **** 
 820              		.loc 1 342 1 is_stmt 0 view .LVU162
 821 0058 0020     		movs	r0, #0
 822              		@ sp needed
 823              	.LVL70:
ARM GAS  /tmp/cch7iMLb.s 			page 29


 342:Src/usbd_conf.c **** 
 824              		.loc 1 342 1 view .LVU163
 825 005a 70BD     		pop	{r4, r5, r6, pc}
 826              	.LVL71:
 827              	.L39:
 316:Src/usbd_conf.c ****   }
 828              		.loc 1 316 5 is_stmt 1 view .LVU164
 829 005c FFF7FEFF 		bl	Error_Handler
 830              	.LVL72:
 831 0060 E5E7     		b	.L38
 832              	.L41:
 833 0062 C046     		.align	2
 834              	.L40:
 835 0064 00000000 		.word	hpcd_USB_FS
 836 0068 005C0040 		.word	1073765376
 837              		.cfi_endproc
 838              	.LFE50:
 840              		.section	.text.USBD_LL_DeInit,"ax",%progbits
 841              		.align	1
 842              		.global	USBD_LL_DeInit
 843              		.syntax unified
 844              		.code	16
 845              		.thumb_func
 846              		.fpu softvfp
 848              	USBD_LL_DeInit:
 849              	.LVL73:
 850              	.LFB51:
 350:Src/usbd_conf.c ****   HAL_StatusTypeDef hal_status = HAL_OK;
 851              		.loc 1 350 1 view -0
 852              		.cfi_startproc
 853              		@ args = 0, pretend = 0, frame = 0
 854              		@ frame_needed = 0, uses_anonymous_args = 0
 350:Src/usbd_conf.c ****   HAL_StatusTypeDef hal_status = HAL_OK;
 855              		.loc 1 350 1 is_stmt 0 view .LVU166
 856 0000 10B5     		push	{r4, lr}
 857              	.LCFI16:
 858              		.cfi_def_cfa_offset 8
 859              		.cfi_offset 4, -8
 860              		.cfi_offset 14, -4
 351:Src/usbd_conf.c ****   USBD_StatusTypeDef usb_status = USBD_OK;
 861              		.loc 1 351 3 is_stmt 1 view .LVU167
 862              	.LVL74:
 352:Src/usbd_conf.c **** 
 863              		.loc 1 352 3 view .LVU168
 354:Src/usbd_conf.c **** 
 864              		.loc 1 354 3 view .LVU169
 354:Src/usbd_conf.c **** 
 865              		.loc 1 354 35 is_stmt 0 view .LVU170
 866 0002 8823     		movs	r3, #136
 867 0004 9B00     		lsls	r3, r3, #2
 868 0006 C058     		ldr	r0, [r0, r3]
 869              	.LVL75:
 354:Src/usbd_conf.c **** 
 870              		.loc 1 354 16 view .LVU171
 871 0008 FFF7FEFF 		bl	HAL_PCD_DeInit
 872              	.LVL76:
 356:Src/usbd_conf.c ****  
ARM GAS  /tmp/cch7iMLb.s 			page 30


 873              		.loc 1 356 3 is_stmt 1 view .LVU172
 356:Src/usbd_conf.c ****  
 874              		.loc 1 356 17 is_stmt 0 view .LVU173
 875 000c FFF7FEFF 		bl	USBD_Get_USB_Status
 876              	.LVL77:
 358:Src/usbd_conf.c **** }
 877              		.loc 1 358 3 is_stmt 1 view .LVU174
 359:Src/usbd_conf.c **** 
 878              		.loc 1 359 1 is_stmt 0 view .LVU175
 879              		@ sp needed
 880 0010 10BD     		pop	{r4, pc}
 881              		.cfi_endproc
 882              	.LFE51:
 884              		.section	.text.USBD_LL_Start,"ax",%progbits
 885              		.align	1
 886              		.global	USBD_LL_Start
 887              		.syntax unified
 888              		.code	16
 889              		.thumb_func
 890              		.fpu softvfp
 892              	USBD_LL_Start:
 893              	.LVL78:
 894              	.LFB52:
 367:Src/usbd_conf.c ****   HAL_StatusTypeDef hal_status = HAL_OK;
 895              		.loc 1 367 1 is_stmt 1 view -0
 896              		.cfi_startproc
 897              		@ args = 0, pretend = 0, frame = 0
 898              		@ frame_needed = 0, uses_anonymous_args = 0
 367:Src/usbd_conf.c ****   HAL_StatusTypeDef hal_status = HAL_OK;
 899              		.loc 1 367 1 is_stmt 0 view .LVU177
 900 0000 10B5     		push	{r4, lr}
 901              	.LCFI17:
 902              		.cfi_def_cfa_offset 8
 903              		.cfi_offset 4, -8
 904              		.cfi_offset 14, -4
 368:Src/usbd_conf.c ****   USBD_StatusTypeDef usb_status = USBD_OK;
 905              		.loc 1 368 3 is_stmt 1 view .LVU178
 906              	.LVL79:
 369:Src/usbd_conf.c ****  
 907              		.loc 1 369 3 view .LVU179
 371:Src/usbd_conf.c ****      
 908              		.loc 1 371 3 view .LVU180
 371:Src/usbd_conf.c ****      
 909              		.loc 1 371 34 is_stmt 0 view .LVU181
 910 0002 8823     		movs	r3, #136
 911 0004 9B00     		lsls	r3, r3, #2
 912 0006 C058     		ldr	r0, [r0, r3]
 913              	.LVL80:
 371:Src/usbd_conf.c ****      
 914              		.loc 1 371 16 view .LVU182
 915 0008 FFF7FEFF 		bl	HAL_PCD_Start
 916              	.LVL81:
 373:Src/usbd_conf.c ****   
 917              		.loc 1 373 3 is_stmt 1 view .LVU183
 373:Src/usbd_conf.c ****   
 918              		.loc 1 373 17 is_stmt 0 view .LVU184
 919 000c FFF7FEFF 		bl	USBD_Get_USB_Status
ARM GAS  /tmp/cch7iMLb.s 			page 31


 920              	.LVL82:
 375:Src/usbd_conf.c **** }
 921              		.loc 1 375 3 is_stmt 1 view .LVU185
 376:Src/usbd_conf.c **** 
 922              		.loc 1 376 1 is_stmt 0 view .LVU186
 923              		@ sp needed
 924 0010 10BD     		pop	{r4, pc}
 925              		.cfi_endproc
 926              	.LFE52:
 928              		.section	.text.USBD_LL_Stop,"ax",%progbits
 929              		.align	1
 930              		.global	USBD_LL_Stop
 931              		.syntax unified
 932              		.code	16
 933              		.thumb_func
 934              		.fpu softvfp
 936              	USBD_LL_Stop:
 937              	.LVL83:
 938              	.LFB53:
 384:Src/usbd_conf.c ****   HAL_StatusTypeDef hal_status = HAL_OK;
 939              		.loc 1 384 1 is_stmt 1 view -0
 940              		.cfi_startproc
 941              		@ args = 0, pretend = 0, frame = 0
 942              		@ frame_needed = 0, uses_anonymous_args = 0
 384:Src/usbd_conf.c ****   HAL_StatusTypeDef hal_status = HAL_OK;
 943              		.loc 1 384 1 is_stmt 0 view .LVU188
 944 0000 10B5     		push	{r4, lr}
 945              	.LCFI18:
 946              		.cfi_def_cfa_offset 8
 947              		.cfi_offset 4, -8
 948              		.cfi_offset 14, -4
 385:Src/usbd_conf.c ****   USBD_StatusTypeDef usb_status = USBD_OK;
 949              		.loc 1 385 3 is_stmt 1 view .LVU189
 950              	.LVL84:
 386:Src/usbd_conf.c **** 
 951              		.loc 1 386 3 view .LVU190
 388:Src/usbd_conf.c **** 
 952              		.loc 1 388 3 view .LVU191
 388:Src/usbd_conf.c **** 
 953              		.loc 1 388 33 is_stmt 0 view .LVU192
 954 0002 8823     		movs	r3, #136
 955 0004 9B00     		lsls	r3, r3, #2
 956 0006 C058     		ldr	r0, [r0, r3]
 957              	.LVL85:
 388:Src/usbd_conf.c **** 
 958              		.loc 1 388 16 view .LVU193
 959 0008 FFF7FEFF 		bl	HAL_PCD_Stop
 960              	.LVL86:
 390:Src/usbd_conf.c ****   
 961              		.loc 1 390 3 is_stmt 1 view .LVU194
 390:Src/usbd_conf.c ****   
 962              		.loc 1 390 17 is_stmt 0 view .LVU195
 963 000c FFF7FEFF 		bl	USBD_Get_USB_Status
 964              	.LVL87:
 392:Src/usbd_conf.c **** }
 965              		.loc 1 392 3 is_stmt 1 view .LVU196
 393:Src/usbd_conf.c **** 
ARM GAS  /tmp/cch7iMLb.s 			page 32


 966              		.loc 1 393 1 is_stmt 0 view .LVU197
 967              		@ sp needed
 968 0010 10BD     		pop	{r4, pc}
 969              		.cfi_endproc
 970              	.LFE53:
 972              		.section	.text.USBD_LL_OpenEP,"ax",%progbits
 973              		.align	1
 974              		.global	USBD_LL_OpenEP
 975              		.syntax unified
 976              		.code	16
 977              		.thumb_func
 978              		.fpu softvfp
 980              	USBD_LL_OpenEP:
 981              	.LVL88:
 982              	.LFB54:
 404:Src/usbd_conf.c ****   HAL_StatusTypeDef hal_status = HAL_OK;
 983              		.loc 1 404 1 is_stmt 1 view -0
 984              		.cfi_startproc
 985              		@ args = 0, pretend = 0, frame = 0
 986              		@ frame_needed = 0, uses_anonymous_args = 0
 404:Src/usbd_conf.c ****   HAL_StatusTypeDef hal_status = HAL_OK;
 987              		.loc 1 404 1 is_stmt 0 view .LVU199
 988 0000 10B5     		push	{r4, lr}
 989              	.LCFI19:
 990              		.cfi_def_cfa_offset 8
 991              		.cfi_offset 4, -8
 992              		.cfi_offset 14, -4
 993 0002 1400     		movs	r4, r2
 994 0004 1A00     		movs	r2, r3
 995              	.LVL89:
 405:Src/usbd_conf.c ****   USBD_StatusTypeDef usb_status = USBD_OK;
 996              		.loc 1 405 3 is_stmt 1 view .LVU200
 406:Src/usbd_conf.c **** 
 997              		.loc 1 406 3 view .LVU201
 408:Src/usbd_conf.c **** 
 998              		.loc 1 408 3 view .LVU202
 408:Src/usbd_conf.c **** 
 999              		.loc 1 408 36 is_stmt 0 view .LVU203
 1000 0006 8823     		movs	r3, #136
 1001              	.LVL90:
 408:Src/usbd_conf.c **** 
 1002              		.loc 1 408 36 view .LVU204
 1003 0008 9B00     		lsls	r3, r3, #2
 1004 000a C058     		ldr	r0, [r0, r3]
 1005              	.LVL91:
 408:Src/usbd_conf.c **** 
 1006              		.loc 1 408 16 view .LVU205
 1007 000c 2300     		movs	r3, r4
 1008 000e FFF7FEFF 		bl	HAL_PCD_EP_Open
 1009              	.LVL92:
 410:Src/usbd_conf.c ****  
 1010              		.loc 1 410 3 is_stmt 1 view .LVU206
 410:Src/usbd_conf.c ****  
 1011              		.loc 1 410 17 is_stmt 0 view .LVU207
 1012 0012 FFF7FEFF 		bl	USBD_Get_USB_Status
 1013              	.LVL93:
 412:Src/usbd_conf.c **** }
ARM GAS  /tmp/cch7iMLb.s 			page 33


 1014              		.loc 1 412 3 is_stmt 1 view .LVU208
 413:Src/usbd_conf.c **** 
 1015              		.loc 1 413 1 is_stmt 0 view .LVU209
 1016              		@ sp needed
 1017 0016 10BD     		pop	{r4, pc}
 1018              		.cfi_endproc
 1019              	.LFE54:
 1021              		.section	.text.USBD_LL_CloseEP,"ax",%progbits
 1022              		.align	1
 1023              		.global	USBD_LL_CloseEP
 1024              		.syntax unified
 1025              		.code	16
 1026              		.thumb_func
 1027              		.fpu softvfp
 1029              	USBD_LL_CloseEP:
 1030              	.LVL94:
 1031              	.LFB55:
 422:Src/usbd_conf.c ****   HAL_StatusTypeDef hal_status = HAL_OK;
 1032              		.loc 1 422 1 is_stmt 1 view -0
 1033              		.cfi_startproc
 1034              		@ args = 0, pretend = 0, frame = 0
 1035              		@ frame_needed = 0, uses_anonymous_args = 0
 422:Src/usbd_conf.c ****   HAL_StatusTypeDef hal_status = HAL_OK;
 1036              		.loc 1 422 1 is_stmt 0 view .LVU211
 1037 0000 10B5     		push	{r4, lr}
 1038              	.LCFI20:
 1039              		.cfi_def_cfa_offset 8
 1040              		.cfi_offset 4, -8
 1041              		.cfi_offset 14, -4
 423:Src/usbd_conf.c ****   USBD_StatusTypeDef usb_status = USBD_OK;
 1042              		.loc 1 423 3 is_stmt 1 view .LVU212
 1043              	.LVL95:
 424:Src/usbd_conf.c ****   
 1044              		.loc 1 424 3 view .LVU213
 426:Src/usbd_conf.c ****       
 1045              		.loc 1 426 3 view .LVU214
 426:Src/usbd_conf.c ****       
 1046              		.loc 1 426 37 is_stmt 0 view .LVU215
 1047 0002 8823     		movs	r3, #136
 1048 0004 9B00     		lsls	r3, r3, #2
 1049 0006 C058     		ldr	r0, [r0, r3]
 1050              	.LVL96:
 426:Src/usbd_conf.c ****       
 1051              		.loc 1 426 16 view .LVU216
 1052 0008 FFF7FEFF 		bl	HAL_PCD_EP_Close
 1053              	.LVL97:
 428:Src/usbd_conf.c **** 
 1054              		.loc 1 428 3 is_stmt 1 view .LVU217
 428:Src/usbd_conf.c **** 
 1055              		.loc 1 428 17 is_stmt 0 view .LVU218
 1056 000c FFF7FEFF 		bl	USBD_Get_USB_Status
 1057              	.LVL98:
 430:Src/usbd_conf.c **** }
 1058              		.loc 1 430 3 is_stmt 1 view .LVU219
 431:Src/usbd_conf.c **** 
 1059              		.loc 1 431 1 is_stmt 0 view .LVU220
 1060              		@ sp needed
ARM GAS  /tmp/cch7iMLb.s 			page 34


 1061 0010 10BD     		pop	{r4, pc}
 1062              		.cfi_endproc
 1063              	.LFE55:
 1065              		.section	.text.USBD_LL_FlushEP,"ax",%progbits
 1066              		.align	1
 1067              		.global	USBD_LL_FlushEP
 1068              		.syntax unified
 1069              		.code	16
 1070              		.thumb_func
 1071              		.fpu softvfp
 1073              	USBD_LL_FlushEP:
 1074              	.LVL99:
 1075              	.LFB56:
 440:Src/usbd_conf.c ****   HAL_StatusTypeDef hal_status = HAL_OK;
 1076              		.loc 1 440 1 is_stmt 1 view -0
 1077              		.cfi_startproc
 1078              		@ args = 0, pretend = 0, frame = 0
 1079              		@ frame_needed = 0, uses_anonymous_args = 0
 440:Src/usbd_conf.c ****   HAL_StatusTypeDef hal_status = HAL_OK;
 1080              		.loc 1 440 1 is_stmt 0 view .LVU222
 1081 0000 10B5     		push	{r4, lr}
 1082              	.LCFI21:
 1083              		.cfi_def_cfa_offset 8
 1084              		.cfi_offset 4, -8
 1085              		.cfi_offset 14, -4
 441:Src/usbd_conf.c ****   USBD_StatusTypeDef usb_status = USBD_OK;
 1086              		.loc 1 441 3 is_stmt 1 view .LVU223
 1087              	.LVL100:
 442:Src/usbd_conf.c ****   
 1088              		.loc 1 442 3 view .LVU224
 444:Src/usbd_conf.c ****       
 1089              		.loc 1 444 3 view .LVU225
 444:Src/usbd_conf.c ****       
 1090              		.loc 1 444 37 is_stmt 0 view .LVU226
 1091 0002 8823     		movs	r3, #136
 1092 0004 9B00     		lsls	r3, r3, #2
 1093 0006 C058     		ldr	r0, [r0, r3]
 1094              	.LVL101:
 444:Src/usbd_conf.c ****       
 1095              		.loc 1 444 16 view .LVU227
 1096 0008 FFF7FEFF 		bl	HAL_PCD_EP_Flush
 1097              	.LVL102:
 446:Src/usbd_conf.c ****   
 1098              		.loc 1 446 3 is_stmt 1 view .LVU228
 446:Src/usbd_conf.c ****   
 1099              		.loc 1 446 17 is_stmt 0 view .LVU229
 1100 000c FFF7FEFF 		bl	USBD_Get_USB_Status
 1101              	.LVL103:
 448:Src/usbd_conf.c **** }
 1102              		.loc 1 448 3 is_stmt 1 view .LVU230
 449:Src/usbd_conf.c **** 
 1103              		.loc 1 449 1 is_stmt 0 view .LVU231
 1104              		@ sp needed
 1105 0010 10BD     		pop	{r4, pc}
 1106              		.cfi_endproc
 1107              	.LFE56:
 1109              		.section	.text.USBD_LL_StallEP,"ax",%progbits
ARM GAS  /tmp/cch7iMLb.s 			page 35


 1110              		.align	1
 1111              		.global	USBD_LL_StallEP
 1112              		.syntax unified
 1113              		.code	16
 1114              		.thumb_func
 1115              		.fpu softvfp
 1117              	USBD_LL_StallEP:
 1118              	.LVL104:
 1119              	.LFB57:
 458:Src/usbd_conf.c ****   HAL_StatusTypeDef hal_status = HAL_OK;
 1120              		.loc 1 458 1 is_stmt 1 view -0
 1121              		.cfi_startproc
 1122              		@ args = 0, pretend = 0, frame = 0
 1123              		@ frame_needed = 0, uses_anonymous_args = 0
 458:Src/usbd_conf.c ****   HAL_StatusTypeDef hal_status = HAL_OK;
 1124              		.loc 1 458 1 is_stmt 0 view .LVU233
 1125 0000 10B5     		push	{r4, lr}
 1126              	.LCFI22:
 1127              		.cfi_def_cfa_offset 8
 1128              		.cfi_offset 4, -8
 1129              		.cfi_offset 14, -4
 459:Src/usbd_conf.c ****   USBD_StatusTypeDef usb_status = USBD_OK;
 1130              		.loc 1 459 3 is_stmt 1 view .LVU234
 1131              	.LVL105:
 460:Src/usbd_conf.c ****   
 1132              		.loc 1 460 3 view .LVU235
 462:Src/usbd_conf.c **** 
 1133              		.loc 1 462 3 view .LVU236
 462:Src/usbd_conf.c **** 
 1134              		.loc 1 462 40 is_stmt 0 view .LVU237
 1135 0002 8823     		movs	r3, #136
 1136 0004 9B00     		lsls	r3, r3, #2
 1137 0006 C058     		ldr	r0, [r0, r3]
 1138              	.LVL106:
 462:Src/usbd_conf.c **** 
 1139              		.loc 1 462 16 view .LVU238
 1140 0008 FFF7FEFF 		bl	HAL_PCD_EP_SetStall
 1141              	.LVL107:
 464:Src/usbd_conf.c ****  
 1142              		.loc 1 464 3 is_stmt 1 view .LVU239
 464:Src/usbd_conf.c ****  
 1143              		.loc 1 464 17 is_stmt 0 view .LVU240
 1144 000c FFF7FEFF 		bl	USBD_Get_USB_Status
 1145              	.LVL108:
 466:Src/usbd_conf.c **** }
 1146              		.loc 1 466 3 is_stmt 1 view .LVU241
 467:Src/usbd_conf.c **** 
 1147              		.loc 1 467 1 is_stmt 0 view .LVU242
 1148              		@ sp needed
 1149 0010 10BD     		pop	{r4, pc}
 1150              		.cfi_endproc
 1151              	.LFE57:
 1153              		.section	.text.USBD_LL_ClearStallEP,"ax",%progbits
 1154              		.align	1
 1155              		.global	USBD_LL_ClearStallEP
 1156              		.syntax unified
 1157              		.code	16
ARM GAS  /tmp/cch7iMLb.s 			page 36


 1158              		.thumb_func
 1159              		.fpu softvfp
 1161              	USBD_LL_ClearStallEP:
 1162              	.LVL109:
 1163              	.LFB58:
 476:Src/usbd_conf.c ****   HAL_StatusTypeDef hal_status = HAL_OK;
 1164              		.loc 1 476 1 is_stmt 1 view -0
 1165              		.cfi_startproc
 1166              		@ args = 0, pretend = 0, frame = 0
 1167              		@ frame_needed = 0, uses_anonymous_args = 0
 476:Src/usbd_conf.c ****   HAL_StatusTypeDef hal_status = HAL_OK;
 1168              		.loc 1 476 1 is_stmt 0 view .LVU244
 1169 0000 10B5     		push	{r4, lr}
 1170              	.LCFI23:
 1171              		.cfi_def_cfa_offset 8
 1172              		.cfi_offset 4, -8
 1173              		.cfi_offset 14, -4
 477:Src/usbd_conf.c ****   USBD_StatusTypeDef usb_status = USBD_OK;
 1174              		.loc 1 477 3 is_stmt 1 view .LVU245
 1175              	.LVL110:
 478:Src/usbd_conf.c ****   
 1176              		.loc 1 478 3 view .LVU246
 480:Src/usbd_conf.c ****      
 1177              		.loc 1 480 3 view .LVU247
 480:Src/usbd_conf.c ****      
 1178              		.loc 1 480 40 is_stmt 0 view .LVU248
 1179 0002 8823     		movs	r3, #136
 1180 0004 9B00     		lsls	r3, r3, #2
 1181 0006 C058     		ldr	r0, [r0, r3]
 1182              	.LVL111:
 480:Src/usbd_conf.c ****      
 1183              		.loc 1 480 16 view .LVU249
 1184 0008 FFF7FEFF 		bl	HAL_PCD_EP_ClrStall
 1185              	.LVL112:
 482:Src/usbd_conf.c **** 
 1186              		.loc 1 482 3 is_stmt 1 view .LVU250
 482:Src/usbd_conf.c **** 
 1187              		.loc 1 482 17 is_stmt 0 view .LVU251
 1188 000c FFF7FEFF 		bl	USBD_Get_USB_Status
 1189              	.LVL113:
 484:Src/usbd_conf.c **** }
 1190              		.loc 1 484 3 is_stmt 1 view .LVU252
 485:Src/usbd_conf.c **** 
 1191              		.loc 1 485 1 is_stmt 0 view .LVU253
 1192              		@ sp needed
 1193 0010 10BD     		pop	{r4, pc}
 1194              		.cfi_endproc
 1195              	.LFE58:
 1197              		.section	.text.USBD_LL_IsStallEP,"ax",%progbits
 1198              		.align	1
 1199              		.global	USBD_LL_IsStallEP
 1200              		.syntax unified
 1201              		.code	16
 1202              		.thumb_func
 1203              		.fpu softvfp
 1205              	USBD_LL_IsStallEP:
 1206              	.LVL114:
ARM GAS  /tmp/cch7iMLb.s 			page 37


 1207              	.LFB59:
 494:Src/usbd_conf.c ****   PCD_HandleTypeDef *hpcd = (PCD_HandleTypeDef*) pdev->pData;
 1208              		.loc 1 494 1 is_stmt 1 view -0
 1209              		.cfi_startproc
 1210              		@ args = 0, pretend = 0, frame = 0
 1211              		@ frame_needed = 0, uses_anonymous_args = 0
 1212              		@ link register save eliminated.
 495:Src/usbd_conf.c ****   
 1213              		.loc 1 495 3 view .LVU255
 495:Src/usbd_conf.c ****   
 1214              		.loc 1 495 22 is_stmt 0 view .LVU256
 1215 0000 8823     		movs	r3, #136
 1216 0002 9B00     		lsls	r3, r3, #2
 1217 0004 C358     		ldr	r3, [r0, r3]
 1218              	.LVL115:
 497:Src/usbd_conf.c ****   {
 1219              		.loc 1 497 3 is_stmt 1 view .LVU257
 497:Src/usbd_conf.c ****   {
 1220              		.loc 1 497 23 is_stmt 0 view .LVU258
 1221 0006 4AB2     		sxtb	r2, r1
 497:Src/usbd_conf.c ****   {
 1222              		.loc 1 497 5 view .LVU259
 1223 0008 002A     		cmp	r2, #0
 1224 000a 09DB     		blt	.L53
 503:Src/usbd_conf.c ****   }
 1225              		.loc 1 503 5 is_stmt 1 view .LVU260
 503:Src/usbd_conf.c ****   }
 1226              		.loc 1 503 33 is_stmt 0 view .LVU261
 1227 000c 7F22     		movs	r2, #127
 1228 000e 1140     		ands	r1, r2
 1229              	.LVL116:
 503:Src/usbd_conf.c ****   }
 1230              		.loc 1 503 40 view .LVU262
 1231 0010 CA00     		lsls	r2, r1, #3
 1232 0012 511A     		subs	r1, r2, r1
 1233 0014 8900     		lsls	r1, r1, #2
 1234 0016 5B18     		adds	r3, r3, r1
 1235              	.LVL117:
 503:Src/usbd_conf.c ****   }
 1236              		.loc 1 503 40 view .LVU263
 1237 0018 0B33     		adds	r3, r3, #11
 1238 001a FF33     		adds	r3, r3, #255
 1239 001c 1878     		ldrb	r0, [r3]
 1240              	.LVL118:
 1241              	.L52:
 505:Src/usbd_conf.c **** 
 1242              		.loc 1 505 1 view .LVU264
 1243              		@ sp needed
 1244 001e 7047     		bx	lr
 1245              	.LVL119:
 1246              	.L53:
 499:Src/usbd_conf.c ****   }
 1247              		.loc 1 499 5 is_stmt 1 view .LVU265
 499:Src/usbd_conf.c ****   }
 1248              		.loc 1 499 32 is_stmt 0 view .LVU266
 1249 0020 7F22     		movs	r2, #127
 1250 0022 1140     		ands	r1, r2
ARM GAS  /tmp/cch7iMLb.s 			page 38


 1251              	.LVL120:
 499:Src/usbd_conf.c ****   }
 1252              		.loc 1 499 39 view .LVU267
 1253 0024 CA00     		lsls	r2, r1, #3
 1254 0026 511A     		subs	r1, r2, r1
 1255 0028 8900     		lsls	r1, r1, #2
 1256 002a 5B18     		adds	r3, r3, r1
 1257              	.LVL121:
 499:Src/usbd_conf.c ****   }
 1258              		.loc 1 499 39 view .LVU268
 1259 002c 2A33     		adds	r3, r3, #42
 1260 002e 1878     		ldrb	r0, [r3]
 1261              	.LVL122:
 499:Src/usbd_conf.c ****   }
 1262              		.loc 1 499 39 view .LVU269
 1263 0030 F5E7     		b	.L52
 1264              		.cfi_endproc
 1265              	.LFE59:
 1267              		.section	.text.USBD_LL_SetUSBAddress,"ax",%progbits
 1268              		.align	1
 1269              		.global	USBD_LL_SetUSBAddress
 1270              		.syntax unified
 1271              		.code	16
 1272              		.thumb_func
 1273              		.fpu softvfp
 1275              	USBD_LL_SetUSBAddress:
 1276              	.LVL123:
 1277              	.LFB60:
 514:Src/usbd_conf.c ****   HAL_StatusTypeDef hal_status = HAL_OK;
 1278              		.loc 1 514 1 is_stmt 1 view -0
 1279              		.cfi_startproc
 1280              		@ args = 0, pretend = 0, frame = 0
 1281              		@ frame_needed = 0, uses_anonymous_args = 0
 514:Src/usbd_conf.c ****   HAL_StatusTypeDef hal_status = HAL_OK;
 1282              		.loc 1 514 1 is_stmt 0 view .LVU271
 1283 0000 10B5     		push	{r4, lr}
 1284              	.LCFI24:
 1285              		.cfi_def_cfa_offset 8
 1286              		.cfi_offset 4, -8
 1287              		.cfi_offset 14, -4
 515:Src/usbd_conf.c ****   USBD_StatusTypeDef usb_status = USBD_OK;
 1288              		.loc 1 515 3 is_stmt 1 view .LVU272
 1289              	.LVL124:
 516:Src/usbd_conf.c ****   
 1290              		.loc 1 516 3 view .LVU273
 518:Src/usbd_conf.c ****      
 1291              		.loc 1 518 3 view .LVU274
 518:Src/usbd_conf.c ****      
 1292              		.loc 1 518 39 is_stmt 0 view .LVU275
 1293 0002 8823     		movs	r3, #136
 1294 0004 9B00     		lsls	r3, r3, #2
 1295 0006 C058     		ldr	r0, [r0, r3]
 1296              	.LVL125:
 518:Src/usbd_conf.c ****      
 1297              		.loc 1 518 16 view .LVU276
 1298 0008 FFF7FEFF 		bl	HAL_PCD_SetAddress
 1299              	.LVL126:
ARM GAS  /tmp/cch7iMLb.s 			page 39


 520:Src/usbd_conf.c ****  
 1300              		.loc 1 520 3 is_stmt 1 view .LVU277
 520:Src/usbd_conf.c ****  
 1301              		.loc 1 520 17 is_stmt 0 view .LVU278
 1302 000c FFF7FEFF 		bl	USBD_Get_USB_Status
 1303              	.LVL127:
 522:Src/usbd_conf.c **** }
 1304              		.loc 1 522 3 is_stmt 1 view .LVU279
 523:Src/usbd_conf.c **** 
 1305              		.loc 1 523 1 is_stmt 0 view .LVU280
 1306              		@ sp needed
 1307 0010 10BD     		pop	{r4, pc}
 1308              		.cfi_endproc
 1309              	.LFE60:
 1311              		.section	.text.USBD_LL_Transmit,"ax",%progbits
 1312              		.align	1
 1313              		.global	USBD_LL_Transmit
 1314              		.syntax unified
 1315              		.code	16
 1316              		.thumb_func
 1317              		.fpu softvfp
 1319              	USBD_LL_Transmit:
 1320              	.LVL128:
 1321              	.LFB61:
 534:Src/usbd_conf.c ****   HAL_StatusTypeDef hal_status = HAL_OK;
 1322              		.loc 1 534 1 is_stmt 1 view -0
 1323              		.cfi_startproc
 1324              		@ args = 0, pretend = 0, frame = 0
 1325              		@ frame_needed = 0, uses_anonymous_args = 0
 534:Src/usbd_conf.c ****   HAL_StatusTypeDef hal_status = HAL_OK;
 1326              		.loc 1 534 1 is_stmt 0 view .LVU282
 1327 0000 10B5     		push	{r4, lr}
 1328              	.LCFI25:
 1329              		.cfi_def_cfa_offset 8
 1330              		.cfi_offset 4, -8
 1331              		.cfi_offset 14, -4
 535:Src/usbd_conf.c ****   USBD_StatusTypeDef usb_status = USBD_OK;
 1332              		.loc 1 535 3 is_stmt 1 view .LVU283
 1333              	.LVL129:
 536:Src/usbd_conf.c **** 
 1334              		.loc 1 536 3 view .LVU284
 538:Src/usbd_conf.c ****      
 1335              		.loc 1 538 3 view .LVU285
 538:Src/usbd_conf.c ****      
 1336              		.loc 1 538 40 is_stmt 0 view .LVU286
 1337 0002 8824     		movs	r4, #136
 1338 0004 A400     		lsls	r4, r4, #2
 1339 0006 0059     		ldr	r0, [r0, r4]
 1340              	.LVL130:
 538:Src/usbd_conf.c ****      
 1341              		.loc 1 538 16 view .LVU287
 1342 0008 FFF7FEFF 		bl	HAL_PCD_EP_Transmit
 1343              	.LVL131:
 540:Src/usbd_conf.c ****   
 1344              		.loc 1 540 3 is_stmt 1 view .LVU288
 540:Src/usbd_conf.c ****   
 1345              		.loc 1 540 17 is_stmt 0 view .LVU289
ARM GAS  /tmp/cch7iMLb.s 			page 40


 1346 000c FFF7FEFF 		bl	USBD_Get_USB_Status
 1347              	.LVL132:
 542:Src/usbd_conf.c **** }
 1348              		.loc 1 542 3 is_stmt 1 view .LVU290
 543:Src/usbd_conf.c **** 
 1349              		.loc 1 543 1 is_stmt 0 view .LVU291
 1350              		@ sp needed
 1351 0010 10BD     		pop	{r4, pc}
 1352              		.cfi_endproc
 1353              	.LFE61:
 1355              		.section	.text.USBD_LL_PrepareReceive,"ax",%progbits
 1356              		.align	1
 1357              		.global	USBD_LL_PrepareReceive
 1358              		.syntax unified
 1359              		.code	16
 1360              		.thumb_func
 1361              		.fpu softvfp
 1363              	USBD_LL_PrepareReceive:
 1364              	.LVL133:
 1365              	.LFB62:
 554:Src/usbd_conf.c ****   HAL_StatusTypeDef hal_status = HAL_OK;
 1366              		.loc 1 554 1 is_stmt 1 view -0
 1367              		.cfi_startproc
 1368              		@ args = 0, pretend = 0, frame = 0
 1369              		@ frame_needed = 0, uses_anonymous_args = 0
 554:Src/usbd_conf.c ****   HAL_StatusTypeDef hal_status = HAL_OK;
 1370              		.loc 1 554 1 is_stmt 0 view .LVU293
 1371 0000 10B5     		push	{r4, lr}
 1372              	.LCFI26:
 1373              		.cfi_def_cfa_offset 8
 1374              		.cfi_offset 4, -8
 1375              		.cfi_offset 14, -4
 555:Src/usbd_conf.c ****   USBD_StatusTypeDef usb_status = USBD_OK;
 1376              		.loc 1 555 3 is_stmt 1 view .LVU294
 1377              	.LVL134:
 556:Src/usbd_conf.c **** 
 1378              		.loc 1 556 3 view .LVU295
 558:Src/usbd_conf.c ****      
 1379              		.loc 1 558 3 view .LVU296
 558:Src/usbd_conf.c ****      
 1380              		.loc 1 558 39 is_stmt 0 view .LVU297
 1381 0002 8824     		movs	r4, #136
 1382 0004 A400     		lsls	r4, r4, #2
 1383 0006 0059     		ldr	r0, [r0, r4]
 1384              	.LVL135:
 558:Src/usbd_conf.c ****      
 1385              		.loc 1 558 16 view .LVU298
 1386 0008 FFF7FEFF 		bl	HAL_PCD_EP_Receive
 1387              	.LVL136:
 560:Src/usbd_conf.c ****   	
 1388              		.loc 1 560 3 is_stmt 1 view .LVU299
 560:Src/usbd_conf.c ****   	
 1389              		.loc 1 560 17 is_stmt 0 view .LVU300
 1390 000c FFF7FEFF 		bl	USBD_Get_USB_Status
 1391              	.LVL137:
 562:Src/usbd_conf.c **** }
 1392              		.loc 1 562 3 is_stmt 1 view .LVU301
ARM GAS  /tmp/cch7iMLb.s 			page 41


 563:Src/usbd_conf.c **** 
 1393              		.loc 1 563 1 is_stmt 0 view .LVU302
 1394              		@ sp needed
 1395 0010 10BD     		pop	{r4, pc}
 1396              		.cfi_endproc
 1397              	.LFE62:
 1399              		.section	.text.USBD_LL_GetRxDataSize,"ax",%progbits
 1400              		.align	1
 1401              		.global	USBD_LL_GetRxDataSize
 1402              		.syntax unified
 1403              		.code	16
 1404              		.thumb_func
 1405              		.fpu softvfp
 1407              	USBD_LL_GetRxDataSize:
 1408              	.LVL138:
 1409              	.LFB63:
 572:Src/usbd_conf.c ****   return HAL_PCD_EP_GetRxCount((PCD_HandleTypeDef*) pdev->pData, ep_addr);
 1410              		.loc 1 572 1 is_stmt 1 view -0
 1411              		.cfi_startproc
 1412              		@ args = 0, pretend = 0, frame = 0
 1413              		@ frame_needed = 0, uses_anonymous_args = 0
 572:Src/usbd_conf.c ****   return HAL_PCD_EP_GetRxCount((PCD_HandleTypeDef*) pdev->pData, ep_addr);
 1414              		.loc 1 572 1 is_stmt 0 view .LVU304
 1415 0000 10B5     		push	{r4, lr}
 1416              	.LCFI27:
 1417              		.cfi_def_cfa_offset 8
 1418              		.cfi_offset 4, -8
 1419              		.cfi_offset 14, -4
 573:Src/usbd_conf.c **** }
 1420              		.loc 1 573 3 is_stmt 1 view .LVU305
 573:Src/usbd_conf.c **** }
 1421              		.loc 1 573 57 is_stmt 0 view .LVU306
 1422 0002 8823     		movs	r3, #136
 1423 0004 9B00     		lsls	r3, r3, #2
 1424 0006 C058     		ldr	r0, [r0, r3]
 1425              	.LVL139:
 573:Src/usbd_conf.c **** }
 1426              		.loc 1 573 10 view .LVU307
 1427 0008 FFF7FEFF 		bl	HAL_PCD_EP_GetRxCount
 1428              	.LVL140:
 574:Src/usbd_conf.c **** 
 1429              		.loc 1 574 1 view .LVU308
 1430              		@ sp needed
 1431 000c 10BD     		pop	{r4, pc}
 1432              		.cfi_endproc
 1433              	.LFE63:
 1435              		.section	.text.USBD_LL_Delay,"ax",%progbits
 1436              		.align	1
 1437              		.global	USBD_LL_Delay
 1438              		.syntax unified
 1439              		.code	16
 1440              		.thumb_func
 1441              		.fpu softvfp
 1443              	USBD_LL_Delay:
 1444              	.LVL141:
 1445              	.LFB64:
 582:Src/usbd_conf.c ****   HAL_Delay(Delay);
ARM GAS  /tmp/cch7iMLb.s 			page 42


 1446              		.loc 1 582 1 is_stmt 1 view -0
 1447              		.cfi_startproc
 1448              		@ args = 0, pretend = 0, frame = 0
 1449              		@ frame_needed = 0, uses_anonymous_args = 0
 582:Src/usbd_conf.c ****   HAL_Delay(Delay);
 1450              		.loc 1 582 1 is_stmt 0 view .LVU310
 1451 0000 10B5     		push	{r4, lr}
 1452              	.LCFI28:
 1453              		.cfi_def_cfa_offset 8
 1454              		.cfi_offset 4, -8
 1455              		.cfi_offset 14, -4
 583:Src/usbd_conf.c **** }
 1456              		.loc 1 583 3 is_stmt 1 view .LVU311
 1457 0002 FFF7FEFF 		bl	HAL_Delay
 1458              	.LVL142:
 584:Src/usbd_conf.c **** 
 1459              		.loc 1 584 1 is_stmt 0 view .LVU312
 1460              		@ sp needed
 1461 0006 10BD     		pop	{r4, pc}
 1462              		.cfi_endproc
 1463              	.LFE64:
 1465              		.section	.text.USBD_static_malloc,"ax",%progbits
 1466              		.align	1
 1467              		.global	USBD_static_malloc
 1468              		.syntax unified
 1469              		.code	16
 1470              		.thumb_func
 1471              		.fpu softvfp
 1473              	USBD_static_malloc:
 1474              	.LVL143:
 1475              	.LFB65:
 592:Src/usbd_conf.c ****   static uint32_t mem[(sizeof(USBD_HID_HandleTypeDef)/4)+1];/* On 32-bit boundary */
 1476              		.loc 1 592 1 is_stmt 1 view -0
 1477              		.cfi_startproc
 1478              		@ args = 0, pretend = 0, frame = 0
 1479              		@ frame_needed = 0, uses_anonymous_args = 0
 1480              		@ link register save eliminated.
 593:Src/usbd_conf.c ****   return mem;
 1481              		.loc 1 593 3 view .LVU314
 594:Src/usbd_conf.c **** }
 1482              		.loc 1 594 3 view .LVU315
 595:Src/usbd_conf.c **** 
 1483              		.loc 1 595 1 is_stmt 0 view .LVU316
 1484 0000 0048     		ldr	r0, .L60
 1485              	.LVL144:
 595:Src/usbd_conf.c **** 
 1486              		.loc 1 595 1 view .LVU317
 1487              		@ sp needed
 1488 0002 7047     		bx	lr
 1489              	.L61:
 1490              		.align	2
 1491              	.L60:
 1492 0004 00000000 		.word	.LANCHOR0
 1493              		.cfi_endproc
 1494              	.LFE65:
 1496              		.section	.text.USBD_static_free,"ax",%progbits
 1497              		.align	1
ARM GAS  /tmp/cch7iMLb.s 			page 43


 1498              		.global	USBD_static_free
 1499              		.syntax unified
 1500              		.code	16
 1501              		.thumb_func
 1502              		.fpu softvfp
 1504              	USBD_static_free:
 1505              	.LVL145:
 1506              	.LFB66:
 603:Src/usbd_conf.c **** 
 1507              		.loc 1 603 1 is_stmt 1 view -0
 1508              		.cfi_startproc
 1509              		@ args = 0, pretend = 0, frame = 0
 1510              		@ frame_needed = 0, uses_anonymous_args = 0
 1511              		@ link register save eliminated.
 605:Src/usbd_conf.c **** 
 1512              		.loc 1 605 1 view .LVU319
 1513              		@ sp needed
 1514 0000 7047     		bx	lr
 1515              		.cfi_endproc
 1516              	.LFE66:
 1518              		.comm	hpcd_USB_FS,544,4
 1519              		.section	.bss.mem.8051,"aw",%nobits
 1520              		.align	2
 1521              		.set	.LANCHOR0,. + 0
 1524              	mem.8051:
 1525 0000 00000000 		.space	20
 1525      00000000 
 1525      00000000 
 1525      00000000 
 1525      00000000 
 1526              		.text
 1527              	.Letext0:
 1528              		.file 2 "/usr/arm-none-eabi/include/machine/_default_types.h"
 1529              		.file 3 "/usr/arm-none-eabi/include/sys/_stdint.h"
 1530              		.file 4 "Drivers/CMSIS/Include/core_cm0.h"
 1531              		.file 5 "Drivers/CMSIS/Device/ST/STM32F0xx/Include/system_stm32f0xx.h"
 1532              		.file 6 "Drivers/CMSIS/Device/ST/STM32F0xx/Include/stm32f042x6.h"
 1533              		.file 7 "Drivers/CMSIS/Device/ST/STM32F0xx/Include/stm32f0xx.h"
 1534              		.file 8 "/usr/arm-none-eabi/include/sys/lock.h"
 1535              		.file 9 "/usr/arm-none-eabi/include/sys/_types.h"
 1536              		.file 10 "/usr/lib/gcc/arm-none-eabi/9.1.0/include/stddef.h"
 1537              		.file 11 "/usr/arm-none-eabi/include/sys/reent.h"
 1538              		.file 12 "Drivers/STM32F0xx_HAL_Driver/Inc/stm32f0xx_hal_def.h"
 1539              		.file 13 "Drivers/STM32F0xx_HAL_Driver/Inc/stm32f0xx_hal_pcd.h"
 1540              		.file 14 "/usr/arm-none-eabi/include/stdlib.h"
 1541              		.file 15 "Middlewares/ST/STM32_USB_Device_Library/Core/Inc/usbd_def.h"
 1542              		.file 16 "Middlewares/ST/STM32_USB_Device_Library/Class/HID/Inc/usbd_hid.h"
 1543              		.file 17 "Drivers/STM32F0xx_HAL_Driver/Inc/stm32f0xx_hal.h"
 1544              		.file 18 "Drivers/STM32F0xx_HAL_Driver/Inc/stm32f0xx_hal_pcd_ex.h"
 1545              		.file 19 "Middlewares/ST/STM32_USB_Device_Library/Core/Inc/usbd_core.h"
 1546              		.file 20 "Drivers/STM32F0xx_HAL_Driver/Inc/stm32f0xx_hal_cortex.h"
ARM GAS  /tmp/cch7iMLb.s 			page 44

