ARM GAS  /tmp/ccHm7VQo.s 			page 1


   1              		.cpu cortex-m0
   2              		.eabi_attribute 20, 1
   3              		.eabi_attribute 21, 1
   4              		.eabi_attribute 23, 3
   5              		.eabi_attribute 24, 1
   6              		.eabi_attribute 25, 1
   7              		.eabi_attribute 26, 1
   8              		.eabi_attribute 30, 1
   9              		.eabi_attribute 34, 0
  10              		.eabi_attribute 18, 4
  11              		.file	"stm32f0xx_hal_pcd.c"
  12              		.text
  13              	.Ltext0:
  14              		.cfi_sections	.debug_frame
  15              		.section	.text.HAL_PCD_MspInit,"ax",%progbits
  16              		.align	1
  17              		.weak	HAL_PCD_MspInit
  18              		.arch armv6s-m
  19              		.syntax unified
  20              		.code	16
  21              		.thumb_func
  22              		.fpu softvfp
  24              	HAL_PCD_MspInit:
  25              	.LVL0:
  26              	.LFB39:
  27              		.file 1 "Drivers/STM32F0xx_HAL_Driver/Src/stm32f0xx_hal_pcd.c"
   1:Drivers/STM32F0xx_HAL_Driver/Src/stm32f0xx_hal_pcd.c **** /**
   2:Drivers/STM32F0xx_HAL_Driver/Src/stm32f0xx_hal_pcd.c ****   ******************************************************************************
   3:Drivers/STM32F0xx_HAL_Driver/Src/stm32f0xx_hal_pcd.c ****   * @file    stm32f0xx_hal_pcd.c
   4:Drivers/STM32F0xx_HAL_Driver/Src/stm32f0xx_hal_pcd.c ****   * @author  MCD Application Team
   5:Drivers/STM32F0xx_HAL_Driver/Src/stm32f0xx_hal_pcd.c ****   * @brief   PCD HAL module driver.
   6:Drivers/STM32F0xx_HAL_Driver/Src/stm32f0xx_hal_pcd.c ****   *          This file provides firmware functions to manage the following 
   7:Drivers/STM32F0xx_HAL_Driver/Src/stm32f0xx_hal_pcd.c ****   *          functionalities of the USB Peripheral Controller:
   8:Drivers/STM32F0xx_HAL_Driver/Src/stm32f0xx_hal_pcd.c ****   *           + Initialization and de-initialization functions
   9:Drivers/STM32F0xx_HAL_Driver/Src/stm32f0xx_hal_pcd.c ****   *           + IO operation functions
  10:Drivers/STM32F0xx_HAL_Driver/Src/stm32f0xx_hal_pcd.c ****   *           + Peripheral Control functions 
  11:Drivers/STM32F0xx_HAL_Driver/Src/stm32f0xx_hal_pcd.c ****   *           + Peripheral State functions
  12:Drivers/STM32F0xx_HAL_Driver/Src/stm32f0xx_hal_pcd.c ****   *         
  13:Drivers/STM32F0xx_HAL_Driver/Src/stm32f0xx_hal_pcd.c ****   @verbatim
  14:Drivers/STM32F0xx_HAL_Driver/Src/stm32f0xx_hal_pcd.c ****   ==============================================================================
  15:Drivers/STM32F0xx_HAL_Driver/Src/stm32f0xx_hal_pcd.c ****                     ##### How to use this driver #####
  16:Drivers/STM32F0xx_HAL_Driver/Src/stm32f0xx_hal_pcd.c ****   ==============================================================================
  17:Drivers/STM32F0xx_HAL_Driver/Src/stm32f0xx_hal_pcd.c ****     [..]
  18:Drivers/STM32F0xx_HAL_Driver/Src/stm32f0xx_hal_pcd.c ****       The PCD HAL driver can be used as follows:
  19:Drivers/STM32F0xx_HAL_Driver/Src/stm32f0xx_hal_pcd.c **** 
  20:Drivers/STM32F0xx_HAL_Driver/Src/stm32f0xx_hal_pcd.c ****      (#) Declare a PCD_HandleTypeDef handle structure, for example:
  21:Drivers/STM32F0xx_HAL_Driver/Src/stm32f0xx_hal_pcd.c ****          PCD_HandleTypeDef  hpcd;
  22:Drivers/STM32F0xx_HAL_Driver/Src/stm32f0xx_hal_pcd.c ****         
  23:Drivers/STM32F0xx_HAL_Driver/Src/stm32f0xx_hal_pcd.c ****      (#) Fill parameters of Init structure in HCD handle
  24:Drivers/STM32F0xx_HAL_Driver/Src/stm32f0xx_hal_pcd.c ****   
  25:Drivers/STM32F0xx_HAL_Driver/Src/stm32f0xx_hal_pcd.c ****      (#) Call HAL_PCD_Init() API to initialize the HCD peripheral (Core, Device core, ...) 
  26:Drivers/STM32F0xx_HAL_Driver/Src/stm32f0xx_hal_pcd.c **** 
  27:Drivers/STM32F0xx_HAL_Driver/Src/stm32f0xx_hal_pcd.c ****      (#) Initialize the PCD low level resources through the HAL_PCD_MspInit() API:
  28:Drivers/STM32F0xx_HAL_Driver/Src/stm32f0xx_hal_pcd.c ****          (##) Enable the PCD/USB Low Level interface clock using 
  29:Drivers/STM32F0xx_HAL_Driver/Src/stm32f0xx_hal_pcd.c ****               (+++) __HAL_RCC_USB_CLK_ENABLE);
  30:Drivers/STM32F0xx_HAL_Driver/Src/stm32f0xx_hal_pcd.c ****            
  31:Drivers/STM32F0xx_HAL_Driver/Src/stm32f0xx_hal_pcd.c ****          (##) Initialize the related GPIO clocks
ARM GAS  /tmp/ccHm7VQo.s 			page 2


  32:Drivers/STM32F0xx_HAL_Driver/Src/stm32f0xx_hal_pcd.c ****          (##) Configure PCD pin-out
  33:Drivers/STM32F0xx_HAL_Driver/Src/stm32f0xx_hal_pcd.c ****          (##) Configure PCD NVIC interrupt
  34:Drivers/STM32F0xx_HAL_Driver/Src/stm32f0xx_hal_pcd.c ****     
  35:Drivers/STM32F0xx_HAL_Driver/Src/stm32f0xx_hal_pcd.c ****      (#)Associate the Upper USB device stack to the HAL PCD Driver:
  36:Drivers/STM32F0xx_HAL_Driver/Src/stm32f0xx_hal_pcd.c ****          (##) hpcd.pData = pdev;
  37:Drivers/STM32F0xx_HAL_Driver/Src/stm32f0xx_hal_pcd.c **** 
  38:Drivers/STM32F0xx_HAL_Driver/Src/stm32f0xx_hal_pcd.c ****      (#)Enable HCD transmission and reception:
  39:Drivers/STM32F0xx_HAL_Driver/Src/stm32f0xx_hal_pcd.c ****          (##) HAL_PCD_Start();
  40:Drivers/STM32F0xx_HAL_Driver/Src/stm32f0xx_hal_pcd.c **** 
  41:Drivers/STM32F0xx_HAL_Driver/Src/stm32f0xx_hal_pcd.c ****   @endverbatim
  42:Drivers/STM32F0xx_HAL_Driver/Src/stm32f0xx_hal_pcd.c ****   ******************************************************************************
  43:Drivers/STM32F0xx_HAL_Driver/Src/stm32f0xx_hal_pcd.c ****   * @attention
  44:Drivers/STM32F0xx_HAL_Driver/Src/stm32f0xx_hal_pcd.c ****   *
  45:Drivers/STM32F0xx_HAL_Driver/Src/stm32f0xx_hal_pcd.c ****   * <h2><center>&copy; COPYRIGHT(c) 2016 STMicroelectronics</center></h2>
  46:Drivers/STM32F0xx_HAL_Driver/Src/stm32f0xx_hal_pcd.c ****   *
  47:Drivers/STM32F0xx_HAL_Driver/Src/stm32f0xx_hal_pcd.c ****   * Redistribution and use in source and binary forms, with or without modification,
  48:Drivers/STM32F0xx_HAL_Driver/Src/stm32f0xx_hal_pcd.c ****   * are permitted provided that the following conditions are met:
  49:Drivers/STM32F0xx_HAL_Driver/Src/stm32f0xx_hal_pcd.c ****   *   1. Redistributions of source code must retain the above copyright notice,
  50:Drivers/STM32F0xx_HAL_Driver/Src/stm32f0xx_hal_pcd.c ****   *      this list of conditions and the following disclaimer.
  51:Drivers/STM32F0xx_HAL_Driver/Src/stm32f0xx_hal_pcd.c ****   *   2. Redistributions in binary form must reproduce the above copyright notice,
  52:Drivers/STM32F0xx_HAL_Driver/Src/stm32f0xx_hal_pcd.c ****   *      this list of conditions and the following disclaimer in the documentation
  53:Drivers/STM32F0xx_HAL_Driver/Src/stm32f0xx_hal_pcd.c ****   *      and/or other materials provided with the distribution.
  54:Drivers/STM32F0xx_HAL_Driver/Src/stm32f0xx_hal_pcd.c ****   *   3. Neither the name of STMicroelectronics nor the names of its contributors
  55:Drivers/STM32F0xx_HAL_Driver/Src/stm32f0xx_hal_pcd.c ****   *      may be used to endorse or promote products derived from this software
  56:Drivers/STM32F0xx_HAL_Driver/Src/stm32f0xx_hal_pcd.c ****   *      without specific prior written permission.
  57:Drivers/STM32F0xx_HAL_Driver/Src/stm32f0xx_hal_pcd.c ****   *
  58:Drivers/STM32F0xx_HAL_Driver/Src/stm32f0xx_hal_pcd.c ****   * THIS SOFTWARE IS PROVIDED BY THE COPYRIGHT HOLDERS AND CONTRIBUTORS "AS IS"
  59:Drivers/STM32F0xx_HAL_Driver/Src/stm32f0xx_hal_pcd.c ****   * AND ANY EXPRESS OR IMPLIED WARRANTIES, INCLUDING, BUT NOT LIMITED TO, THE
  60:Drivers/STM32F0xx_HAL_Driver/Src/stm32f0xx_hal_pcd.c ****   * IMPLIED WARRANTIES OF MERCHANTABILITY AND FITNESS FOR A PARTICULAR PURPOSE ARE
  61:Drivers/STM32F0xx_HAL_Driver/Src/stm32f0xx_hal_pcd.c ****   * DISCLAIMED. IN NO EVENT SHALL THE COPYRIGHT HOLDER OR CONTRIBUTORS BE LIABLE
  62:Drivers/STM32F0xx_HAL_Driver/Src/stm32f0xx_hal_pcd.c ****   * FOR ANY DIRECT, INDIRECT, INCIDENTAL, SPECIAL, EXEMPLARY, OR CONSEQUENTIAL
  63:Drivers/STM32F0xx_HAL_Driver/Src/stm32f0xx_hal_pcd.c ****   * DAMAGES (INCLUDING, BUT NOT LIMITED TO, PROCUREMENT OF SUBSTITUTE GOODS OR
  64:Drivers/STM32F0xx_HAL_Driver/Src/stm32f0xx_hal_pcd.c ****   * SERVICES; LOSS OF USE, DATA, OR PROFITS; OR BUSINESS INTERRUPTION) HOWEVER
  65:Drivers/STM32F0xx_HAL_Driver/Src/stm32f0xx_hal_pcd.c ****   * CAUSED AND ON ANY THEORY OF LIABILITY, WHETHER IN CONTRACT, STRICT LIABILITY,
  66:Drivers/STM32F0xx_HAL_Driver/Src/stm32f0xx_hal_pcd.c ****   * OR TORT (INCLUDING NEGLIGENCE OR OTHERWISE) ARISING IN ANY WAY OUT OF THE USE
  67:Drivers/STM32F0xx_HAL_Driver/Src/stm32f0xx_hal_pcd.c ****   * OF THIS SOFTWARE, EVEN IF ADVISED OF THE POSSIBILITY OF SUCH DAMAGE.
  68:Drivers/STM32F0xx_HAL_Driver/Src/stm32f0xx_hal_pcd.c ****   *
  69:Drivers/STM32F0xx_HAL_Driver/Src/stm32f0xx_hal_pcd.c ****   ******************************************************************************
  70:Drivers/STM32F0xx_HAL_Driver/Src/stm32f0xx_hal_pcd.c ****   */
  71:Drivers/STM32F0xx_HAL_Driver/Src/stm32f0xx_hal_pcd.c **** 
  72:Drivers/STM32F0xx_HAL_Driver/Src/stm32f0xx_hal_pcd.c **** /* Includes ------------------------------------------------------------------*/
  73:Drivers/STM32F0xx_HAL_Driver/Src/stm32f0xx_hal_pcd.c **** #include "stm32f0xx_hal.h"
  74:Drivers/STM32F0xx_HAL_Driver/Src/stm32f0xx_hal_pcd.c **** 
  75:Drivers/STM32F0xx_HAL_Driver/Src/stm32f0xx_hal_pcd.c **** /** @addtogroup STM32F0xx_HAL_Driver
  76:Drivers/STM32F0xx_HAL_Driver/Src/stm32f0xx_hal_pcd.c ****   * @{
  77:Drivers/STM32F0xx_HAL_Driver/Src/stm32f0xx_hal_pcd.c ****   */
  78:Drivers/STM32F0xx_HAL_Driver/Src/stm32f0xx_hal_pcd.c **** 
  79:Drivers/STM32F0xx_HAL_Driver/Src/stm32f0xx_hal_pcd.c **** #ifdef HAL_PCD_MODULE_ENABLED
  80:Drivers/STM32F0xx_HAL_Driver/Src/stm32f0xx_hal_pcd.c **** 
  81:Drivers/STM32F0xx_HAL_Driver/Src/stm32f0xx_hal_pcd.c **** #if defined(STM32F042x6) || defined(STM32F048xx) || defined(STM32F072xB) || defined(STM32F078xx) ||
  82:Drivers/STM32F0xx_HAL_Driver/Src/stm32f0xx_hal_pcd.c **** 
  83:Drivers/STM32F0xx_HAL_Driver/Src/stm32f0xx_hal_pcd.c **** /** @defgroup PCD PCD
  84:Drivers/STM32F0xx_HAL_Driver/Src/stm32f0xx_hal_pcd.c ****   * @brief PCD HAL module driver
  85:Drivers/STM32F0xx_HAL_Driver/Src/stm32f0xx_hal_pcd.c ****   * @{
  86:Drivers/STM32F0xx_HAL_Driver/Src/stm32f0xx_hal_pcd.c ****   */
  87:Drivers/STM32F0xx_HAL_Driver/Src/stm32f0xx_hal_pcd.c **** 
  88:Drivers/STM32F0xx_HAL_Driver/Src/stm32f0xx_hal_pcd.c **** /* Private typedef -----------------------------------------------------------*/
ARM GAS  /tmp/ccHm7VQo.s 			page 3


  89:Drivers/STM32F0xx_HAL_Driver/Src/stm32f0xx_hal_pcd.c **** /* Private define ------------------------------------------------------------*/
  90:Drivers/STM32F0xx_HAL_Driver/Src/stm32f0xx_hal_pcd.c **** 
  91:Drivers/STM32F0xx_HAL_Driver/Src/stm32f0xx_hal_pcd.c **** /** @defgroup PCD_Private_Define PCD Private Define
  92:Drivers/STM32F0xx_HAL_Driver/Src/stm32f0xx_hal_pcd.c ****   * @{
  93:Drivers/STM32F0xx_HAL_Driver/Src/stm32f0xx_hal_pcd.c ****   */
  94:Drivers/STM32F0xx_HAL_Driver/Src/stm32f0xx_hal_pcd.c **** #define BTABLE_ADDRESS                  (0x000)  
  95:Drivers/STM32F0xx_HAL_Driver/Src/stm32f0xx_hal_pcd.c **** /**
  96:Drivers/STM32F0xx_HAL_Driver/Src/stm32f0xx_hal_pcd.c ****   * @}
  97:Drivers/STM32F0xx_HAL_Driver/Src/stm32f0xx_hal_pcd.c ****   */ 
  98:Drivers/STM32F0xx_HAL_Driver/Src/stm32f0xx_hal_pcd.c ****   
  99:Drivers/STM32F0xx_HAL_Driver/Src/stm32f0xx_hal_pcd.c **** /* Private macro -------------------------------------------------------------*/
 100:Drivers/STM32F0xx_HAL_Driver/Src/stm32f0xx_hal_pcd.c **** /* Private variables ---------------------------------------------------------*/
 101:Drivers/STM32F0xx_HAL_Driver/Src/stm32f0xx_hal_pcd.c **** /* Private function prototypes -----------------------------------------------*/
 102:Drivers/STM32F0xx_HAL_Driver/Src/stm32f0xx_hal_pcd.c **** /** @defgroup PCD_Private_Functions PCD Private Functions
 103:Drivers/STM32F0xx_HAL_Driver/Src/stm32f0xx_hal_pcd.c ****   * @{
 104:Drivers/STM32F0xx_HAL_Driver/Src/stm32f0xx_hal_pcd.c ****   */
 105:Drivers/STM32F0xx_HAL_Driver/Src/stm32f0xx_hal_pcd.c **** static HAL_StatusTypeDef PCD_EP_ISR_Handler(PCD_HandleTypeDef *hpcd);
 106:Drivers/STM32F0xx_HAL_Driver/Src/stm32f0xx_hal_pcd.c **** void PCD_WritePMA(USB_TypeDef  *USBx, uint8_t *pbUsrBuf, uint16_t wPMABufAddr, uint16_t wNBytes);
 107:Drivers/STM32F0xx_HAL_Driver/Src/stm32f0xx_hal_pcd.c **** void PCD_ReadPMA(USB_TypeDef  *USBx, uint8_t *pbUsrBuf, uint16_t wPMABufAddr, uint16_t wNBytes);
 108:Drivers/STM32F0xx_HAL_Driver/Src/stm32f0xx_hal_pcd.c **** /**
 109:Drivers/STM32F0xx_HAL_Driver/Src/stm32f0xx_hal_pcd.c ****   * @}
 110:Drivers/STM32F0xx_HAL_Driver/Src/stm32f0xx_hal_pcd.c ****   */ 
 111:Drivers/STM32F0xx_HAL_Driver/Src/stm32f0xx_hal_pcd.c **** 
 112:Drivers/STM32F0xx_HAL_Driver/Src/stm32f0xx_hal_pcd.c **** /* Exported functions --------------------------------------------------------*/
 113:Drivers/STM32F0xx_HAL_Driver/Src/stm32f0xx_hal_pcd.c **** /** @defgroup PCD_Exported_Functions PCD Exported Functions
 114:Drivers/STM32F0xx_HAL_Driver/Src/stm32f0xx_hal_pcd.c ****   * @{
 115:Drivers/STM32F0xx_HAL_Driver/Src/stm32f0xx_hal_pcd.c ****   */
 116:Drivers/STM32F0xx_HAL_Driver/Src/stm32f0xx_hal_pcd.c **** 
 117:Drivers/STM32F0xx_HAL_Driver/Src/stm32f0xx_hal_pcd.c **** /** @defgroup PCD_Exported_Functions_Group1 Initialization and de-initialization functions 
 118:Drivers/STM32F0xx_HAL_Driver/Src/stm32f0xx_hal_pcd.c ****  *  @brief    Initialization and Configuration functions 
 119:Drivers/STM32F0xx_HAL_Driver/Src/stm32f0xx_hal_pcd.c ****  *
 120:Drivers/STM32F0xx_HAL_Driver/Src/stm32f0xx_hal_pcd.c **** @verbatim
 121:Drivers/STM32F0xx_HAL_Driver/Src/stm32f0xx_hal_pcd.c ****  ===============================================================================
 122:Drivers/STM32F0xx_HAL_Driver/Src/stm32f0xx_hal_pcd.c ****             ##### Initialization and de-initialization functions #####
 123:Drivers/STM32F0xx_HAL_Driver/Src/stm32f0xx_hal_pcd.c ****  ===============================================================================
 124:Drivers/STM32F0xx_HAL_Driver/Src/stm32f0xx_hal_pcd.c ****     [..]  This section provides functions allowing to:
 125:Drivers/STM32F0xx_HAL_Driver/Src/stm32f0xx_hal_pcd.c ****  
 126:Drivers/STM32F0xx_HAL_Driver/Src/stm32f0xx_hal_pcd.c **** @endverbatim
 127:Drivers/STM32F0xx_HAL_Driver/Src/stm32f0xx_hal_pcd.c ****   * @{
 128:Drivers/STM32F0xx_HAL_Driver/Src/stm32f0xx_hal_pcd.c ****   */
 129:Drivers/STM32F0xx_HAL_Driver/Src/stm32f0xx_hal_pcd.c **** 
 130:Drivers/STM32F0xx_HAL_Driver/Src/stm32f0xx_hal_pcd.c **** /**
 131:Drivers/STM32F0xx_HAL_Driver/Src/stm32f0xx_hal_pcd.c ****   * @brief  Initializes the PCD according to the specified
 132:Drivers/STM32F0xx_HAL_Driver/Src/stm32f0xx_hal_pcd.c ****   *         parameters in the PCD_InitTypeDef and create the associated handle.
 133:Drivers/STM32F0xx_HAL_Driver/Src/stm32f0xx_hal_pcd.c ****   * @param  hpcd PCD handle
 134:Drivers/STM32F0xx_HAL_Driver/Src/stm32f0xx_hal_pcd.c ****   * @retval HAL status
 135:Drivers/STM32F0xx_HAL_Driver/Src/stm32f0xx_hal_pcd.c ****   */
 136:Drivers/STM32F0xx_HAL_Driver/Src/stm32f0xx_hal_pcd.c **** HAL_StatusTypeDef HAL_PCD_Init(PCD_HandleTypeDef *hpcd)
 137:Drivers/STM32F0xx_HAL_Driver/Src/stm32f0xx_hal_pcd.c **** { 
 138:Drivers/STM32F0xx_HAL_Driver/Src/stm32f0xx_hal_pcd.c ****   uint32_t i = 0U;
 139:Drivers/STM32F0xx_HAL_Driver/Src/stm32f0xx_hal_pcd.c **** 
 140:Drivers/STM32F0xx_HAL_Driver/Src/stm32f0xx_hal_pcd.c ****   uint32_t wInterrupt_Mask = 0U;
 141:Drivers/STM32F0xx_HAL_Driver/Src/stm32f0xx_hal_pcd.c ****   
 142:Drivers/STM32F0xx_HAL_Driver/Src/stm32f0xx_hal_pcd.c ****   /* Check the PCD handle allocation */
 143:Drivers/STM32F0xx_HAL_Driver/Src/stm32f0xx_hal_pcd.c ****   if(hpcd == NULL)
 144:Drivers/STM32F0xx_HAL_Driver/Src/stm32f0xx_hal_pcd.c ****   {
 145:Drivers/STM32F0xx_HAL_Driver/Src/stm32f0xx_hal_pcd.c ****     return HAL_ERROR;
ARM GAS  /tmp/ccHm7VQo.s 			page 4


 146:Drivers/STM32F0xx_HAL_Driver/Src/stm32f0xx_hal_pcd.c ****   }
 147:Drivers/STM32F0xx_HAL_Driver/Src/stm32f0xx_hal_pcd.c ****   
 148:Drivers/STM32F0xx_HAL_Driver/Src/stm32f0xx_hal_pcd.c ****   /* Check the parameters */
 149:Drivers/STM32F0xx_HAL_Driver/Src/stm32f0xx_hal_pcd.c ****   assert_param(IS_PCD_ALL_INSTANCE(hpcd->Instance));
 150:Drivers/STM32F0xx_HAL_Driver/Src/stm32f0xx_hal_pcd.c **** 
 151:Drivers/STM32F0xx_HAL_Driver/Src/stm32f0xx_hal_pcd.c ****   if(hpcd->State == HAL_PCD_STATE_RESET)
 152:Drivers/STM32F0xx_HAL_Driver/Src/stm32f0xx_hal_pcd.c ****   {  
 153:Drivers/STM32F0xx_HAL_Driver/Src/stm32f0xx_hal_pcd.c ****     /* Allocate lock resource and initialize it */
 154:Drivers/STM32F0xx_HAL_Driver/Src/stm32f0xx_hal_pcd.c ****     hpcd->Lock = HAL_UNLOCKED;
 155:Drivers/STM32F0xx_HAL_Driver/Src/stm32f0xx_hal_pcd.c ****   
 156:Drivers/STM32F0xx_HAL_Driver/Src/stm32f0xx_hal_pcd.c ****     /* Init the low level hardware : GPIO, CLOCK, NVIC... */
 157:Drivers/STM32F0xx_HAL_Driver/Src/stm32f0xx_hal_pcd.c ****     HAL_PCD_MspInit(hpcd);
 158:Drivers/STM32F0xx_HAL_Driver/Src/stm32f0xx_hal_pcd.c ****   }
 159:Drivers/STM32F0xx_HAL_Driver/Src/stm32f0xx_hal_pcd.c **** 
 160:Drivers/STM32F0xx_HAL_Driver/Src/stm32f0xx_hal_pcd.c ****   hpcd->State = HAL_PCD_STATE_BUSY;
 161:Drivers/STM32F0xx_HAL_Driver/Src/stm32f0xx_hal_pcd.c ****  
 162:Drivers/STM32F0xx_HAL_Driver/Src/stm32f0xx_hal_pcd.c ****  /* Init endpoints structures */
 163:Drivers/STM32F0xx_HAL_Driver/Src/stm32f0xx_hal_pcd.c ****  for (i = 0U; i < hpcd->Init.dev_endpoints ; i++)
 164:Drivers/STM32F0xx_HAL_Driver/Src/stm32f0xx_hal_pcd.c ****  {
 165:Drivers/STM32F0xx_HAL_Driver/Src/stm32f0xx_hal_pcd.c ****    /* Init ep structure */
 166:Drivers/STM32F0xx_HAL_Driver/Src/stm32f0xx_hal_pcd.c ****    hpcd->IN_ep[i].is_in = 1U;
 167:Drivers/STM32F0xx_HAL_Driver/Src/stm32f0xx_hal_pcd.c ****    hpcd->IN_ep[i].num = i;
 168:Drivers/STM32F0xx_HAL_Driver/Src/stm32f0xx_hal_pcd.c ****    /* Control until ep is actvated */
 169:Drivers/STM32F0xx_HAL_Driver/Src/stm32f0xx_hal_pcd.c ****    hpcd->IN_ep[i].type = PCD_EP_TYPE_CTRL;
 170:Drivers/STM32F0xx_HAL_Driver/Src/stm32f0xx_hal_pcd.c ****    hpcd->IN_ep[i].maxpacket =  0U;
 171:Drivers/STM32F0xx_HAL_Driver/Src/stm32f0xx_hal_pcd.c ****    hpcd->IN_ep[i].xfer_buff = 0U;
 172:Drivers/STM32F0xx_HAL_Driver/Src/stm32f0xx_hal_pcd.c ****    hpcd->IN_ep[i].xfer_len = 0U;
 173:Drivers/STM32F0xx_HAL_Driver/Src/stm32f0xx_hal_pcd.c ****  }
 174:Drivers/STM32F0xx_HAL_Driver/Src/stm32f0xx_hal_pcd.c ****  
 175:Drivers/STM32F0xx_HAL_Driver/Src/stm32f0xx_hal_pcd.c ****  for (i = 0U; i < hpcd->Init.dev_endpoints ; i++)
 176:Drivers/STM32F0xx_HAL_Driver/Src/stm32f0xx_hal_pcd.c ****  {
 177:Drivers/STM32F0xx_HAL_Driver/Src/stm32f0xx_hal_pcd.c ****    hpcd->OUT_ep[i].is_in = 0U;
 178:Drivers/STM32F0xx_HAL_Driver/Src/stm32f0xx_hal_pcd.c ****    hpcd->OUT_ep[i].num = i;
 179:Drivers/STM32F0xx_HAL_Driver/Src/stm32f0xx_hal_pcd.c ****    /* Control until ep is activated */
 180:Drivers/STM32F0xx_HAL_Driver/Src/stm32f0xx_hal_pcd.c ****    hpcd->OUT_ep[i].type = PCD_EP_TYPE_CTRL;
 181:Drivers/STM32F0xx_HAL_Driver/Src/stm32f0xx_hal_pcd.c ****    hpcd->OUT_ep[i].maxpacket = 0U;
 182:Drivers/STM32F0xx_HAL_Driver/Src/stm32f0xx_hal_pcd.c ****    hpcd->OUT_ep[i].xfer_buff = 0U;
 183:Drivers/STM32F0xx_HAL_Driver/Src/stm32f0xx_hal_pcd.c ****    hpcd->OUT_ep[i].xfer_len = 0U;
 184:Drivers/STM32F0xx_HAL_Driver/Src/stm32f0xx_hal_pcd.c ****  }
 185:Drivers/STM32F0xx_HAL_Driver/Src/stm32f0xx_hal_pcd.c ****   
 186:Drivers/STM32F0xx_HAL_Driver/Src/stm32f0xx_hal_pcd.c ****  /* Init Device */
 187:Drivers/STM32F0xx_HAL_Driver/Src/stm32f0xx_hal_pcd.c ****  /*CNTR_FRES = 1*/
 188:Drivers/STM32F0xx_HAL_Driver/Src/stm32f0xx_hal_pcd.c ****  hpcd->Instance->CNTR = USB_CNTR_FRES;
 189:Drivers/STM32F0xx_HAL_Driver/Src/stm32f0xx_hal_pcd.c ****  
 190:Drivers/STM32F0xx_HAL_Driver/Src/stm32f0xx_hal_pcd.c ****  /*CNTR_FRES = 0*/
 191:Drivers/STM32F0xx_HAL_Driver/Src/stm32f0xx_hal_pcd.c ****  hpcd->Instance->CNTR = 0;
 192:Drivers/STM32F0xx_HAL_Driver/Src/stm32f0xx_hal_pcd.c ****  
 193:Drivers/STM32F0xx_HAL_Driver/Src/stm32f0xx_hal_pcd.c ****  /*Clear pending interrupts*/
 194:Drivers/STM32F0xx_HAL_Driver/Src/stm32f0xx_hal_pcd.c ****  hpcd->Instance->ISTR = 0;
 195:Drivers/STM32F0xx_HAL_Driver/Src/stm32f0xx_hal_pcd.c ****  
 196:Drivers/STM32F0xx_HAL_Driver/Src/stm32f0xx_hal_pcd.c ****   /*Set Btable Adress*/
 197:Drivers/STM32F0xx_HAL_Driver/Src/stm32f0xx_hal_pcd.c ****  hpcd->Instance->BTABLE = BTABLE_ADDRESS;
 198:Drivers/STM32F0xx_HAL_Driver/Src/stm32f0xx_hal_pcd.c ****   
 199:Drivers/STM32F0xx_HAL_Driver/Src/stm32f0xx_hal_pcd.c ****   /*set wInterrupt_Mask global variable*/
 200:Drivers/STM32F0xx_HAL_Driver/Src/stm32f0xx_hal_pcd.c ****  wInterrupt_Mask = USB_CNTR_CTRM  | USB_CNTR_WKUPM | USB_CNTR_SUSPM | USB_CNTR_ERRM \
 201:Drivers/STM32F0xx_HAL_Driver/Src/stm32f0xx_hal_pcd.c ****    | USB_CNTR_SOFM | USB_CNTR_ESOFM | USB_CNTR_RESETM;
 202:Drivers/STM32F0xx_HAL_Driver/Src/stm32f0xx_hal_pcd.c ****   
ARM GAS  /tmp/ccHm7VQo.s 			page 5


 203:Drivers/STM32F0xx_HAL_Driver/Src/stm32f0xx_hal_pcd.c ****   /*Set interrupt mask*/
 204:Drivers/STM32F0xx_HAL_Driver/Src/stm32f0xx_hal_pcd.c ****   hpcd->Instance->CNTR = wInterrupt_Mask;
 205:Drivers/STM32F0xx_HAL_Driver/Src/stm32f0xx_hal_pcd.c ****   
 206:Drivers/STM32F0xx_HAL_Driver/Src/stm32f0xx_hal_pcd.c ****   hpcd->USB_Address = 0U;
 207:Drivers/STM32F0xx_HAL_Driver/Src/stm32f0xx_hal_pcd.c ****   hpcd->State= HAL_PCD_STATE_READY;
 208:Drivers/STM32F0xx_HAL_Driver/Src/stm32f0xx_hal_pcd.c **** 
 209:Drivers/STM32F0xx_HAL_Driver/Src/stm32f0xx_hal_pcd.c ****  return HAL_OK;
 210:Drivers/STM32F0xx_HAL_Driver/Src/stm32f0xx_hal_pcd.c **** }
 211:Drivers/STM32F0xx_HAL_Driver/Src/stm32f0xx_hal_pcd.c **** 
 212:Drivers/STM32F0xx_HAL_Driver/Src/stm32f0xx_hal_pcd.c **** /**
 213:Drivers/STM32F0xx_HAL_Driver/Src/stm32f0xx_hal_pcd.c ****   * @brief  DeInitializes the PCD peripheral 
 214:Drivers/STM32F0xx_HAL_Driver/Src/stm32f0xx_hal_pcd.c ****   * @param  hpcd PCD handle
 215:Drivers/STM32F0xx_HAL_Driver/Src/stm32f0xx_hal_pcd.c ****   * @retval HAL status
 216:Drivers/STM32F0xx_HAL_Driver/Src/stm32f0xx_hal_pcd.c ****   */
 217:Drivers/STM32F0xx_HAL_Driver/Src/stm32f0xx_hal_pcd.c **** HAL_StatusTypeDef HAL_PCD_DeInit(PCD_HandleTypeDef *hpcd)
 218:Drivers/STM32F0xx_HAL_Driver/Src/stm32f0xx_hal_pcd.c **** {
 219:Drivers/STM32F0xx_HAL_Driver/Src/stm32f0xx_hal_pcd.c ****   /* Check the PCD handle allocation */
 220:Drivers/STM32F0xx_HAL_Driver/Src/stm32f0xx_hal_pcd.c ****   if(hpcd == NULL)
 221:Drivers/STM32F0xx_HAL_Driver/Src/stm32f0xx_hal_pcd.c ****   {
 222:Drivers/STM32F0xx_HAL_Driver/Src/stm32f0xx_hal_pcd.c ****     return HAL_ERROR;
 223:Drivers/STM32F0xx_HAL_Driver/Src/stm32f0xx_hal_pcd.c ****   }
 224:Drivers/STM32F0xx_HAL_Driver/Src/stm32f0xx_hal_pcd.c **** 
 225:Drivers/STM32F0xx_HAL_Driver/Src/stm32f0xx_hal_pcd.c ****   hpcd->State = HAL_PCD_STATE_BUSY;
 226:Drivers/STM32F0xx_HAL_Driver/Src/stm32f0xx_hal_pcd.c ****   
 227:Drivers/STM32F0xx_HAL_Driver/Src/stm32f0xx_hal_pcd.c ****   /* Stop Device */
 228:Drivers/STM32F0xx_HAL_Driver/Src/stm32f0xx_hal_pcd.c ****   HAL_PCD_Stop(hpcd);
 229:Drivers/STM32F0xx_HAL_Driver/Src/stm32f0xx_hal_pcd.c ****     
 230:Drivers/STM32F0xx_HAL_Driver/Src/stm32f0xx_hal_pcd.c ****   /* DeInit the low level hardware */
 231:Drivers/STM32F0xx_HAL_Driver/Src/stm32f0xx_hal_pcd.c ****   HAL_PCD_MspDeInit(hpcd);
 232:Drivers/STM32F0xx_HAL_Driver/Src/stm32f0xx_hal_pcd.c ****   
 233:Drivers/STM32F0xx_HAL_Driver/Src/stm32f0xx_hal_pcd.c ****   hpcd->State = HAL_PCD_STATE_RESET; 
 234:Drivers/STM32F0xx_HAL_Driver/Src/stm32f0xx_hal_pcd.c ****   
 235:Drivers/STM32F0xx_HAL_Driver/Src/stm32f0xx_hal_pcd.c ****   return HAL_OK;
 236:Drivers/STM32F0xx_HAL_Driver/Src/stm32f0xx_hal_pcd.c **** }
 237:Drivers/STM32F0xx_HAL_Driver/Src/stm32f0xx_hal_pcd.c **** 
 238:Drivers/STM32F0xx_HAL_Driver/Src/stm32f0xx_hal_pcd.c **** /**
 239:Drivers/STM32F0xx_HAL_Driver/Src/stm32f0xx_hal_pcd.c ****   * @brief  Initializes the PCD MSP.
 240:Drivers/STM32F0xx_HAL_Driver/Src/stm32f0xx_hal_pcd.c ****   * @param  hpcd PCD handle
 241:Drivers/STM32F0xx_HAL_Driver/Src/stm32f0xx_hal_pcd.c ****   * @retval None
 242:Drivers/STM32F0xx_HAL_Driver/Src/stm32f0xx_hal_pcd.c ****   */
 243:Drivers/STM32F0xx_HAL_Driver/Src/stm32f0xx_hal_pcd.c **** __weak void HAL_PCD_MspInit(PCD_HandleTypeDef *hpcd)
 244:Drivers/STM32F0xx_HAL_Driver/Src/stm32f0xx_hal_pcd.c **** {
  28              		.loc 1 244 1 view -0
  29              		.cfi_startproc
  30              		@ args = 0, pretend = 0, frame = 0
  31              		@ frame_needed = 0, uses_anonymous_args = 0
  32              		@ link register save eliminated.
 245:Drivers/STM32F0xx_HAL_Driver/Src/stm32f0xx_hal_pcd.c ****   /* Prevent unused argument(s) compilation warning */
 246:Drivers/STM32F0xx_HAL_Driver/Src/stm32f0xx_hal_pcd.c ****   UNUSED(hpcd);
  33              		.loc 1 246 3 view .LVU1
 247:Drivers/STM32F0xx_HAL_Driver/Src/stm32f0xx_hal_pcd.c **** 
 248:Drivers/STM32F0xx_HAL_Driver/Src/stm32f0xx_hal_pcd.c ****   /* NOTE : This function Should not be modified, when the callback is needed,
 249:Drivers/STM32F0xx_HAL_Driver/Src/stm32f0xx_hal_pcd.c ****             the HAL_PCD_MspInit could be implemented in the user file
 250:Drivers/STM32F0xx_HAL_Driver/Src/stm32f0xx_hal_pcd.c ****    */
 251:Drivers/STM32F0xx_HAL_Driver/Src/stm32f0xx_hal_pcd.c **** }
  34              		.loc 1 251 1 is_stmt 0 view .LVU2
  35              		@ sp needed
ARM GAS  /tmp/ccHm7VQo.s 			page 6


  36 0000 7047     		bx	lr
  37              		.cfi_endproc
  38              	.LFE39:
  40              		.section	.text.HAL_PCD_Init,"ax",%progbits
  41              		.align	1
  42              		.global	HAL_PCD_Init
  43              		.syntax unified
  44              		.code	16
  45              		.thumb_func
  46              		.fpu softvfp
  48              	HAL_PCD_Init:
  49              	.LVL1:
  50              	.LFB37:
 137:Drivers/STM32F0xx_HAL_Driver/Src/stm32f0xx_hal_pcd.c ****   uint32_t i = 0U;
  51              		.loc 1 137 1 is_stmt 1 view -0
  52              		.cfi_startproc
  53              		@ args = 0, pretend = 0, frame = 0
  54              		@ frame_needed = 0, uses_anonymous_args = 0
 137:Drivers/STM32F0xx_HAL_Driver/Src/stm32f0xx_hal_pcd.c ****   uint32_t i = 0U;
  55              		.loc 1 137 1 is_stmt 0 view .LVU4
  56 0000 70B5     		push	{r4, r5, r6, lr}
  57              	.LCFI0:
  58              		.cfi_def_cfa_offset 16
  59              		.cfi_offset 4, -16
  60              		.cfi_offset 5, -12
  61              		.cfi_offset 6, -8
  62              		.cfi_offset 14, -4
  63 0002 041E     		subs	r4, r0, #0
 138:Drivers/STM32F0xx_HAL_Driver/Src/stm32f0xx_hal_pcd.c **** 
  64              		.loc 1 138 3 is_stmt 1 view .LVU5
  65              	.LVL2:
 140:Drivers/STM32F0xx_HAL_Driver/Src/stm32f0xx_hal_pcd.c ****   
  66              		.loc 1 140 3 view .LVU6
 143:Drivers/STM32F0xx_HAL_Driver/Src/stm32f0xx_hal_pcd.c ****   {
  67              		.loc 1 143 3 view .LVU7
 143:Drivers/STM32F0xx_HAL_Driver/Src/stm32f0xx_hal_pcd.c ****   {
  68              		.loc 1 143 5 is_stmt 0 view .LVU8
  69 0004 58D0     		beq	.L9
 149:Drivers/STM32F0xx_HAL_Driver/Src/stm32f0xx_hal_pcd.c **** 
  70              		.loc 1 149 3 is_stmt 1 view .LVU9
 151:Drivers/STM32F0xx_HAL_Driver/Src/stm32f0xx_hal_pcd.c ****   {  
  71              		.loc 1 151 3 view .LVU10
 151:Drivers/STM32F0xx_HAL_Driver/Src/stm32f0xx_hal_pcd.c ****   {  
  72              		.loc 1 151 10 is_stmt 0 view .LVU11
  73 0006 EA23     		movs	r3, #234
  74 0008 FF33     		adds	r3, r3, #255
  75 000a C35C     		ldrb	r3, [r0, r3]
 151:Drivers/STM32F0xx_HAL_Driver/Src/stm32f0xx_hal_pcd.c ****   {  
  76              		.loc 1 151 5 view .LVU12
  77 000c 002B     		cmp	r3, #0
  78 000e 1AD0     		beq	.L10
  79              	.LVL3:
  80              	.L4:
 160:Drivers/STM32F0xx_HAL_Driver/Src/stm32f0xx_hal_pcd.c ****  
  81              		.loc 1 160 3 is_stmt 1 view .LVU13
 160:Drivers/STM32F0xx_HAL_Driver/Src/stm32f0xx_hal_pcd.c ****  
  82              		.loc 1 160 15 is_stmt 0 view .LVU14
ARM GAS  /tmp/ccHm7VQo.s 			page 7


  83 0010 EA23     		movs	r3, #234
  84 0012 FF33     		adds	r3, r3, #255
  85 0014 0322     		movs	r2, #3
  86 0016 E254     		strb	r2, [r4, r3]
 163:Drivers/STM32F0xx_HAL_Driver/Src/stm32f0xx_hal_pcd.c ****  {
  87              		.loc 1 163 2 is_stmt 1 view .LVU15
 163:Drivers/STM32F0xx_HAL_Driver/Src/stm32f0xx_hal_pcd.c ****  {
  88              		.loc 1 163 9 is_stmt 0 view .LVU16
  89 0018 0022     		movs	r2, #0
  90              	.LVL4:
  91              	.L5:
 163:Drivers/STM32F0xx_HAL_Driver/Src/stm32f0xx_hal_pcd.c ****  {
  92              		.loc 1 163 29 discriminator 1 view .LVU17
  93 001a 6068     		ldr	r0, [r4, #4]
 163:Drivers/STM32F0xx_HAL_Driver/Src/stm32f0xx_hal_pcd.c ****  {
  94              		.loc 1 163 2 discriminator 1 view .LVU18
  95 001c 9042     		cmp	r0, r2
  96 001e 19D9     		bls	.L11
 166:Drivers/STM32F0xx_HAL_Driver/Src/stm32f0xx_hal_pcd.c ****    hpcd->IN_ep[i].num = i;
  97              		.loc 1 166 4 is_stmt 1 discriminator 3 view .LVU19
 166:Drivers/STM32F0xx_HAL_Driver/Src/stm32f0xx_hal_pcd.c ****    hpcd->IN_ep[i].num = i;
  98              		.loc 1 166 25 is_stmt 0 discriminator 3 view .LVU20
  99 0020 D300     		lsls	r3, r2, #3
 100 0022 9B1A     		subs	r3, r3, r2
 101 0024 9B00     		lsls	r3, r3, #2
 102 0026 E318     		adds	r3, r4, r3
 103 0028 1900     		movs	r1, r3
 104 002a 2931     		adds	r1, r1, #41
 105 002c 0120     		movs	r0, #1
 106 002e 0870     		strb	r0, [r1]
 167:Drivers/STM32F0xx_HAL_Driver/Src/stm32f0xx_hal_pcd.c ****    /* Control until ep is actvated */
 107              		.loc 1 167 4 is_stmt 1 discriminator 3 view .LVU21
 167:Drivers/STM32F0xx_HAL_Driver/Src/stm32f0xx_hal_pcd.c ****    /* Control until ep is actvated */
 108              		.loc 1 167 23 is_stmt 0 discriminator 3 view .LVU22
 109 0030 0139     		subs	r1, r1, #1
 110 0032 0A70     		strb	r2, [r1]
 169:Drivers/STM32F0xx_HAL_Driver/Src/stm32f0xx_hal_pcd.c ****    hpcd->IN_ep[i].maxpacket =  0U;
 111              		.loc 1 169 4 is_stmt 1 discriminator 3 view .LVU23
 169:Drivers/STM32F0xx_HAL_Driver/Src/stm32f0xx_hal_pcd.c ****    hpcd->IN_ep[i].maxpacket =  0U;
 112              		.loc 1 169 24 is_stmt 0 discriminator 3 view .LVU24
 113 0034 1800     		movs	r0, r3
 114 0036 2B30     		adds	r0, r0, #43
 115 0038 0021     		movs	r1, #0
 116 003a 0170     		strb	r1, [r0]
 170:Drivers/STM32F0xx_HAL_Driver/Src/stm32f0xx_hal_pcd.c ****    hpcd->IN_ep[i].xfer_buff = 0U;
 117              		.loc 1 170 4 is_stmt 1 discriminator 3 view .LVU25
 170:Drivers/STM32F0xx_HAL_Driver/Src/stm32f0xx_hal_pcd.c ****    hpcd->IN_ep[i].xfer_buff = 0U;
 118              		.loc 1 170 29 is_stmt 0 discriminator 3 view .LVU26
 119 003c 5963     		str	r1, [r3, #52]
 171:Drivers/STM32F0xx_HAL_Driver/Src/stm32f0xx_hal_pcd.c ****    hpcd->IN_ep[i].xfer_len = 0U;
 120              		.loc 1 171 4 is_stmt 1 discriminator 3 view .LVU27
 171:Drivers/STM32F0xx_HAL_Driver/Src/stm32f0xx_hal_pcd.c ****    hpcd->IN_ep[i].xfer_len = 0U;
 121              		.loc 1 171 29 is_stmt 0 discriminator 3 view .LVU28
 122 003e 9963     		str	r1, [r3, #56]
 172:Drivers/STM32F0xx_HAL_Driver/Src/stm32f0xx_hal_pcd.c ****  }
 123              		.loc 1 172 4 is_stmt 1 discriminator 3 view .LVU29
 172:Drivers/STM32F0xx_HAL_Driver/Src/stm32f0xx_hal_pcd.c ****  }
ARM GAS  /tmp/ccHm7VQo.s 			page 8


 124              		.loc 1 172 28 is_stmt 0 discriminator 3 view .LVU30
 125 0040 D963     		str	r1, [r3, #60]
 163:Drivers/STM32F0xx_HAL_Driver/Src/stm32f0xx_hal_pcd.c ****  {
 126              		.loc 1 163 47 discriminator 3 view .LVU31
 127 0042 0132     		adds	r2, r2, #1
 128              	.LVL5:
 163:Drivers/STM32F0xx_HAL_Driver/Src/stm32f0xx_hal_pcd.c ****  {
 129              		.loc 1 163 47 discriminator 3 view .LVU32
 130 0044 E9E7     		b	.L5
 131              	.LVL6:
 132              	.L10:
 154:Drivers/STM32F0xx_HAL_Driver/Src/stm32f0xx_hal_pcd.c ****   
 133              		.loc 1 154 5 is_stmt 1 view .LVU33
 154:Drivers/STM32F0xx_HAL_Driver/Src/stm32f0xx_hal_pcd.c ****   
 134              		.loc 1 154 16 is_stmt 0 view .LVU34
 135 0046 E933     		adds	r3, r3, #233
 136 0048 FF33     		adds	r3, r3, #255
 137 004a 0022     		movs	r2, #0
 138 004c C254     		strb	r2, [r0, r3]
 157:Drivers/STM32F0xx_HAL_Driver/Src/stm32f0xx_hal_pcd.c ****   }
 139              		.loc 1 157 5 is_stmt 1 view .LVU35
 140 004e FFF7FEFF 		bl	HAL_PCD_MspInit
 141              	.LVL7:
 157:Drivers/STM32F0xx_HAL_Driver/Src/stm32f0xx_hal_pcd.c ****   }
 142              		.loc 1 157 5 is_stmt 0 view .LVU36
 143 0052 DDE7     		b	.L4
 144              	.LVL8:
 145              	.L11:
 175:Drivers/STM32F0xx_HAL_Driver/Src/stm32f0xx_hal_pcd.c ****  {
 146              		.loc 1 175 9 view .LVU37
 147 0054 0022     		movs	r2, #0
 148              	.LVL9:
 175:Drivers/STM32F0xx_HAL_Driver/Src/stm32f0xx_hal_pcd.c ****  {
 149              		.loc 1 175 9 view .LVU38
 150 0056 14E0     		b	.L7
 151              	.LVL10:
 152              	.L8:
 177:Drivers/STM32F0xx_HAL_Driver/Src/stm32f0xx_hal_pcd.c ****    hpcd->OUT_ep[i].num = i;
 153              		.loc 1 177 4 is_stmt 1 discriminator 3 view .LVU39
 177:Drivers/STM32F0xx_HAL_Driver/Src/stm32f0xx_hal_pcd.c ****    hpcd->OUT_ep[i].num = i;
 154              		.loc 1 177 26 is_stmt 0 discriminator 3 view .LVU40
 155 0058 D300     		lsls	r3, r2, #3
 156 005a 9B1A     		subs	r3, r3, r2
 157 005c 9B00     		lsls	r3, r3, #2
 158 005e E318     		adds	r3, r4, r3
 159 0060 1D00     		movs	r5, r3
 160 0062 0A35     		adds	r5, r5, #10
 161 0064 FF35     		adds	r5, r5, #255
 162 0066 0021     		movs	r1, #0
 163 0068 2970     		strb	r1, [r5]
 178:Drivers/STM32F0xx_HAL_Driver/Src/stm32f0xx_hal_pcd.c ****    /* Control until ep is activated */
 164              		.loc 1 178 4 is_stmt 1 discriminator 3 view .LVU41
 178:Drivers/STM32F0xx_HAL_Driver/Src/stm32f0xx_hal_pcd.c ****    /* Control until ep is activated */
 165              		.loc 1 178 24 is_stmt 0 discriminator 3 view .LVU42
 166 006a 013D     		subs	r5, r5, #1
 167 006c 2A70     		strb	r2, [r5]
 180:Drivers/STM32F0xx_HAL_Driver/Src/stm32f0xx_hal_pcd.c ****    hpcd->OUT_ep[i].maxpacket = 0U;
ARM GAS  /tmp/ccHm7VQo.s 			page 9


 168              		.loc 1 180 4 is_stmt 1 discriminator 3 view .LVU43
 180:Drivers/STM32F0xx_HAL_Driver/Src/stm32f0xx_hal_pcd.c ****    hpcd->OUT_ep[i].maxpacket = 0U;
 169              		.loc 1 180 25 is_stmt 0 discriminator 3 view .LVU44
 170 006e 0335     		adds	r5, r5, #3
 171 0070 2970     		strb	r1, [r5]
 181:Drivers/STM32F0xx_HAL_Driver/Src/stm32f0xx_hal_pcd.c ****    hpcd->OUT_ep[i].xfer_buff = 0U;
 172              		.loc 1 181 4 is_stmt 1 discriminator 3 view .LVU45
 181:Drivers/STM32F0xx_HAL_Driver/Src/stm32f0xx_hal_pcd.c ****    hpcd->OUT_ep[i].xfer_buff = 0U;
 173              		.loc 1 181 30 is_stmt 0 discriminator 3 view .LVU46
 174 0072 0935     		adds	r5, r5, #9
 175 0074 2960     		str	r1, [r5]
 182:Drivers/STM32F0xx_HAL_Driver/Src/stm32f0xx_hal_pcd.c ****    hpcd->OUT_ep[i].xfer_len = 0U;
 176              		.loc 1 182 4 is_stmt 1 discriminator 3 view .LVU47
 182:Drivers/STM32F0xx_HAL_Driver/Src/stm32f0xx_hal_pcd.c ****    hpcd->OUT_ep[i].xfer_len = 0U;
 177              		.loc 1 182 30 is_stmt 0 discriminator 3 view .LVU48
 178 0076 0435     		adds	r5, r5, #4
 179 0078 2960     		str	r1, [r5]
 183:Drivers/STM32F0xx_HAL_Driver/Src/stm32f0xx_hal_pcd.c ****  }
 180              		.loc 1 183 4 is_stmt 1 discriminator 3 view .LVU49
 183:Drivers/STM32F0xx_HAL_Driver/Src/stm32f0xx_hal_pcd.c ****  }
 181              		.loc 1 183 29 is_stmt 0 discriminator 3 view .LVU50
 182 007a 1D33     		adds	r3, r3, #29
 183 007c FF33     		adds	r3, r3, #255
 184 007e 1960     		str	r1, [r3]
 175:Drivers/STM32F0xx_HAL_Driver/Src/stm32f0xx_hal_pcd.c ****  {
 185              		.loc 1 175 47 discriminator 3 view .LVU51
 186 0080 0132     		adds	r2, r2, #1
 187              	.LVL11:
 188              	.L7:
 175:Drivers/STM32F0xx_HAL_Driver/Src/stm32f0xx_hal_pcd.c ****  {
 189              		.loc 1 175 2 discriminator 1 view .LVU52
 190 0082 9042     		cmp	r0, r2
 191 0084 E8D8     		bhi	.L8
 188:Drivers/STM32F0xx_HAL_Driver/Src/stm32f0xx_hal_pcd.c ****  
 192              		.loc 1 188 2 is_stmt 1 view .LVU53
 188:Drivers/STM32F0xx_HAL_Driver/Src/stm32f0xx_hal_pcd.c ****  
 193              		.loc 1 188 23 is_stmt 0 view .LVU54
 194 0086 4023     		movs	r3, #64
 195 0088 0122     		movs	r2, #1
 196              	.LVL12:
 188:Drivers/STM32F0xx_HAL_Driver/Src/stm32f0xx_hal_pcd.c ****  
 197              		.loc 1 188 23 view .LVU55
 198 008a 2168     		ldr	r1, [r4]
 199 008c CA52     		strh	r2, [r1, r3]
 191:Drivers/STM32F0xx_HAL_Driver/Src/stm32f0xx_hal_pcd.c ****  
 200              		.loc 1 191 2 is_stmt 1 view .LVU56
 191:Drivers/STM32F0xx_HAL_Driver/Src/stm32f0xx_hal_pcd.c ****  
 201              		.loc 1 191 23 is_stmt 0 view .LVU57
 202 008e 0022     		movs	r2, #0
 203 0090 2168     		ldr	r1, [r4]
 204 0092 CA52     		strh	r2, [r1, r3]
 194:Drivers/STM32F0xx_HAL_Driver/Src/stm32f0xx_hal_pcd.c ****  
 205              		.loc 1 194 2 is_stmt 1 view .LVU58
 194:Drivers/STM32F0xx_HAL_Driver/Src/stm32f0xx_hal_pcd.c ****  
 206              		.loc 1 194 23 is_stmt 0 view .LVU59
 207 0094 4421     		movs	r1, #68
 208 0096 2068     		ldr	r0, [r4]
ARM GAS  /tmp/ccHm7VQo.s 			page 10


 209 0098 4252     		strh	r2, [r0, r1]
 197:Drivers/STM32F0xx_HAL_Driver/Src/stm32f0xx_hal_pcd.c ****   
 210              		.loc 1 197 2 is_stmt 1 view .LVU60
 197:Drivers/STM32F0xx_HAL_Driver/Src/stm32f0xx_hal_pcd.c ****   
 211              		.loc 1 197 25 is_stmt 0 view .LVU61
 212 009a 0C31     		adds	r1, r1, #12
 213 009c 2068     		ldr	r0, [r4]
 214 009e 4252     		strh	r2, [r0, r1]
 200:Drivers/STM32F0xx_HAL_Driver/Src/stm32f0xx_hal_pcd.c ****    | USB_CNTR_SOFM | USB_CNTR_ESOFM | USB_CNTR_RESETM;
 215              		.loc 1 200 2 is_stmt 1 view .LVU62
 216              	.LVL13:
 204:Drivers/STM32F0xx_HAL_Driver/Src/stm32f0xx_hal_pcd.c ****   
 217              		.loc 1 204 3 view .LVU63
 204:Drivers/STM32F0xx_HAL_Driver/Src/stm32f0xx_hal_pcd.c ****   
 218              		.loc 1 204 24 is_stmt 0 view .LVU64
 219 00a0 064A     		ldr	r2, .L12
 220 00a2 2168     		ldr	r1, [r4]
 221 00a4 CA52     		strh	r2, [r1, r3]
 206:Drivers/STM32F0xx_HAL_Driver/Src/stm32f0xx_hal_pcd.c ****   hpcd->State= HAL_PCD_STATE_READY;
 222              		.loc 1 206 3 is_stmt 1 view .LVU65
 206:Drivers/STM32F0xx_HAL_Driver/Src/stm32f0xx_hal_pcd.c ****   hpcd->State= HAL_PCD_STATE_READY;
 223              		.loc 1 206 21 is_stmt 0 view .LVU66
 224 00a6 0022     		movs	r2, #0
 225 00a8 1C3B     		subs	r3, r3, #28
 226 00aa E254     		strb	r2, [r4, r3]
 207:Drivers/STM32F0xx_HAL_Driver/Src/stm32f0xx_hal_pcd.c **** 
 227              		.loc 1 207 3 is_stmt 1 view .LVU67
 207:Drivers/STM32F0xx_HAL_Driver/Src/stm32f0xx_hal_pcd.c **** 
 228              		.loc 1 207 14 is_stmt 0 view .LVU68
 229 00ac 0122     		movs	r2, #1
 230 00ae EA23     		movs	r3, #234
 231 00b0 FF33     		adds	r3, r3, #255
 232 00b2 E254     		strb	r2, [r4, r3]
 209:Drivers/STM32F0xx_HAL_Driver/Src/stm32f0xx_hal_pcd.c **** }
 233              		.loc 1 209 2 is_stmt 1 view .LVU69
 209:Drivers/STM32F0xx_HAL_Driver/Src/stm32f0xx_hal_pcd.c **** }
 234              		.loc 1 209 9 is_stmt 0 view .LVU70
 235 00b4 0020     		movs	r0, #0
 236              	.LVL14:
 237              	.L3:
 210:Drivers/STM32F0xx_HAL_Driver/Src/stm32f0xx_hal_pcd.c **** 
 238              		.loc 1 210 1 view .LVU71
 239              		@ sp needed
 240              	.LVL15:
 210:Drivers/STM32F0xx_HAL_Driver/Src/stm32f0xx_hal_pcd.c **** 
 241              		.loc 1 210 1 view .LVU72
 242 00b6 70BD     		pop	{r4, r5, r6, pc}
 243              	.LVL16:
 244              	.L9:
 145:Drivers/STM32F0xx_HAL_Driver/Src/stm32f0xx_hal_pcd.c ****   }
 245              		.loc 1 145 12 view .LVU73
 246 00b8 0120     		movs	r0, #1
 247              	.LVL17:
 145:Drivers/STM32F0xx_HAL_Driver/Src/stm32f0xx_hal_pcd.c ****   }
 248              		.loc 1 145 12 view .LVU74
 249 00ba FCE7     		b	.L3
 250              	.L13:
ARM GAS  /tmp/ccHm7VQo.s 			page 11


 251              		.align	2
 252              	.L12:
 253 00bc 00BFFFFF 		.word	-16640
 254              		.cfi_endproc
 255              	.LFE37:
 257              		.section	.text.HAL_PCD_MspDeInit,"ax",%progbits
 258              		.align	1
 259              		.weak	HAL_PCD_MspDeInit
 260              		.syntax unified
 261              		.code	16
 262              		.thumb_func
 263              		.fpu softvfp
 265              	HAL_PCD_MspDeInit:
 266              	.LVL18:
 267              	.LFB40:
 252:Drivers/STM32F0xx_HAL_Driver/Src/stm32f0xx_hal_pcd.c **** 
 253:Drivers/STM32F0xx_HAL_Driver/Src/stm32f0xx_hal_pcd.c **** /**
 254:Drivers/STM32F0xx_HAL_Driver/Src/stm32f0xx_hal_pcd.c ****   * @brief  DeInitializes PCD MSP.
 255:Drivers/STM32F0xx_HAL_Driver/Src/stm32f0xx_hal_pcd.c ****   * @param  hpcd PCD handle
 256:Drivers/STM32F0xx_HAL_Driver/Src/stm32f0xx_hal_pcd.c ****   * @retval None
 257:Drivers/STM32F0xx_HAL_Driver/Src/stm32f0xx_hal_pcd.c ****   */
 258:Drivers/STM32F0xx_HAL_Driver/Src/stm32f0xx_hal_pcd.c **** __weak void HAL_PCD_MspDeInit(PCD_HandleTypeDef *hpcd)
 259:Drivers/STM32F0xx_HAL_Driver/Src/stm32f0xx_hal_pcd.c **** {
 268              		.loc 1 259 1 is_stmt 1 view -0
 269              		.cfi_startproc
 270              		@ args = 0, pretend = 0, frame = 0
 271              		@ frame_needed = 0, uses_anonymous_args = 0
 272              		@ link register save eliminated.
 260:Drivers/STM32F0xx_HAL_Driver/Src/stm32f0xx_hal_pcd.c ****   /* Prevent unused argument(s) compilation warning */
 261:Drivers/STM32F0xx_HAL_Driver/Src/stm32f0xx_hal_pcd.c ****   UNUSED(hpcd);
 273              		.loc 1 261 3 view .LVU76
 262:Drivers/STM32F0xx_HAL_Driver/Src/stm32f0xx_hal_pcd.c **** 
 263:Drivers/STM32F0xx_HAL_Driver/Src/stm32f0xx_hal_pcd.c ****   /* NOTE : This function Should not be modified, when the callback is needed,
 264:Drivers/STM32F0xx_HAL_Driver/Src/stm32f0xx_hal_pcd.c ****             the HAL_PCD_MspDeInit could be implemented in the user file
 265:Drivers/STM32F0xx_HAL_Driver/Src/stm32f0xx_hal_pcd.c ****    */
 266:Drivers/STM32F0xx_HAL_Driver/Src/stm32f0xx_hal_pcd.c **** }
 274              		.loc 1 266 1 is_stmt 0 view .LVU77
 275              		@ sp needed
 276 0000 7047     		bx	lr
 277              		.cfi_endproc
 278              	.LFE40:
 280              		.section	.text.HAL_PCD_Start,"ax",%progbits
 281              		.align	1
 282              		.global	HAL_PCD_Start
 283              		.syntax unified
 284              		.code	16
 285              		.thumb_func
 286              		.fpu softvfp
 288              	HAL_PCD_Start:
 289              	.LVL19:
 290              	.LFB41:
 267:Drivers/STM32F0xx_HAL_Driver/Src/stm32f0xx_hal_pcd.c **** 
 268:Drivers/STM32F0xx_HAL_Driver/Src/stm32f0xx_hal_pcd.c **** /**
 269:Drivers/STM32F0xx_HAL_Driver/Src/stm32f0xx_hal_pcd.c ****   * @}
 270:Drivers/STM32F0xx_HAL_Driver/Src/stm32f0xx_hal_pcd.c ****   */
 271:Drivers/STM32F0xx_HAL_Driver/Src/stm32f0xx_hal_pcd.c **** 
 272:Drivers/STM32F0xx_HAL_Driver/Src/stm32f0xx_hal_pcd.c **** /** @defgroup PCD_Exported_Functions_Group2 IO operation functions 
ARM GAS  /tmp/ccHm7VQo.s 			page 12


 273:Drivers/STM32F0xx_HAL_Driver/Src/stm32f0xx_hal_pcd.c ****  *  @brief   Data transfers functions 
 274:Drivers/STM32F0xx_HAL_Driver/Src/stm32f0xx_hal_pcd.c ****  *
 275:Drivers/STM32F0xx_HAL_Driver/Src/stm32f0xx_hal_pcd.c **** @verbatim   
 276:Drivers/STM32F0xx_HAL_Driver/Src/stm32f0xx_hal_pcd.c ****  ===============================================================================
 277:Drivers/STM32F0xx_HAL_Driver/Src/stm32f0xx_hal_pcd.c ****                       ##### IO operation functions #####
 278:Drivers/STM32F0xx_HAL_Driver/Src/stm32f0xx_hal_pcd.c ****  ===============================================================================  
 279:Drivers/STM32F0xx_HAL_Driver/Src/stm32f0xx_hal_pcd.c ****     [..]
 280:Drivers/STM32F0xx_HAL_Driver/Src/stm32f0xx_hal_pcd.c ****     This subsection provides a set of functions allowing to manage the PCD data 
 281:Drivers/STM32F0xx_HAL_Driver/Src/stm32f0xx_hal_pcd.c ****     transfers.
 282:Drivers/STM32F0xx_HAL_Driver/Src/stm32f0xx_hal_pcd.c **** 
 283:Drivers/STM32F0xx_HAL_Driver/Src/stm32f0xx_hal_pcd.c **** @endverbatim
 284:Drivers/STM32F0xx_HAL_Driver/Src/stm32f0xx_hal_pcd.c ****   * @{
 285:Drivers/STM32F0xx_HAL_Driver/Src/stm32f0xx_hal_pcd.c ****   */
 286:Drivers/STM32F0xx_HAL_Driver/Src/stm32f0xx_hal_pcd.c ****   
 287:Drivers/STM32F0xx_HAL_Driver/Src/stm32f0xx_hal_pcd.c **** /**
 288:Drivers/STM32F0xx_HAL_Driver/Src/stm32f0xx_hal_pcd.c ****   * @brief  Start the USB device.
 289:Drivers/STM32F0xx_HAL_Driver/Src/stm32f0xx_hal_pcd.c ****   * @param  hpcd PCD handle
 290:Drivers/STM32F0xx_HAL_Driver/Src/stm32f0xx_hal_pcd.c ****   * @retval HAL status
 291:Drivers/STM32F0xx_HAL_Driver/Src/stm32f0xx_hal_pcd.c ****   */
 292:Drivers/STM32F0xx_HAL_Driver/Src/stm32f0xx_hal_pcd.c **** HAL_StatusTypeDef HAL_PCD_Start(PCD_HandleTypeDef *hpcd)
 293:Drivers/STM32F0xx_HAL_Driver/Src/stm32f0xx_hal_pcd.c **** { 
 291              		.loc 1 293 1 is_stmt 1 view -0
 292              		.cfi_startproc
 293              		@ args = 0, pretend = 0, frame = 0
 294              		@ frame_needed = 0, uses_anonymous_args = 0
 295              		@ link register save eliminated.
 294:Drivers/STM32F0xx_HAL_Driver/Src/stm32f0xx_hal_pcd.c ****   /* Enabling DP Pull-Down bit to Connect internal pull-up on USB DP line */
 295:Drivers/STM32F0xx_HAL_Driver/Src/stm32f0xx_hal_pcd.c ****   hpcd->Instance->BCDR |= USB_BCDR_DPPU;
 296              		.loc 1 295 3 view .LVU79
 297              		.loc 1 295 7 is_stmt 0 view .LVU80
 298 0000 0168     		ldr	r1, [r0]
 299              		.loc 1 295 24 view .LVU81
 300 0002 5822     		movs	r2, #88
 301 0004 8B5A     		ldrh	r3, [r1, r2]
 302 0006 0348     		ldr	r0, .L16
 303              	.LVL20:
 304              		.loc 1 295 24 view .LVU82
 305 0008 0343     		orrs	r3, r0
 306 000a 9BB2     		uxth	r3, r3
 307 000c 8B52     		strh	r3, [r1, r2]
 296:Drivers/STM32F0xx_HAL_Driver/Src/stm32f0xx_hal_pcd.c ****   
 297:Drivers/STM32F0xx_HAL_Driver/Src/stm32f0xx_hal_pcd.c ****   return HAL_OK;
 308              		.loc 1 297 3 is_stmt 1 view .LVU83
 298:Drivers/STM32F0xx_HAL_Driver/Src/stm32f0xx_hal_pcd.c **** }
 309              		.loc 1 298 1 is_stmt 0 view .LVU84
 310 000e 0020     		movs	r0, #0
 311              		@ sp needed
 312 0010 7047     		bx	lr
 313              	.L17:
 314 0012 C046     		.align	2
 315              	.L16:
 316 0014 0080FFFF 		.word	-32768
 317              		.cfi_endproc
 318              	.LFE41:
 320              		.section	.text.HAL_PCD_Stop,"ax",%progbits
 321              		.align	1
 322              		.global	HAL_PCD_Stop
ARM GAS  /tmp/ccHm7VQo.s 			page 13


 323              		.syntax unified
 324              		.code	16
 325              		.thumb_func
 326              		.fpu softvfp
 328              	HAL_PCD_Stop:
 329              	.LVL21:
 330              	.LFB42:
 299:Drivers/STM32F0xx_HAL_Driver/Src/stm32f0xx_hal_pcd.c **** 
 300:Drivers/STM32F0xx_HAL_Driver/Src/stm32f0xx_hal_pcd.c **** /**
 301:Drivers/STM32F0xx_HAL_Driver/Src/stm32f0xx_hal_pcd.c ****   * @brief  Stop the USB device.
 302:Drivers/STM32F0xx_HAL_Driver/Src/stm32f0xx_hal_pcd.c ****   * @param  hpcd PCD handle
 303:Drivers/STM32F0xx_HAL_Driver/Src/stm32f0xx_hal_pcd.c ****   * @retval HAL status
 304:Drivers/STM32F0xx_HAL_Driver/Src/stm32f0xx_hal_pcd.c ****   */
 305:Drivers/STM32F0xx_HAL_Driver/Src/stm32f0xx_hal_pcd.c **** HAL_StatusTypeDef HAL_PCD_Stop(PCD_HandleTypeDef *hpcd)
 306:Drivers/STM32F0xx_HAL_Driver/Src/stm32f0xx_hal_pcd.c **** { 
 331              		.loc 1 306 1 is_stmt 1 view -0
 332              		.cfi_startproc
 333              		@ args = 0, pretend = 0, frame = 0
 334              		@ frame_needed = 0, uses_anonymous_args = 0
 335              		.loc 1 306 1 is_stmt 0 view .LVU86
 336 0000 10B5     		push	{r4, lr}
 337              	.LCFI1:
 338              		.cfi_def_cfa_offset 8
 339              		.cfi_offset 4, -8
 340              		.cfi_offset 14, -4
 307:Drivers/STM32F0xx_HAL_Driver/Src/stm32f0xx_hal_pcd.c ****   __HAL_LOCK(hpcd); 
 341              		.loc 1 307 3 is_stmt 1 view .LVU87
 342              		.loc 1 307 3 view .LVU88
 343 0002 F423     		movs	r3, #244
 344 0004 5B00     		lsls	r3, r3, #1
 345 0006 C35C     		ldrb	r3, [r0, r3]
 346 0008 012B     		cmp	r3, #1
 347 000a 10D0     		beq	.L20
 348              		.loc 1 307 3 discriminator 2 view .LVU89
 308:Drivers/STM32F0xx_HAL_Driver/Src/stm32f0xx_hal_pcd.c ****   
 309:Drivers/STM32F0xx_HAL_Driver/Src/stm32f0xx_hal_pcd.c ****     /* disable all interrupts and force USB reset */
 310:Drivers/STM32F0xx_HAL_Driver/Src/stm32f0xx_hal_pcd.c ****   hpcd->Instance->CNTR = USB_CNTR_FRES;
 349              		.loc 1 310 3 discriminator 2 view .LVU90
 350              		.loc 1 310 24 is_stmt 0 discriminator 2 view .LVU91
 351 000c 4023     		movs	r3, #64
 352 000e 0122     		movs	r2, #1
 353 0010 0168     		ldr	r1, [r0]
 354 0012 CA52     		strh	r2, [r1, r3]
 311:Drivers/STM32F0xx_HAL_Driver/Src/stm32f0xx_hal_pcd.c ****   
 312:Drivers/STM32F0xx_HAL_Driver/Src/stm32f0xx_hal_pcd.c ****   /* clear interrupt status register */
 313:Drivers/STM32F0xx_HAL_Driver/Src/stm32f0xx_hal_pcd.c ****   hpcd->Instance->ISTR = 0;
 355              		.loc 1 313 3 is_stmt 1 discriminator 2 view .LVU92
 356              		.loc 1 313 24 is_stmt 0 discriminator 2 view .LVU93
 357 0014 4332     		adds	r2, r2, #67
 358 0016 0021     		movs	r1, #0
 359 0018 0468     		ldr	r4, [r0]
 360 001a A152     		strh	r1, [r4, r2]
 314:Drivers/STM32F0xx_HAL_Driver/Src/stm32f0xx_hal_pcd.c ****   
 315:Drivers/STM32F0xx_HAL_Driver/Src/stm32f0xx_hal_pcd.c ****   /* switch-off device */
 316:Drivers/STM32F0xx_HAL_Driver/Src/stm32f0xx_hal_pcd.c ****   hpcd->Instance->CNTR = (USB_CNTR_FRES | USB_CNTR_PDWN);
 361              		.loc 1 316 3 is_stmt 1 discriminator 2 view .LVU94
 362              		.loc 1 316 24 is_stmt 0 discriminator 2 view .LVU95
ARM GAS  /tmp/ccHm7VQo.s 			page 14


 363 001c 413A     		subs	r2, r2, #65
 364 001e 0168     		ldr	r1, [r0]
 365 0020 CA52     		strh	r2, [r1, r3]
 317:Drivers/STM32F0xx_HAL_Driver/Src/stm32f0xx_hal_pcd.c ****   
 318:Drivers/STM32F0xx_HAL_Driver/Src/stm32f0xx_hal_pcd.c ****   __HAL_UNLOCK(hpcd); 
 366              		.loc 1 318 3 is_stmt 1 discriminator 2 view .LVU96
 367              		.loc 1 318 3 discriminator 2 view .LVU97
 368 0022 0022     		movs	r2, #0
 369 0024 A933     		adds	r3, r3, #169
 370 0026 FF33     		adds	r3, r3, #255
 371 0028 C254     		strb	r2, [r0, r3]
 319:Drivers/STM32F0xx_HAL_Driver/Src/stm32f0xx_hal_pcd.c ****   return HAL_OK;
 372              		.loc 1 319 3 discriminator 2 view .LVU98
 373              		.loc 1 319 10 is_stmt 0 discriminator 2 view .LVU99
 374 002a 0020     		movs	r0, #0
 375              	.LVL22:
 376              	.L19:
 320:Drivers/STM32F0xx_HAL_Driver/Src/stm32f0xx_hal_pcd.c **** }
 377              		.loc 1 320 1 view .LVU100
 378              		@ sp needed
 379 002c 10BD     		pop	{r4, pc}
 380              	.LVL23:
 381              	.L20:
 307:Drivers/STM32F0xx_HAL_Driver/Src/stm32f0xx_hal_pcd.c ****   
 382              		.loc 1 307 3 view .LVU101
 383 002e 0220     		movs	r0, #2
 384              	.LVL24:
 307:Drivers/STM32F0xx_HAL_Driver/Src/stm32f0xx_hal_pcd.c ****   
 385              		.loc 1 307 3 view .LVU102
 386 0030 FCE7     		b	.L19
 387              		.cfi_endproc
 388              	.LFE42:
 390              		.section	.text.HAL_PCD_DeInit,"ax",%progbits
 391              		.align	1
 392              		.global	HAL_PCD_DeInit
 393              		.syntax unified
 394              		.code	16
 395              		.thumb_func
 396              		.fpu softvfp
 398              	HAL_PCD_DeInit:
 399              	.LVL25:
 400              	.LFB38:
 218:Drivers/STM32F0xx_HAL_Driver/Src/stm32f0xx_hal_pcd.c ****   /* Check the PCD handle allocation */
 401              		.loc 1 218 1 is_stmt 1 view -0
 402              		.cfi_startproc
 403              		@ args = 0, pretend = 0, frame = 0
 404              		@ frame_needed = 0, uses_anonymous_args = 0
 218:Drivers/STM32F0xx_HAL_Driver/Src/stm32f0xx_hal_pcd.c ****   /* Check the PCD handle allocation */
 405              		.loc 1 218 1 is_stmt 0 view .LVU104
 406 0000 70B5     		push	{r4, r5, r6, lr}
 407              	.LCFI2:
 408              		.cfi_def_cfa_offset 16
 409              		.cfi_offset 4, -16
 410              		.cfi_offset 5, -12
 411              		.cfi_offset 6, -8
 412              		.cfi_offset 14, -4
 413 0002 041E     		subs	r4, r0, #0
ARM GAS  /tmp/ccHm7VQo.s 			page 15


 220:Drivers/STM32F0xx_HAL_Driver/Src/stm32f0xx_hal_pcd.c ****   {
 414              		.loc 1 220 3 is_stmt 1 view .LVU105
 220:Drivers/STM32F0xx_HAL_Driver/Src/stm32f0xx_hal_pcd.c ****   {
 415              		.loc 1 220 5 is_stmt 0 view .LVU106
 416 0004 0CD0     		beq	.L23
 225:Drivers/STM32F0xx_HAL_Driver/Src/stm32f0xx_hal_pcd.c ****   
 417              		.loc 1 225 3 is_stmt 1 view .LVU107
 225:Drivers/STM32F0xx_HAL_Driver/Src/stm32f0xx_hal_pcd.c ****   
 418              		.loc 1 225 15 is_stmt 0 view .LVU108
 419 0006 EA25     		movs	r5, #234
 420 0008 FF35     		adds	r5, r5, #255
 421 000a 0323     		movs	r3, #3
 422 000c 4355     		strb	r3, [r0, r5]
 228:Drivers/STM32F0xx_HAL_Driver/Src/stm32f0xx_hal_pcd.c ****     
 423              		.loc 1 228 3 is_stmt 1 view .LVU109
 424 000e FFF7FEFF 		bl	HAL_PCD_Stop
 425              	.LVL26:
 231:Drivers/STM32F0xx_HAL_Driver/Src/stm32f0xx_hal_pcd.c ****   
 426              		.loc 1 231 3 view .LVU110
 427 0012 2000     		movs	r0, r4
 428 0014 FFF7FEFF 		bl	HAL_PCD_MspDeInit
 429              	.LVL27:
 233:Drivers/STM32F0xx_HAL_Driver/Src/stm32f0xx_hal_pcd.c ****   
 430              		.loc 1 233 3 view .LVU111
 233:Drivers/STM32F0xx_HAL_Driver/Src/stm32f0xx_hal_pcd.c ****   
 431              		.loc 1 233 15 is_stmt 0 view .LVU112
 432 0018 0023     		movs	r3, #0
 433 001a 6355     		strb	r3, [r4, r5]
 235:Drivers/STM32F0xx_HAL_Driver/Src/stm32f0xx_hal_pcd.c **** }
 434              		.loc 1 235 3 is_stmt 1 view .LVU113
 235:Drivers/STM32F0xx_HAL_Driver/Src/stm32f0xx_hal_pcd.c **** }
 435              		.loc 1 235 10 is_stmt 0 view .LVU114
 436 001c 0020     		movs	r0, #0
 437              	.L22:
 236:Drivers/STM32F0xx_HAL_Driver/Src/stm32f0xx_hal_pcd.c **** 
 438              		.loc 1 236 1 view .LVU115
 439              		@ sp needed
 440              	.LVL28:
 236:Drivers/STM32F0xx_HAL_Driver/Src/stm32f0xx_hal_pcd.c **** 
 441              		.loc 1 236 1 view .LVU116
 442 001e 70BD     		pop	{r4, r5, r6, pc}
 443              	.LVL29:
 444              	.L23:
 222:Drivers/STM32F0xx_HAL_Driver/Src/stm32f0xx_hal_pcd.c ****   }
 445              		.loc 1 222 12 view .LVU117
 446 0020 0120     		movs	r0, #1
 447              	.LVL30:
 222:Drivers/STM32F0xx_HAL_Driver/Src/stm32f0xx_hal_pcd.c ****   }
 448              		.loc 1 222 12 view .LVU118
 449 0022 FCE7     		b	.L22
 450              		.cfi_endproc
 451              	.LFE38:
 453              		.section	.text.HAL_PCD_DataOutStageCallback,"ax",%progbits
 454              		.align	1
 455              		.weak	HAL_PCD_DataOutStageCallback
 456              		.syntax unified
 457              		.code	16
ARM GAS  /tmp/ccHm7VQo.s 			page 16


 458              		.thumb_func
 459              		.fpu softvfp
 461              	HAL_PCD_DataOutStageCallback:
 462              	.LVL31:
 463              	.LFB44:
 321:Drivers/STM32F0xx_HAL_Driver/Src/stm32f0xx_hal_pcd.c **** 
 322:Drivers/STM32F0xx_HAL_Driver/Src/stm32f0xx_hal_pcd.c **** /**
 323:Drivers/STM32F0xx_HAL_Driver/Src/stm32f0xx_hal_pcd.c ****   * @brief  This function handles PCD interrupt request.
 324:Drivers/STM32F0xx_HAL_Driver/Src/stm32f0xx_hal_pcd.c ****   * @param  hpcd PCD handle
 325:Drivers/STM32F0xx_HAL_Driver/Src/stm32f0xx_hal_pcd.c ****   * @retval HAL status
 326:Drivers/STM32F0xx_HAL_Driver/Src/stm32f0xx_hal_pcd.c ****   */
 327:Drivers/STM32F0xx_HAL_Driver/Src/stm32f0xx_hal_pcd.c **** void HAL_PCD_IRQHandler(PCD_HandleTypeDef *hpcd)
 328:Drivers/STM32F0xx_HAL_Driver/Src/stm32f0xx_hal_pcd.c **** {
 329:Drivers/STM32F0xx_HAL_Driver/Src/stm32f0xx_hal_pcd.c ****   uint32_t wInterrupt_Mask = 0U;
 330:Drivers/STM32F0xx_HAL_Driver/Src/stm32f0xx_hal_pcd.c ****   
 331:Drivers/STM32F0xx_HAL_Driver/Src/stm32f0xx_hal_pcd.c ****   if (__HAL_PCD_GET_FLAG (hpcd, USB_ISTR_CTR))
 332:Drivers/STM32F0xx_HAL_Driver/Src/stm32f0xx_hal_pcd.c ****   {
 333:Drivers/STM32F0xx_HAL_Driver/Src/stm32f0xx_hal_pcd.c ****     /* servicing of the endpoint correct transfer interrupt */
 334:Drivers/STM32F0xx_HAL_Driver/Src/stm32f0xx_hal_pcd.c ****     /* clear of the CTR flag into the sub */
 335:Drivers/STM32F0xx_HAL_Driver/Src/stm32f0xx_hal_pcd.c ****     PCD_EP_ISR_Handler(hpcd);
 336:Drivers/STM32F0xx_HAL_Driver/Src/stm32f0xx_hal_pcd.c ****   }
 337:Drivers/STM32F0xx_HAL_Driver/Src/stm32f0xx_hal_pcd.c **** 
 338:Drivers/STM32F0xx_HAL_Driver/Src/stm32f0xx_hal_pcd.c ****   if (__HAL_PCD_GET_FLAG (hpcd, USB_ISTR_RESET))
 339:Drivers/STM32F0xx_HAL_Driver/Src/stm32f0xx_hal_pcd.c ****   {
 340:Drivers/STM32F0xx_HAL_Driver/Src/stm32f0xx_hal_pcd.c ****     __HAL_PCD_CLEAR_FLAG(hpcd, USB_ISTR_RESET);
 341:Drivers/STM32F0xx_HAL_Driver/Src/stm32f0xx_hal_pcd.c ****     HAL_PCD_ResetCallback(hpcd);
 342:Drivers/STM32F0xx_HAL_Driver/Src/stm32f0xx_hal_pcd.c ****     HAL_PCD_SetAddress(hpcd, 0U);
 343:Drivers/STM32F0xx_HAL_Driver/Src/stm32f0xx_hal_pcd.c ****   }
 344:Drivers/STM32F0xx_HAL_Driver/Src/stm32f0xx_hal_pcd.c **** 
 345:Drivers/STM32F0xx_HAL_Driver/Src/stm32f0xx_hal_pcd.c ****   if (__HAL_PCD_GET_FLAG (hpcd, USB_ISTR_PMAOVR))
 346:Drivers/STM32F0xx_HAL_Driver/Src/stm32f0xx_hal_pcd.c ****   {
 347:Drivers/STM32F0xx_HAL_Driver/Src/stm32f0xx_hal_pcd.c ****     __HAL_PCD_CLEAR_FLAG(hpcd, USB_ISTR_PMAOVR);    
 348:Drivers/STM32F0xx_HAL_Driver/Src/stm32f0xx_hal_pcd.c ****   }
 349:Drivers/STM32F0xx_HAL_Driver/Src/stm32f0xx_hal_pcd.c **** 
 350:Drivers/STM32F0xx_HAL_Driver/Src/stm32f0xx_hal_pcd.c ****   if (__HAL_PCD_GET_FLAG (hpcd, USB_ISTR_ERR))
 351:Drivers/STM32F0xx_HAL_Driver/Src/stm32f0xx_hal_pcd.c ****   {
 352:Drivers/STM32F0xx_HAL_Driver/Src/stm32f0xx_hal_pcd.c ****     __HAL_PCD_CLEAR_FLAG(hpcd, USB_ISTR_ERR); 
 353:Drivers/STM32F0xx_HAL_Driver/Src/stm32f0xx_hal_pcd.c ****   }
 354:Drivers/STM32F0xx_HAL_Driver/Src/stm32f0xx_hal_pcd.c **** 
 355:Drivers/STM32F0xx_HAL_Driver/Src/stm32f0xx_hal_pcd.c ****   if (__HAL_PCD_GET_FLAG (hpcd, USB_ISTR_WKUP))
 356:Drivers/STM32F0xx_HAL_Driver/Src/stm32f0xx_hal_pcd.c ****   {
 357:Drivers/STM32F0xx_HAL_Driver/Src/stm32f0xx_hal_pcd.c ****     
 358:Drivers/STM32F0xx_HAL_Driver/Src/stm32f0xx_hal_pcd.c ****     hpcd->Instance->CNTR &= (uint16_t)(~(USB_CNTR_LPMODE));
 359:Drivers/STM32F0xx_HAL_Driver/Src/stm32f0xx_hal_pcd.c **** 
 360:Drivers/STM32F0xx_HAL_Driver/Src/stm32f0xx_hal_pcd.c ****     /*set wInterrupt_Mask global variable*/
 361:Drivers/STM32F0xx_HAL_Driver/Src/stm32f0xx_hal_pcd.c ****     wInterrupt_Mask = USB_CNTR_CTRM  | USB_CNTR_WKUPM | USB_CNTR_SUSPM | USB_CNTR_ERRM \
 362:Drivers/STM32F0xx_HAL_Driver/Src/stm32f0xx_hal_pcd.c ****       | USB_CNTR_ESOFM | USB_CNTR_RESETM;
 363:Drivers/STM32F0xx_HAL_Driver/Src/stm32f0xx_hal_pcd.c ****     
 364:Drivers/STM32F0xx_HAL_Driver/Src/stm32f0xx_hal_pcd.c ****     /*Set interrupt mask*/
 365:Drivers/STM32F0xx_HAL_Driver/Src/stm32f0xx_hal_pcd.c ****     hpcd->Instance->CNTR = wInterrupt_Mask;
 366:Drivers/STM32F0xx_HAL_Driver/Src/stm32f0xx_hal_pcd.c ****     
 367:Drivers/STM32F0xx_HAL_Driver/Src/stm32f0xx_hal_pcd.c ****     HAL_PCD_ResumeCallback(hpcd);
 368:Drivers/STM32F0xx_HAL_Driver/Src/stm32f0xx_hal_pcd.c ****     
 369:Drivers/STM32F0xx_HAL_Driver/Src/stm32f0xx_hal_pcd.c ****     __HAL_PCD_CLEAR_FLAG(hpcd, USB_ISTR_WKUP);     
 370:Drivers/STM32F0xx_HAL_Driver/Src/stm32f0xx_hal_pcd.c ****   }
 371:Drivers/STM32F0xx_HAL_Driver/Src/stm32f0xx_hal_pcd.c **** 
 372:Drivers/STM32F0xx_HAL_Driver/Src/stm32f0xx_hal_pcd.c ****   if (__HAL_PCD_GET_FLAG (hpcd, USB_ISTR_SUSP))
ARM GAS  /tmp/ccHm7VQo.s 			page 17


 373:Drivers/STM32F0xx_HAL_Driver/Src/stm32f0xx_hal_pcd.c ****   {    
 374:Drivers/STM32F0xx_HAL_Driver/Src/stm32f0xx_hal_pcd.c ****     /* clear of the ISTR bit must be done after setting of CNTR_FSUSP */
 375:Drivers/STM32F0xx_HAL_Driver/Src/stm32f0xx_hal_pcd.c ****     __HAL_PCD_CLEAR_FLAG(hpcd, USB_ISTR_SUSP);  
 376:Drivers/STM32F0xx_HAL_Driver/Src/stm32f0xx_hal_pcd.c ****     
 377:Drivers/STM32F0xx_HAL_Driver/Src/stm32f0xx_hal_pcd.c ****     /* Force low-power mode in the macrocell */
 378:Drivers/STM32F0xx_HAL_Driver/Src/stm32f0xx_hal_pcd.c ****     hpcd->Instance->CNTR |= USB_CNTR_FSUSP;
 379:Drivers/STM32F0xx_HAL_Driver/Src/stm32f0xx_hal_pcd.c ****     hpcd->Instance->CNTR |= USB_CNTR_LPMODE;
 380:Drivers/STM32F0xx_HAL_Driver/Src/stm32f0xx_hal_pcd.c **** 
 381:Drivers/STM32F0xx_HAL_Driver/Src/stm32f0xx_hal_pcd.c ****     if (__HAL_PCD_GET_FLAG (hpcd, USB_ISTR_WKUP) == 0)
 382:Drivers/STM32F0xx_HAL_Driver/Src/stm32f0xx_hal_pcd.c ****     {
 383:Drivers/STM32F0xx_HAL_Driver/Src/stm32f0xx_hal_pcd.c ****       HAL_PCD_SuspendCallback(hpcd);
 384:Drivers/STM32F0xx_HAL_Driver/Src/stm32f0xx_hal_pcd.c ****     }
 385:Drivers/STM32F0xx_HAL_Driver/Src/stm32f0xx_hal_pcd.c ****   }
 386:Drivers/STM32F0xx_HAL_Driver/Src/stm32f0xx_hal_pcd.c **** 
 387:Drivers/STM32F0xx_HAL_Driver/Src/stm32f0xx_hal_pcd.c ****   if (__HAL_PCD_GET_FLAG (hpcd, USB_ISTR_SOF))
 388:Drivers/STM32F0xx_HAL_Driver/Src/stm32f0xx_hal_pcd.c ****   {
 389:Drivers/STM32F0xx_HAL_Driver/Src/stm32f0xx_hal_pcd.c ****     __HAL_PCD_CLEAR_FLAG(hpcd, USB_ISTR_SOF); 
 390:Drivers/STM32F0xx_HAL_Driver/Src/stm32f0xx_hal_pcd.c ****     HAL_PCD_SOFCallback(hpcd);
 391:Drivers/STM32F0xx_HAL_Driver/Src/stm32f0xx_hal_pcd.c ****   }
 392:Drivers/STM32F0xx_HAL_Driver/Src/stm32f0xx_hal_pcd.c **** 
 393:Drivers/STM32F0xx_HAL_Driver/Src/stm32f0xx_hal_pcd.c ****   if (__HAL_PCD_GET_FLAG (hpcd, USB_ISTR_ESOF))
 394:Drivers/STM32F0xx_HAL_Driver/Src/stm32f0xx_hal_pcd.c ****   {
 395:Drivers/STM32F0xx_HAL_Driver/Src/stm32f0xx_hal_pcd.c ****     /* clear ESOF flag in ISTR */
 396:Drivers/STM32F0xx_HAL_Driver/Src/stm32f0xx_hal_pcd.c ****     __HAL_PCD_CLEAR_FLAG(hpcd, USB_ISTR_ESOF); 
 397:Drivers/STM32F0xx_HAL_Driver/Src/stm32f0xx_hal_pcd.c ****   }
 398:Drivers/STM32F0xx_HAL_Driver/Src/stm32f0xx_hal_pcd.c **** }
 399:Drivers/STM32F0xx_HAL_Driver/Src/stm32f0xx_hal_pcd.c **** 
 400:Drivers/STM32F0xx_HAL_Driver/Src/stm32f0xx_hal_pcd.c **** /**
 401:Drivers/STM32F0xx_HAL_Driver/Src/stm32f0xx_hal_pcd.c ****   * @brief  Data out stage callbacks
 402:Drivers/STM32F0xx_HAL_Driver/Src/stm32f0xx_hal_pcd.c ****   * @param  hpcd PCD handle
 403:Drivers/STM32F0xx_HAL_Driver/Src/stm32f0xx_hal_pcd.c ****   * @param  epnum endpoint number
 404:Drivers/STM32F0xx_HAL_Driver/Src/stm32f0xx_hal_pcd.c ****   * @retval None
 405:Drivers/STM32F0xx_HAL_Driver/Src/stm32f0xx_hal_pcd.c ****   */
 406:Drivers/STM32F0xx_HAL_Driver/Src/stm32f0xx_hal_pcd.c ****  __weak void HAL_PCD_DataOutStageCallback(PCD_HandleTypeDef *hpcd, uint8_t epnum)
 407:Drivers/STM32F0xx_HAL_Driver/Src/stm32f0xx_hal_pcd.c **** {
 464              		.loc 1 407 1 is_stmt 1 view -0
 465              		.cfi_startproc
 466              		@ args = 0, pretend = 0, frame = 0
 467              		@ frame_needed = 0, uses_anonymous_args = 0
 468              		@ link register save eliminated.
 408:Drivers/STM32F0xx_HAL_Driver/Src/stm32f0xx_hal_pcd.c ****   /* Prevent unused argument(s) compilation warning */
 409:Drivers/STM32F0xx_HAL_Driver/Src/stm32f0xx_hal_pcd.c ****   UNUSED(hpcd);
 469              		.loc 1 409 3 view .LVU120
 410:Drivers/STM32F0xx_HAL_Driver/Src/stm32f0xx_hal_pcd.c ****   UNUSED(epnum);
 470              		.loc 1 410 3 view .LVU121
 411:Drivers/STM32F0xx_HAL_Driver/Src/stm32f0xx_hal_pcd.c **** 
 412:Drivers/STM32F0xx_HAL_Driver/Src/stm32f0xx_hal_pcd.c ****   /* NOTE : This function Should not be modified, when the callback is needed,
 413:Drivers/STM32F0xx_HAL_Driver/Src/stm32f0xx_hal_pcd.c ****             the HAL_PCD_DataOutStageCallback could be implemented in the user file
 414:Drivers/STM32F0xx_HAL_Driver/Src/stm32f0xx_hal_pcd.c ****    */ 
 415:Drivers/STM32F0xx_HAL_Driver/Src/stm32f0xx_hal_pcd.c **** }
 471              		.loc 1 415 1 is_stmt 0 view .LVU122
 472              		@ sp needed
 473 0000 7047     		bx	lr
 474              		.cfi_endproc
 475              	.LFE44:
 477              		.section	.text.HAL_PCD_DataInStageCallback,"ax",%progbits
 478              		.align	1
ARM GAS  /tmp/ccHm7VQo.s 			page 18


 479              		.weak	HAL_PCD_DataInStageCallback
 480              		.syntax unified
 481              		.code	16
 482              		.thumb_func
 483              		.fpu softvfp
 485              	HAL_PCD_DataInStageCallback:
 486              	.LVL32:
 487              	.LFB45:
 416:Drivers/STM32F0xx_HAL_Driver/Src/stm32f0xx_hal_pcd.c **** 
 417:Drivers/STM32F0xx_HAL_Driver/Src/stm32f0xx_hal_pcd.c **** /**
 418:Drivers/STM32F0xx_HAL_Driver/Src/stm32f0xx_hal_pcd.c ****   * @brief  Data IN stage callbacks
 419:Drivers/STM32F0xx_HAL_Driver/Src/stm32f0xx_hal_pcd.c ****   * @param  hpcd PCD handle
 420:Drivers/STM32F0xx_HAL_Driver/Src/stm32f0xx_hal_pcd.c ****   * @param  epnum endpoint number
 421:Drivers/STM32F0xx_HAL_Driver/Src/stm32f0xx_hal_pcd.c ****   * @retval None
 422:Drivers/STM32F0xx_HAL_Driver/Src/stm32f0xx_hal_pcd.c ****   */
 423:Drivers/STM32F0xx_HAL_Driver/Src/stm32f0xx_hal_pcd.c ****  __weak void HAL_PCD_DataInStageCallback(PCD_HandleTypeDef *hpcd, uint8_t epnum)
 424:Drivers/STM32F0xx_HAL_Driver/Src/stm32f0xx_hal_pcd.c **** {
 488              		.loc 1 424 1 is_stmt 1 view -0
 489              		.cfi_startproc
 490              		@ args = 0, pretend = 0, frame = 0
 491              		@ frame_needed = 0, uses_anonymous_args = 0
 492              		@ link register save eliminated.
 425:Drivers/STM32F0xx_HAL_Driver/Src/stm32f0xx_hal_pcd.c ****   /* Prevent unused argument(s) compilation warning */
 426:Drivers/STM32F0xx_HAL_Driver/Src/stm32f0xx_hal_pcd.c ****   UNUSED(hpcd);
 493              		.loc 1 426 3 view .LVU124
 427:Drivers/STM32F0xx_HAL_Driver/Src/stm32f0xx_hal_pcd.c ****   UNUSED(epnum);
 494              		.loc 1 427 3 view .LVU125
 428:Drivers/STM32F0xx_HAL_Driver/Src/stm32f0xx_hal_pcd.c **** 
 429:Drivers/STM32F0xx_HAL_Driver/Src/stm32f0xx_hal_pcd.c ****   /* NOTE : This function Should not be modified, when the callback is needed,
 430:Drivers/STM32F0xx_HAL_Driver/Src/stm32f0xx_hal_pcd.c ****             the HAL_PCD_DataInStageCallback could be implemented in the user file
 431:Drivers/STM32F0xx_HAL_Driver/Src/stm32f0xx_hal_pcd.c ****    */ 
 432:Drivers/STM32F0xx_HAL_Driver/Src/stm32f0xx_hal_pcd.c **** }
 495              		.loc 1 432 1 is_stmt 0 view .LVU126
 496              		@ sp needed
 497 0000 7047     		bx	lr
 498              		.cfi_endproc
 499              	.LFE45:
 501              		.section	.text.HAL_PCD_SetupStageCallback,"ax",%progbits
 502              		.align	1
 503              		.weak	HAL_PCD_SetupStageCallback
 504              		.syntax unified
 505              		.code	16
 506              		.thumb_func
 507              		.fpu softvfp
 509              	HAL_PCD_SetupStageCallback:
 510              	.LVL33:
 511              	.LFB46:
 433:Drivers/STM32F0xx_HAL_Driver/Src/stm32f0xx_hal_pcd.c **** /**
 434:Drivers/STM32F0xx_HAL_Driver/Src/stm32f0xx_hal_pcd.c ****   * @brief  Setup stage callback
 435:Drivers/STM32F0xx_HAL_Driver/Src/stm32f0xx_hal_pcd.c ****   * @param  hpcd PCD handle
 436:Drivers/STM32F0xx_HAL_Driver/Src/stm32f0xx_hal_pcd.c ****   * @retval None
 437:Drivers/STM32F0xx_HAL_Driver/Src/stm32f0xx_hal_pcd.c ****   */
 438:Drivers/STM32F0xx_HAL_Driver/Src/stm32f0xx_hal_pcd.c ****  __weak void HAL_PCD_SetupStageCallback(PCD_HandleTypeDef *hpcd)
 439:Drivers/STM32F0xx_HAL_Driver/Src/stm32f0xx_hal_pcd.c **** {
 512              		.loc 1 439 1 is_stmt 1 view -0
 513              		.cfi_startproc
 514              		@ args = 0, pretend = 0, frame = 0
ARM GAS  /tmp/ccHm7VQo.s 			page 19


 515              		@ frame_needed = 0, uses_anonymous_args = 0
 516              		@ link register save eliminated.
 440:Drivers/STM32F0xx_HAL_Driver/Src/stm32f0xx_hal_pcd.c ****   /* Prevent unused argument(s) compilation warning */
 441:Drivers/STM32F0xx_HAL_Driver/Src/stm32f0xx_hal_pcd.c ****   UNUSED(hpcd);
 517              		.loc 1 441 3 view .LVU128
 442:Drivers/STM32F0xx_HAL_Driver/Src/stm32f0xx_hal_pcd.c **** 
 443:Drivers/STM32F0xx_HAL_Driver/Src/stm32f0xx_hal_pcd.c ****   /* NOTE : This function Should not be modified, when the callback is needed,
 444:Drivers/STM32F0xx_HAL_Driver/Src/stm32f0xx_hal_pcd.c ****             the HAL_PCD_SetupStageCallback could be implemented in the user file
 445:Drivers/STM32F0xx_HAL_Driver/Src/stm32f0xx_hal_pcd.c ****    */ 
 446:Drivers/STM32F0xx_HAL_Driver/Src/stm32f0xx_hal_pcd.c **** }
 518              		.loc 1 446 1 is_stmt 0 view .LVU129
 519              		@ sp needed
 520 0000 7047     		bx	lr
 521              		.cfi_endproc
 522              	.LFE46:
 524              		.section	.text.HAL_PCD_SOFCallback,"ax",%progbits
 525              		.align	1
 526              		.weak	HAL_PCD_SOFCallback
 527              		.syntax unified
 528              		.code	16
 529              		.thumb_func
 530              		.fpu softvfp
 532              	HAL_PCD_SOFCallback:
 533              	.LVL34:
 534              	.LFB47:
 447:Drivers/STM32F0xx_HAL_Driver/Src/stm32f0xx_hal_pcd.c **** 
 448:Drivers/STM32F0xx_HAL_Driver/Src/stm32f0xx_hal_pcd.c **** /**
 449:Drivers/STM32F0xx_HAL_Driver/Src/stm32f0xx_hal_pcd.c ****   * @brief  USB Start Of Frame callbacks
 450:Drivers/STM32F0xx_HAL_Driver/Src/stm32f0xx_hal_pcd.c ****   * @param  hpcd PCD handle
 451:Drivers/STM32F0xx_HAL_Driver/Src/stm32f0xx_hal_pcd.c ****   * @retval None
 452:Drivers/STM32F0xx_HAL_Driver/Src/stm32f0xx_hal_pcd.c ****   */
 453:Drivers/STM32F0xx_HAL_Driver/Src/stm32f0xx_hal_pcd.c ****  __weak void HAL_PCD_SOFCallback(PCD_HandleTypeDef *hpcd)
 454:Drivers/STM32F0xx_HAL_Driver/Src/stm32f0xx_hal_pcd.c **** {
 535              		.loc 1 454 1 is_stmt 1 view -0
 536              		.cfi_startproc
 537              		@ args = 0, pretend = 0, frame = 0
 538              		@ frame_needed = 0, uses_anonymous_args = 0
 539              		@ link register save eliminated.
 455:Drivers/STM32F0xx_HAL_Driver/Src/stm32f0xx_hal_pcd.c ****   /* Prevent unused argument(s) compilation warning */
 456:Drivers/STM32F0xx_HAL_Driver/Src/stm32f0xx_hal_pcd.c ****   UNUSED(hpcd);
 540              		.loc 1 456 3 view .LVU131
 457:Drivers/STM32F0xx_HAL_Driver/Src/stm32f0xx_hal_pcd.c **** 
 458:Drivers/STM32F0xx_HAL_Driver/Src/stm32f0xx_hal_pcd.c ****   /* NOTE : This function Should not be modified, when the callback is needed,
 459:Drivers/STM32F0xx_HAL_Driver/Src/stm32f0xx_hal_pcd.c ****             the HAL_PCD_SOFCallback could be implemented in the user file
 460:Drivers/STM32F0xx_HAL_Driver/Src/stm32f0xx_hal_pcd.c ****    */ 
 461:Drivers/STM32F0xx_HAL_Driver/Src/stm32f0xx_hal_pcd.c **** }
 541              		.loc 1 461 1 is_stmt 0 view .LVU132
 542              		@ sp needed
 543 0000 7047     		bx	lr
 544              		.cfi_endproc
 545              	.LFE47:
 547              		.section	.text.HAL_PCD_ResetCallback,"ax",%progbits
 548              		.align	1
 549              		.weak	HAL_PCD_ResetCallback
 550              		.syntax unified
 551              		.code	16
 552              		.thumb_func
ARM GAS  /tmp/ccHm7VQo.s 			page 20


 553              		.fpu softvfp
 555              	HAL_PCD_ResetCallback:
 556              	.LVL35:
 557              	.LFB48:
 462:Drivers/STM32F0xx_HAL_Driver/Src/stm32f0xx_hal_pcd.c **** 
 463:Drivers/STM32F0xx_HAL_Driver/Src/stm32f0xx_hal_pcd.c **** /**
 464:Drivers/STM32F0xx_HAL_Driver/Src/stm32f0xx_hal_pcd.c ****   * @brief  USB Reset callbacks
 465:Drivers/STM32F0xx_HAL_Driver/Src/stm32f0xx_hal_pcd.c ****   * @param  hpcd PCD handle
 466:Drivers/STM32F0xx_HAL_Driver/Src/stm32f0xx_hal_pcd.c ****   * @retval None
 467:Drivers/STM32F0xx_HAL_Driver/Src/stm32f0xx_hal_pcd.c ****   */
 468:Drivers/STM32F0xx_HAL_Driver/Src/stm32f0xx_hal_pcd.c ****  __weak void HAL_PCD_ResetCallback(PCD_HandleTypeDef *hpcd)
 469:Drivers/STM32F0xx_HAL_Driver/Src/stm32f0xx_hal_pcd.c **** {
 558              		.loc 1 469 1 is_stmt 1 view -0
 559              		.cfi_startproc
 560              		@ args = 0, pretend = 0, frame = 0
 561              		@ frame_needed = 0, uses_anonymous_args = 0
 562              		@ link register save eliminated.
 470:Drivers/STM32F0xx_HAL_Driver/Src/stm32f0xx_hal_pcd.c ****   /* Prevent unused argument(s) compilation warning */
 471:Drivers/STM32F0xx_HAL_Driver/Src/stm32f0xx_hal_pcd.c ****   UNUSED(hpcd);
 563              		.loc 1 471 3 view .LVU134
 472:Drivers/STM32F0xx_HAL_Driver/Src/stm32f0xx_hal_pcd.c **** 
 473:Drivers/STM32F0xx_HAL_Driver/Src/stm32f0xx_hal_pcd.c ****   /* NOTE : This function Should not be modified, when the callback is needed,
 474:Drivers/STM32F0xx_HAL_Driver/Src/stm32f0xx_hal_pcd.c ****             the HAL_PCD_ResetCallback could be implemented in the user file
 475:Drivers/STM32F0xx_HAL_Driver/Src/stm32f0xx_hal_pcd.c ****    */ 
 476:Drivers/STM32F0xx_HAL_Driver/Src/stm32f0xx_hal_pcd.c **** }
 564              		.loc 1 476 1 is_stmt 0 view .LVU135
 565              		@ sp needed
 566 0000 7047     		bx	lr
 567              		.cfi_endproc
 568              	.LFE48:
 570              		.section	.text.HAL_PCD_SuspendCallback,"ax",%progbits
 571              		.align	1
 572              		.weak	HAL_PCD_SuspendCallback
 573              		.syntax unified
 574              		.code	16
 575              		.thumb_func
 576              		.fpu softvfp
 578              	HAL_PCD_SuspendCallback:
 579              	.LVL36:
 580              	.LFB49:
 477:Drivers/STM32F0xx_HAL_Driver/Src/stm32f0xx_hal_pcd.c **** 
 478:Drivers/STM32F0xx_HAL_Driver/Src/stm32f0xx_hal_pcd.c **** /**
 479:Drivers/STM32F0xx_HAL_Driver/Src/stm32f0xx_hal_pcd.c ****   * @brief  Suspend event callbacks
 480:Drivers/STM32F0xx_HAL_Driver/Src/stm32f0xx_hal_pcd.c ****   * @param  hpcd PCD handle
 481:Drivers/STM32F0xx_HAL_Driver/Src/stm32f0xx_hal_pcd.c ****   * @retval None
 482:Drivers/STM32F0xx_HAL_Driver/Src/stm32f0xx_hal_pcd.c ****   */
 483:Drivers/STM32F0xx_HAL_Driver/Src/stm32f0xx_hal_pcd.c ****  __weak void HAL_PCD_SuspendCallback(PCD_HandleTypeDef *hpcd)
 484:Drivers/STM32F0xx_HAL_Driver/Src/stm32f0xx_hal_pcd.c **** {
 581              		.loc 1 484 1 is_stmt 1 view -0
 582              		.cfi_startproc
 583              		@ args = 0, pretend = 0, frame = 0
 584              		@ frame_needed = 0, uses_anonymous_args = 0
 585              		@ link register save eliminated.
 485:Drivers/STM32F0xx_HAL_Driver/Src/stm32f0xx_hal_pcd.c ****   /* Prevent unused argument(s) compilation warning */
 486:Drivers/STM32F0xx_HAL_Driver/Src/stm32f0xx_hal_pcd.c ****   UNUSED(hpcd);
 586              		.loc 1 486 3 view .LVU137
 487:Drivers/STM32F0xx_HAL_Driver/Src/stm32f0xx_hal_pcd.c **** 
ARM GAS  /tmp/ccHm7VQo.s 			page 21


 488:Drivers/STM32F0xx_HAL_Driver/Src/stm32f0xx_hal_pcd.c ****   /* NOTE : This function Should not be modified, when the callback is needed,
 489:Drivers/STM32F0xx_HAL_Driver/Src/stm32f0xx_hal_pcd.c ****             the HAL_PCD_SuspendCallback could be implemented in the user file
 490:Drivers/STM32F0xx_HAL_Driver/Src/stm32f0xx_hal_pcd.c ****    */ 
 491:Drivers/STM32F0xx_HAL_Driver/Src/stm32f0xx_hal_pcd.c **** }
 587              		.loc 1 491 1 is_stmt 0 view .LVU138
 588              		@ sp needed
 589 0000 7047     		bx	lr
 590              		.cfi_endproc
 591              	.LFE49:
 593              		.section	.text.HAL_PCD_ResumeCallback,"ax",%progbits
 594              		.align	1
 595              		.weak	HAL_PCD_ResumeCallback
 596              		.syntax unified
 597              		.code	16
 598              		.thumb_func
 599              		.fpu softvfp
 601              	HAL_PCD_ResumeCallback:
 602              	.LVL37:
 603              	.LFB50:
 492:Drivers/STM32F0xx_HAL_Driver/Src/stm32f0xx_hal_pcd.c **** 
 493:Drivers/STM32F0xx_HAL_Driver/Src/stm32f0xx_hal_pcd.c **** /**
 494:Drivers/STM32F0xx_HAL_Driver/Src/stm32f0xx_hal_pcd.c ****   * @brief  Resume event callbacks
 495:Drivers/STM32F0xx_HAL_Driver/Src/stm32f0xx_hal_pcd.c ****   * @param  hpcd PCD handle
 496:Drivers/STM32F0xx_HAL_Driver/Src/stm32f0xx_hal_pcd.c ****   * @retval None
 497:Drivers/STM32F0xx_HAL_Driver/Src/stm32f0xx_hal_pcd.c ****   */
 498:Drivers/STM32F0xx_HAL_Driver/Src/stm32f0xx_hal_pcd.c ****  __weak void HAL_PCD_ResumeCallback(PCD_HandleTypeDef *hpcd)
 499:Drivers/STM32F0xx_HAL_Driver/Src/stm32f0xx_hal_pcd.c **** {
 604              		.loc 1 499 1 is_stmt 1 view -0
 605              		.cfi_startproc
 606              		@ args = 0, pretend = 0, frame = 0
 607              		@ frame_needed = 0, uses_anonymous_args = 0
 608              		@ link register save eliminated.
 500:Drivers/STM32F0xx_HAL_Driver/Src/stm32f0xx_hal_pcd.c ****   /* Prevent unused argument(s) compilation warning */
 501:Drivers/STM32F0xx_HAL_Driver/Src/stm32f0xx_hal_pcd.c ****   UNUSED(hpcd);
 609              		.loc 1 501 3 view .LVU140
 502:Drivers/STM32F0xx_HAL_Driver/Src/stm32f0xx_hal_pcd.c **** 
 503:Drivers/STM32F0xx_HAL_Driver/Src/stm32f0xx_hal_pcd.c ****   /* NOTE : This function Should not be modified, when the callback is needed,
 504:Drivers/STM32F0xx_HAL_Driver/Src/stm32f0xx_hal_pcd.c ****             the HAL_PCD_ResumeCallback could be implemented in the user file
 505:Drivers/STM32F0xx_HAL_Driver/Src/stm32f0xx_hal_pcd.c ****    */ 
 506:Drivers/STM32F0xx_HAL_Driver/Src/stm32f0xx_hal_pcd.c **** }
 610              		.loc 1 506 1 is_stmt 0 view .LVU141
 611              		@ sp needed
 612 0000 7047     		bx	lr
 613              		.cfi_endproc
 614              	.LFE50:
 616              		.section	.text.HAL_PCD_ISOOUTIncompleteCallback,"ax",%progbits
 617              		.align	1
 618              		.weak	HAL_PCD_ISOOUTIncompleteCallback
 619              		.syntax unified
 620              		.code	16
 621              		.thumb_func
 622              		.fpu softvfp
 624              	HAL_PCD_ISOOUTIncompleteCallback:
 625              	.LVL38:
 626              	.LFB51:
 507:Drivers/STM32F0xx_HAL_Driver/Src/stm32f0xx_hal_pcd.c **** 
 508:Drivers/STM32F0xx_HAL_Driver/Src/stm32f0xx_hal_pcd.c **** /**
ARM GAS  /tmp/ccHm7VQo.s 			page 22


 509:Drivers/STM32F0xx_HAL_Driver/Src/stm32f0xx_hal_pcd.c ****   * @brief  Incomplete ISO OUT callbacks
 510:Drivers/STM32F0xx_HAL_Driver/Src/stm32f0xx_hal_pcd.c ****   * @param  hpcd PCD handle
 511:Drivers/STM32F0xx_HAL_Driver/Src/stm32f0xx_hal_pcd.c ****   * @param  epnum endpoint number
 512:Drivers/STM32F0xx_HAL_Driver/Src/stm32f0xx_hal_pcd.c ****   * @retval None
 513:Drivers/STM32F0xx_HAL_Driver/Src/stm32f0xx_hal_pcd.c ****   */
 514:Drivers/STM32F0xx_HAL_Driver/Src/stm32f0xx_hal_pcd.c ****  __weak void HAL_PCD_ISOOUTIncompleteCallback(PCD_HandleTypeDef *hpcd, uint8_t epnum)
 515:Drivers/STM32F0xx_HAL_Driver/Src/stm32f0xx_hal_pcd.c **** {
 627              		.loc 1 515 1 is_stmt 1 view -0
 628              		.cfi_startproc
 629              		@ args = 0, pretend = 0, frame = 0
 630              		@ frame_needed = 0, uses_anonymous_args = 0
 631              		@ link register save eliminated.
 516:Drivers/STM32F0xx_HAL_Driver/Src/stm32f0xx_hal_pcd.c ****   /* Prevent unused argument(s) compilation warning */
 517:Drivers/STM32F0xx_HAL_Driver/Src/stm32f0xx_hal_pcd.c ****   UNUSED(hpcd);
 632              		.loc 1 517 3 view .LVU143
 518:Drivers/STM32F0xx_HAL_Driver/Src/stm32f0xx_hal_pcd.c ****   UNUSED(epnum);
 633              		.loc 1 518 3 view .LVU144
 519:Drivers/STM32F0xx_HAL_Driver/Src/stm32f0xx_hal_pcd.c **** 
 520:Drivers/STM32F0xx_HAL_Driver/Src/stm32f0xx_hal_pcd.c ****   /* NOTE : This function Should not be modified, when the callback is needed,
 521:Drivers/STM32F0xx_HAL_Driver/Src/stm32f0xx_hal_pcd.c ****             the HAL_PCD_ISOOUTIncompleteCallback could be implemented in the user file
 522:Drivers/STM32F0xx_HAL_Driver/Src/stm32f0xx_hal_pcd.c ****    */ 
 523:Drivers/STM32F0xx_HAL_Driver/Src/stm32f0xx_hal_pcd.c **** }
 634              		.loc 1 523 1 is_stmt 0 view .LVU145
 635              		@ sp needed
 636 0000 7047     		bx	lr
 637              		.cfi_endproc
 638              	.LFE51:
 640              		.section	.text.HAL_PCD_ISOINIncompleteCallback,"ax",%progbits
 641              		.align	1
 642              		.weak	HAL_PCD_ISOINIncompleteCallback
 643              		.syntax unified
 644              		.code	16
 645              		.thumb_func
 646              		.fpu softvfp
 648              	HAL_PCD_ISOINIncompleteCallback:
 649              	.LVL39:
 650              	.LFB52:
 524:Drivers/STM32F0xx_HAL_Driver/Src/stm32f0xx_hal_pcd.c **** 
 525:Drivers/STM32F0xx_HAL_Driver/Src/stm32f0xx_hal_pcd.c **** /**
 526:Drivers/STM32F0xx_HAL_Driver/Src/stm32f0xx_hal_pcd.c ****   * @brief  Incomplete ISO IN  callbacks
 527:Drivers/STM32F0xx_HAL_Driver/Src/stm32f0xx_hal_pcd.c ****   * @param  hpcd PCD handle
 528:Drivers/STM32F0xx_HAL_Driver/Src/stm32f0xx_hal_pcd.c ****   * @param  epnum endpoint number
 529:Drivers/STM32F0xx_HAL_Driver/Src/stm32f0xx_hal_pcd.c ****   * @retval None
 530:Drivers/STM32F0xx_HAL_Driver/Src/stm32f0xx_hal_pcd.c ****   */
 531:Drivers/STM32F0xx_HAL_Driver/Src/stm32f0xx_hal_pcd.c ****  __weak void HAL_PCD_ISOINIncompleteCallback(PCD_HandleTypeDef *hpcd, uint8_t epnum)
 532:Drivers/STM32F0xx_HAL_Driver/Src/stm32f0xx_hal_pcd.c **** {
 651              		.loc 1 532 1 is_stmt 1 view -0
 652              		.cfi_startproc
 653              		@ args = 0, pretend = 0, frame = 0
 654              		@ frame_needed = 0, uses_anonymous_args = 0
 655              		@ link register save eliminated.
 533:Drivers/STM32F0xx_HAL_Driver/Src/stm32f0xx_hal_pcd.c ****   /* Prevent unused argument(s) compilation warning */
 534:Drivers/STM32F0xx_HAL_Driver/Src/stm32f0xx_hal_pcd.c ****   UNUSED(hpcd);
 656              		.loc 1 534 3 view .LVU147
 535:Drivers/STM32F0xx_HAL_Driver/Src/stm32f0xx_hal_pcd.c ****   UNUSED(epnum);
 657              		.loc 1 535 3 view .LVU148
 536:Drivers/STM32F0xx_HAL_Driver/Src/stm32f0xx_hal_pcd.c **** 
ARM GAS  /tmp/ccHm7VQo.s 			page 23


 537:Drivers/STM32F0xx_HAL_Driver/Src/stm32f0xx_hal_pcd.c ****   /* NOTE : This function Should not be modified, when the callback is needed,
 538:Drivers/STM32F0xx_HAL_Driver/Src/stm32f0xx_hal_pcd.c ****             the HAL_PCD_ISOINIncompleteCallback could be implemented in the user file
 539:Drivers/STM32F0xx_HAL_Driver/Src/stm32f0xx_hal_pcd.c ****    */ 
 540:Drivers/STM32F0xx_HAL_Driver/Src/stm32f0xx_hal_pcd.c **** }
 658              		.loc 1 540 1 is_stmt 0 view .LVU149
 659              		@ sp needed
 660 0000 7047     		bx	lr
 661              		.cfi_endproc
 662              	.LFE52:
 664              		.section	.text.HAL_PCD_ConnectCallback,"ax",%progbits
 665              		.align	1
 666              		.weak	HAL_PCD_ConnectCallback
 667              		.syntax unified
 668              		.code	16
 669              		.thumb_func
 670              		.fpu softvfp
 672              	HAL_PCD_ConnectCallback:
 673              	.LVL40:
 674              	.LFB53:
 541:Drivers/STM32F0xx_HAL_Driver/Src/stm32f0xx_hal_pcd.c **** 
 542:Drivers/STM32F0xx_HAL_Driver/Src/stm32f0xx_hal_pcd.c **** /**
 543:Drivers/STM32F0xx_HAL_Driver/Src/stm32f0xx_hal_pcd.c ****   * @brief  Connection event callbacks
 544:Drivers/STM32F0xx_HAL_Driver/Src/stm32f0xx_hal_pcd.c ****   * @param  hpcd PCD handle
 545:Drivers/STM32F0xx_HAL_Driver/Src/stm32f0xx_hal_pcd.c ****   * @retval None
 546:Drivers/STM32F0xx_HAL_Driver/Src/stm32f0xx_hal_pcd.c ****   */
 547:Drivers/STM32F0xx_HAL_Driver/Src/stm32f0xx_hal_pcd.c ****  __weak void HAL_PCD_ConnectCallback(PCD_HandleTypeDef *hpcd)
 548:Drivers/STM32F0xx_HAL_Driver/Src/stm32f0xx_hal_pcd.c **** {
 675              		.loc 1 548 1 is_stmt 1 view -0
 676              		.cfi_startproc
 677              		@ args = 0, pretend = 0, frame = 0
 678              		@ frame_needed = 0, uses_anonymous_args = 0
 679              		@ link register save eliminated.
 549:Drivers/STM32F0xx_HAL_Driver/Src/stm32f0xx_hal_pcd.c ****   /* Prevent unused argument(s) compilation warning */
 550:Drivers/STM32F0xx_HAL_Driver/Src/stm32f0xx_hal_pcd.c ****   UNUSED(hpcd);
 680              		.loc 1 550 3 view .LVU151
 551:Drivers/STM32F0xx_HAL_Driver/Src/stm32f0xx_hal_pcd.c **** 
 552:Drivers/STM32F0xx_HAL_Driver/Src/stm32f0xx_hal_pcd.c ****   /* NOTE : This function Should not be modified, when the callback is needed,
 553:Drivers/STM32F0xx_HAL_Driver/Src/stm32f0xx_hal_pcd.c ****             the HAL_PCD_ConnectCallback could be implemented in the user file
 554:Drivers/STM32F0xx_HAL_Driver/Src/stm32f0xx_hal_pcd.c ****    */ 
 555:Drivers/STM32F0xx_HAL_Driver/Src/stm32f0xx_hal_pcd.c **** }
 681              		.loc 1 555 1 is_stmt 0 view .LVU152
 682              		@ sp needed
 683 0000 7047     		bx	lr
 684              		.cfi_endproc
 685              	.LFE53:
 687              		.section	.text.HAL_PCD_DisconnectCallback,"ax",%progbits
 688              		.align	1
 689              		.weak	HAL_PCD_DisconnectCallback
 690              		.syntax unified
 691              		.code	16
 692              		.thumb_func
 693              		.fpu softvfp
 695              	HAL_PCD_DisconnectCallback:
 696              	.LVL41:
 697              	.LFB54:
 556:Drivers/STM32F0xx_HAL_Driver/Src/stm32f0xx_hal_pcd.c **** 
 557:Drivers/STM32F0xx_HAL_Driver/Src/stm32f0xx_hal_pcd.c **** /**
ARM GAS  /tmp/ccHm7VQo.s 			page 24


 558:Drivers/STM32F0xx_HAL_Driver/Src/stm32f0xx_hal_pcd.c ****   * @brief  Disconnection event callbacks
 559:Drivers/STM32F0xx_HAL_Driver/Src/stm32f0xx_hal_pcd.c ****   * @param  hpcd PCD handle
 560:Drivers/STM32F0xx_HAL_Driver/Src/stm32f0xx_hal_pcd.c ****   * @retval None
 561:Drivers/STM32F0xx_HAL_Driver/Src/stm32f0xx_hal_pcd.c ****   */
 562:Drivers/STM32F0xx_HAL_Driver/Src/stm32f0xx_hal_pcd.c ****  __weak void HAL_PCD_DisconnectCallback(PCD_HandleTypeDef *hpcd)
 563:Drivers/STM32F0xx_HAL_Driver/Src/stm32f0xx_hal_pcd.c **** {
 698              		.loc 1 563 1 is_stmt 1 view -0
 699              		.cfi_startproc
 700              		@ args = 0, pretend = 0, frame = 0
 701              		@ frame_needed = 0, uses_anonymous_args = 0
 702              		@ link register save eliminated.
 564:Drivers/STM32F0xx_HAL_Driver/Src/stm32f0xx_hal_pcd.c ****   /* Prevent unused argument(s) compilation warning */
 565:Drivers/STM32F0xx_HAL_Driver/Src/stm32f0xx_hal_pcd.c ****   UNUSED(hpcd);
 703              		.loc 1 565 3 view .LVU154
 566:Drivers/STM32F0xx_HAL_Driver/Src/stm32f0xx_hal_pcd.c **** 
 567:Drivers/STM32F0xx_HAL_Driver/Src/stm32f0xx_hal_pcd.c ****   /* NOTE : This function Should not be modified, when the callback is needed,
 568:Drivers/STM32F0xx_HAL_Driver/Src/stm32f0xx_hal_pcd.c ****             the HAL_PCD_DisconnectCallback could be implemented in the user file
 569:Drivers/STM32F0xx_HAL_Driver/Src/stm32f0xx_hal_pcd.c ****    */ 
 570:Drivers/STM32F0xx_HAL_Driver/Src/stm32f0xx_hal_pcd.c **** }
 704              		.loc 1 570 1 is_stmt 0 view .LVU155
 705              		@ sp needed
 706 0000 7047     		bx	lr
 707              		.cfi_endproc
 708              	.LFE54:
 710              		.section	.text.HAL_PCD_DevConnect,"ax",%progbits
 711              		.align	1
 712              		.global	HAL_PCD_DevConnect
 713              		.syntax unified
 714              		.code	16
 715              		.thumb_func
 716              		.fpu softvfp
 718              	HAL_PCD_DevConnect:
 719              	.LVL42:
 720              	.LFB55:
 571:Drivers/STM32F0xx_HAL_Driver/Src/stm32f0xx_hal_pcd.c **** /**
 572:Drivers/STM32F0xx_HAL_Driver/Src/stm32f0xx_hal_pcd.c ****   * @}
 573:Drivers/STM32F0xx_HAL_Driver/Src/stm32f0xx_hal_pcd.c ****   */
 574:Drivers/STM32F0xx_HAL_Driver/Src/stm32f0xx_hal_pcd.c ****     
 575:Drivers/STM32F0xx_HAL_Driver/Src/stm32f0xx_hal_pcd.c **** /** @defgroup PCD_Exported_Functions_Group3 Peripheral Control functions 
 576:Drivers/STM32F0xx_HAL_Driver/Src/stm32f0xx_hal_pcd.c ****  *  @brief   management functions 
 577:Drivers/STM32F0xx_HAL_Driver/Src/stm32f0xx_hal_pcd.c ****  *
 578:Drivers/STM32F0xx_HAL_Driver/Src/stm32f0xx_hal_pcd.c **** @verbatim   
 579:Drivers/STM32F0xx_HAL_Driver/Src/stm32f0xx_hal_pcd.c ****  ===============================================================================
 580:Drivers/STM32F0xx_HAL_Driver/Src/stm32f0xx_hal_pcd.c ****                       ##### Peripheral Control functions #####
 581:Drivers/STM32F0xx_HAL_Driver/Src/stm32f0xx_hal_pcd.c ****  ===============================================================================  
 582:Drivers/STM32F0xx_HAL_Driver/Src/stm32f0xx_hal_pcd.c ****     [..]
 583:Drivers/STM32F0xx_HAL_Driver/Src/stm32f0xx_hal_pcd.c ****     This subsection provides a set of functions allowing to control the PCD data 
 584:Drivers/STM32F0xx_HAL_Driver/Src/stm32f0xx_hal_pcd.c ****     transfers.
 585:Drivers/STM32F0xx_HAL_Driver/Src/stm32f0xx_hal_pcd.c **** 
 586:Drivers/STM32F0xx_HAL_Driver/Src/stm32f0xx_hal_pcd.c **** @endverbatim
 587:Drivers/STM32F0xx_HAL_Driver/Src/stm32f0xx_hal_pcd.c ****   * @{
 588:Drivers/STM32F0xx_HAL_Driver/Src/stm32f0xx_hal_pcd.c ****   */
 589:Drivers/STM32F0xx_HAL_Driver/Src/stm32f0xx_hal_pcd.c **** 
 590:Drivers/STM32F0xx_HAL_Driver/Src/stm32f0xx_hal_pcd.c **** /**
 591:Drivers/STM32F0xx_HAL_Driver/Src/stm32f0xx_hal_pcd.c ****   * @brief  Connect the USB device 
 592:Drivers/STM32F0xx_HAL_Driver/Src/stm32f0xx_hal_pcd.c ****   * @param  hpcd PCD handle
 593:Drivers/STM32F0xx_HAL_Driver/Src/stm32f0xx_hal_pcd.c ****   * @retval HAL status
ARM GAS  /tmp/ccHm7VQo.s 			page 25


 594:Drivers/STM32F0xx_HAL_Driver/Src/stm32f0xx_hal_pcd.c ****   */
 595:Drivers/STM32F0xx_HAL_Driver/Src/stm32f0xx_hal_pcd.c **** HAL_StatusTypeDef HAL_PCD_DevConnect(PCD_HandleTypeDef *hpcd)
 596:Drivers/STM32F0xx_HAL_Driver/Src/stm32f0xx_hal_pcd.c **** {
 721              		.loc 1 596 1 is_stmt 1 view -0
 722              		.cfi_startproc
 723              		@ args = 0, pretend = 0, frame = 0
 724              		@ frame_needed = 0, uses_anonymous_args = 0
 725              		.loc 1 596 1 is_stmt 0 view .LVU157
 726 0000 30B5     		push	{r4, r5, lr}
 727              	.LCFI3:
 728              		.cfi_def_cfa_offset 12
 729              		.cfi_offset 4, -12
 730              		.cfi_offset 5, -8
 731              		.cfi_offset 14, -4
 597:Drivers/STM32F0xx_HAL_Driver/Src/stm32f0xx_hal_pcd.c ****   __HAL_LOCK(hpcd); 
 732              		.loc 1 597 3 is_stmt 1 view .LVU158
 733              		.loc 1 597 3 view .LVU159
 734 0002 F423     		movs	r3, #244
 735 0004 5B00     		lsls	r3, r3, #1
 736 0006 C35C     		ldrb	r3, [r0, r3]
 737 0008 012B     		cmp	r3, #1
 738 000a 0ED0     		beq	.L37
 739              		.loc 1 597 3 discriminator 2 view .LVU160
 740 000c F422     		movs	r2, #244
 741 000e 5200     		lsls	r2, r2, #1
 742 0010 0123     		movs	r3, #1
 743 0012 8354     		strb	r3, [r0, r2]
 598:Drivers/STM32F0xx_HAL_Driver/Src/stm32f0xx_hal_pcd.c ****   
 599:Drivers/STM32F0xx_HAL_Driver/Src/stm32f0xx_hal_pcd.c ****   /* Enabling DP Pull-Down bit to Connect internal pull-up on USB DP line */
 600:Drivers/STM32F0xx_HAL_Driver/Src/stm32f0xx_hal_pcd.c ****   hpcd->Instance->BCDR |= USB_BCDR_DPPU;
 744              		.loc 1 600 3 discriminator 2 view .LVU161
 745              		.loc 1 600 7 is_stmt 0 discriminator 2 view .LVU162
 746 0014 0468     		ldr	r4, [r0]
 747              		.loc 1 600 24 discriminator 2 view .LVU163
 748 0016 5821     		movs	r1, #88
 749 0018 635A     		ldrh	r3, [r4, r1]
 750 001a 054D     		ldr	r5, .L38
 751 001c 2B43     		orrs	r3, r5
 752 001e 9BB2     		uxth	r3, r3
 753 0020 6352     		strh	r3, [r4, r1]
 601:Drivers/STM32F0xx_HAL_Driver/Src/stm32f0xx_hal_pcd.c ****   
 602:Drivers/STM32F0xx_HAL_Driver/Src/stm32f0xx_hal_pcd.c ****   __HAL_UNLOCK(hpcd); 
 754              		.loc 1 602 3 is_stmt 1 discriminator 2 view .LVU164
 755              		.loc 1 602 3 discriminator 2 view .LVU165
 756 0022 0023     		movs	r3, #0
 757 0024 8354     		strb	r3, [r0, r2]
 603:Drivers/STM32F0xx_HAL_Driver/Src/stm32f0xx_hal_pcd.c ****   return HAL_OK;
 758              		.loc 1 603 3 discriminator 2 view .LVU166
 759              		.loc 1 603 10 is_stmt 0 discriminator 2 view .LVU167
 760 0026 0020     		movs	r0, #0
 761              	.LVL43:
 762              	.L36:
 604:Drivers/STM32F0xx_HAL_Driver/Src/stm32f0xx_hal_pcd.c **** }
 763              		.loc 1 604 1 view .LVU168
 764              		@ sp needed
 765 0028 30BD     		pop	{r4, r5, pc}
 766              	.LVL44:
ARM GAS  /tmp/ccHm7VQo.s 			page 26


 767              	.L37:
 597:Drivers/STM32F0xx_HAL_Driver/Src/stm32f0xx_hal_pcd.c ****   
 768              		.loc 1 597 3 view .LVU169
 769 002a 0220     		movs	r0, #2
 770              	.LVL45:
 597:Drivers/STM32F0xx_HAL_Driver/Src/stm32f0xx_hal_pcd.c ****   
 771              		.loc 1 597 3 view .LVU170
 772 002c FCE7     		b	.L36
 773              	.L39:
 774 002e C046     		.align	2
 775              	.L38:
 776 0030 0080FFFF 		.word	-32768
 777              		.cfi_endproc
 778              	.LFE55:
 780              		.section	.text.HAL_PCD_DevDisconnect,"ax",%progbits
 781              		.align	1
 782              		.global	HAL_PCD_DevDisconnect
 783              		.syntax unified
 784              		.code	16
 785              		.thumb_func
 786              		.fpu softvfp
 788              	HAL_PCD_DevDisconnect:
 789              	.LVL46:
 790              	.LFB56:
 605:Drivers/STM32F0xx_HAL_Driver/Src/stm32f0xx_hal_pcd.c **** 
 606:Drivers/STM32F0xx_HAL_Driver/Src/stm32f0xx_hal_pcd.c **** /**
 607:Drivers/STM32F0xx_HAL_Driver/Src/stm32f0xx_hal_pcd.c ****   * @brief  Disconnect the USB device 
 608:Drivers/STM32F0xx_HAL_Driver/Src/stm32f0xx_hal_pcd.c ****   * @param  hpcd PCD handle
 609:Drivers/STM32F0xx_HAL_Driver/Src/stm32f0xx_hal_pcd.c ****   * @retval HAL status
 610:Drivers/STM32F0xx_HAL_Driver/Src/stm32f0xx_hal_pcd.c ****   */
 611:Drivers/STM32F0xx_HAL_Driver/Src/stm32f0xx_hal_pcd.c **** HAL_StatusTypeDef HAL_PCD_DevDisconnect(PCD_HandleTypeDef *hpcd)
 612:Drivers/STM32F0xx_HAL_Driver/Src/stm32f0xx_hal_pcd.c **** {
 791              		.loc 1 612 1 is_stmt 1 view -0
 792              		.cfi_startproc
 793              		@ args = 0, pretend = 0, frame = 0
 794              		@ frame_needed = 0, uses_anonymous_args = 0
 795              		.loc 1 612 1 is_stmt 0 view .LVU172
 796 0000 10B5     		push	{r4, lr}
 797              	.LCFI4:
 798              		.cfi_def_cfa_offset 8
 799              		.cfi_offset 4, -8
 800              		.cfi_offset 14, -4
 613:Drivers/STM32F0xx_HAL_Driver/Src/stm32f0xx_hal_pcd.c ****   __HAL_LOCK(hpcd); 
 801              		.loc 1 613 3 is_stmt 1 view .LVU173
 802              		.loc 1 613 3 view .LVU174
 803 0002 F423     		movs	r3, #244
 804 0004 5B00     		lsls	r3, r3, #1
 805 0006 C35C     		ldrb	r3, [r0, r3]
 806 0008 012B     		cmp	r3, #1
 807 000a 0DD0     		beq	.L42
 808              		.loc 1 613 3 discriminator 2 view .LVU175
 809 000c F422     		movs	r2, #244
 810 000e 5200     		lsls	r2, r2, #1
 811 0010 0123     		movs	r3, #1
 812 0012 8354     		strb	r3, [r0, r2]
 614:Drivers/STM32F0xx_HAL_Driver/Src/stm32f0xx_hal_pcd.c ****   
 615:Drivers/STM32F0xx_HAL_Driver/Src/stm32f0xx_hal_pcd.c ****   /* Disable DP Pull-Down bit*/
ARM GAS  /tmp/ccHm7VQo.s 			page 27


 616:Drivers/STM32F0xx_HAL_Driver/Src/stm32f0xx_hal_pcd.c ****    hpcd->Instance->BCDR &= (uint16_t)(~(USB_BCDR_DPPU));
 813              		.loc 1 616 4 discriminator 2 view .LVU176
 814              		.loc 1 616 8 is_stmt 0 discriminator 2 view .LVU177
 815 0014 0468     		ldr	r4, [r0]
 816              		.loc 1 616 25 discriminator 2 view .LVU178
 817 0016 5821     		movs	r1, #88
 818 0018 635A     		ldrh	r3, [r4, r1]
 819 001a 5B04     		lsls	r3, r3, #17
 820 001c 5B0C     		lsrs	r3, r3, #17
 821 001e 6352     		strh	r3, [r4, r1]
 617:Drivers/STM32F0xx_HAL_Driver/Src/stm32f0xx_hal_pcd.c ****   
 618:Drivers/STM32F0xx_HAL_Driver/Src/stm32f0xx_hal_pcd.c ****   __HAL_UNLOCK(hpcd); 
 822              		.loc 1 618 3 is_stmt 1 discriminator 2 view .LVU179
 823              		.loc 1 618 3 discriminator 2 view .LVU180
 824 0020 0023     		movs	r3, #0
 825 0022 8354     		strb	r3, [r0, r2]
 619:Drivers/STM32F0xx_HAL_Driver/Src/stm32f0xx_hal_pcd.c ****   return HAL_OK;
 826              		.loc 1 619 3 discriminator 2 view .LVU181
 827              		.loc 1 619 10 is_stmt 0 discriminator 2 view .LVU182
 828 0024 0020     		movs	r0, #0
 829              	.LVL47:
 830              	.L41:
 620:Drivers/STM32F0xx_HAL_Driver/Src/stm32f0xx_hal_pcd.c **** }
 831              		.loc 1 620 1 view .LVU183
 832              		@ sp needed
 833 0026 10BD     		pop	{r4, pc}
 834              	.LVL48:
 835              	.L42:
 613:Drivers/STM32F0xx_HAL_Driver/Src/stm32f0xx_hal_pcd.c ****   
 836              		.loc 1 613 3 view .LVU184
 837 0028 0220     		movs	r0, #2
 838              	.LVL49:
 613:Drivers/STM32F0xx_HAL_Driver/Src/stm32f0xx_hal_pcd.c ****   
 839              		.loc 1 613 3 view .LVU185
 840 002a FCE7     		b	.L41
 841              		.cfi_endproc
 842              	.LFE56:
 844              		.section	.text.HAL_PCD_SetAddress,"ax",%progbits
 845              		.align	1
 846              		.global	HAL_PCD_SetAddress
 847              		.syntax unified
 848              		.code	16
 849              		.thumb_func
 850              		.fpu softvfp
 852              	HAL_PCD_SetAddress:
 853              	.LVL50:
 854              	.LFB57:
 621:Drivers/STM32F0xx_HAL_Driver/Src/stm32f0xx_hal_pcd.c **** 
 622:Drivers/STM32F0xx_HAL_Driver/Src/stm32f0xx_hal_pcd.c **** /**
 623:Drivers/STM32F0xx_HAL_Driver/Src/stm32f0xx_hal_pcd.c ****   * @brief  Set the USB Device address 
 624:Drivers/STM32F0xx_HAL_Driver/Src/stm32f0xx_hal_pcd.c ****   * @param  hpcd PCD handle
 625:Drivers/STM32F0xx_HAL_Driver/Src/stm32f0xx_hal_pcd.c ****   * @param  address new device address
 626:Drivers/STM32F0xx_HAL_Driver/Src/stm32f0xx_hal_pcd.c ****   * @retval HAL status
 627:Drivers/STM32F0xx_HAL_Driver/Src/stm32f0xx_hal_pcd.c ****   */
 628:Drivers/STM32F0xx_HAL_Driver/Src/stm32f0xx_hal_pcd.c **** HAL_StatusTypeDef HAL_PCD_SetAddress(PCD_HandleTypeDef *hpcd, uint8_t address)
 629:Drivers/STM32F0xx_HAL_Driver/Src/stm32f0xx_hal_pcd.c **** {
 855              		.loc 1 629 1 is_stmt 1 view -0
ARM GAS  /tmp/ccHm7VQo.s 			page 28


 856              		.cfi_startproc
 857              		@ args = 0, pretend = 0, frame = 0
 858              		@ frame_needed = 0, uses_anonymous_args = 0
 859              		@ link register save eliminated.
 630:Drivers/STM32F0xx_HAL_Driver/Src/stm32f0xx_hal_pcd.c ****    __HAL_LOCK(hpcd); 
 860              		.loc 1 630 4 view .LVU187
 861              		.loc 1 630 4 view .LVU188
 862 0000 F423     		movs	r3, #244
 863 0002 5B00     		lsls	r3, r3, #1
 864 0004 C35C     		ldrb	r3, [r0, r3]
 865 0006 012B     		cmp	r3, #1
 866 0008 13D0     		beq	.L47
 867              		.loc 1 630 4 discriminator 2 view .LVU189
 868 000a F423     		movs	r3, #244
 869 000c 5B00     		lsls	r3, r3, #1
 870 000e 0122     		movs	r2, #1
 871 0010 C254     		strb	r2, [r0, r3]
 631:Drivers/STM32F0xx_HAL_Driver/Src/stm32f0xx_hal_pcd.c **** 
 632:Drivers/STM32F0xx_HAL_Driver/Src/stm32f0xx_hal_pcd.c ****    if(address == 0U) 
 872              		.loc 1 632 4 discriminator 2 view .LVU190
 873              		.loc 1 632 6 is_stmt 0 discriminator 2 view .LVU191
 874 0012 0029     		cmp	r1, #0
 875 0014 0AD1     		bne	.L45
 633:Drivers/STM32F0xx_HAL_Driver/Src/stm32f0xx_hal_pcd.c ****    {
 634:Drivers/STM32F0xx_HAL_Driver/Src/stm32f0xx_hal_pcd.c ****      /* set device address and enable function */
 635:Drivers/STM32F0xx_HAL_Driver/Src/stm32f0xx_hal_pcd.c ****      hpcd->Instance->DADDR = USB_DADDR_EF;
 876              		.loc 1 635 6 is_stmt 1 view .LVU192
 877              		.loc 1 635 28 is_stmt 0 view .LVU193
 878 0016 9D3B     		subs	r3, r3, #157
 879 0018 FF3B     		subs	r3, r3, #255
 880 001a 7F32     		adds	r2, r2, #127
 881 001c 0168     		ldr	r1, [r0]
 882              	.LVL51:
 883              		.loc 1 635 28 view .LVU194
 884 001e CA52     		strh	r2, [r1, r3]
 885              	.L46:
 636:Drivers/STM32F0xx_HAL_Driver/Src/stm32f0xx_hal_pcd.c ****    }
 637:Drivers/STM32F0xx_HAL_Driver/Src/stm32f0xx_hal_pcd.c ****    else /* USB Address will be applied later */
 638:Drivers/STM32F0xx_HAL_Driver/Src/stm32f0xx_hal_pcd.c ****    {
 639:Drivers/STM32F0xx_HAL_Driver/Src/stm32f0xx_hal_pcd.c ****      hpcd->USB_Address = address;
 640:Drivers/STM32F0xx_HAL_Driver/Src/stm32f0xx_hal_pcd.c ****    }
 641:Drivers/STM32F0xx_HAL_Driver/Src/stm32f0xx_hal_pcd.c **** 
 642:Drivers/STM32F0xx_HAL_Driver/Src/stm32f0xx_hal_pcd.c ****   __HAL_UNLOCK(hpcd);   
 886              		.loc 1 642 3 is_stmt 1 view .LVU195
 887              		.loc 1 642 3 view .LVU196
 888 0020 F423     		movs	r3, #244
 889 0022 5B00     		lsls	r3, r3, #1
 890 0024 0022     		movs	r2, #0
 891 0026 C254     		strb	r2, [r0, r3]
 643:Drivers/STM32F0xx_HAL_Driver/Src/stm32f0xx_hal_pcd.c ****   return HAL_OK;
 892              		.loc 1 643 3 view .LVU197
 893              		.loc 1 643 10 is_stmt 0 view .LVU198
 894 0028 0020     		movs	r0, #0
 895              	.LVL52:
 896              	.L44:
 644:Drivers/STM32F0xx_HAL_Driver/Src/stm32f0xx_hal_pcd.c **** }
 897              		.loc 1 644 1 view .LVU199
ARM GAS  /tmp/ccHm7VQo.s 			page 29


 898              		@ sp needed
 899 002a 7047     		bx	lr
 900              	.LVL53:
 901              	.L45:
 639:Drivers/STM32F0xx_HAL_Driver/Src/stm32f0xx_hal_pcd.c ****    }
 902              		.loc 1 639 6 is_stmt 1 view .LVU200
 639:Drivers/STM32F0xx_HAL_Driver/Src/stm32f0xx_hal_pcd.c ****    }
 903              		.loc 1 639 24 is_stmt 0 view .LVU201
 904 002c 2423     		movs	r3, #36
 905 002e C154     		strb	r1, [r0, r3]
 906 0030 F6E7     		b	.L46
 907              	.L47:
 630:Drivers/STM32F0xx_HAL_Driver/Src/stm32f0xx_hal_pcd.c **** 
 908              		.loc 1 630 4 view .LVU202
 909 0032 0220     		movs	r0, #2
 910              	.LVL54:
 630:Drivers/STM32F0xx_HAL_Driver/Src/stm32f0xx_hal_pcd.c **** 
 911              		.loc 1 630 4 view .LVU203
 912 0034 F9E7     		b	.L44
 913              		.cfi_endproc
 914              	.LFE57:
 916              		.section	.text.HAL_PCD_EP_Open,"ax",%progbits
 917              		.align	1
 918              		.global	HAL_PCD_EP_Open
 919              		.syntax unified
 920              		.code	16
 921              		.thumb_func
 922              		.fpu softvfp
 924              	HAL_PCD_EP_Open:
 925              	.LVL55:
 926              	.LFB58:
 645:Drivers/STM32F0xx_HAL_Driver/Src/stm32f0xx_hal_pcd.c **** /**
 646:Drivers/STM32F0xx_HAL_Driver/Src/stm32f0xx_hal_pcd.c ****   * @brief  Open and configure an endpoint
 647:Drivers/STM32F0xx_HAL_Driver/Src/stm32f0xx_hal_pcd.c ****   * @param  hpcd PCD handle
 648:Drivers/STM32F0xx_HAL_Driver/Src/stm32f0xx_hal_pcd.c ****   * @param  ep_addr endpoint address
 649:Drivers/STM32F0xx_HAL_Driver/Src/stm32f0xx_hal_pcd.c ****   * @param  ep_mps endpoint max packert size
 650:Drivers/STM32F0xx_HAL_Driver/Src/stm32f0xx_hal_pcd.c ****   * @param  ep_type endpoint type   
 651:Drivers/STM32F0xx_HAL_Driver/Src/stm32f0xx_hal_pcd.c ****   * @retval HAL status
 652:Drivers/STM32F0xx_HAL_Driver/Src/stm32f0xx_hal_pcd.c ****   */
 653:Drivers/STM32F0xx_HAL_Driver/Src/stm32f0xx_hal_pcd.c **** HAL_StatusTypeDef HAL_PCD_EP_Open(PCD_HandleTypeDef *hpcd, uint8_t ep_addr, uint16_t ep_mps, uint8_
 654:Drivers/STM32F0xx_HAL_Driver/Src/stm32f0xx_hal_pcd.c **** {
 927              		.loc 1 654 1 is_stmt 1 view -0
 928              		.cfi_startproc
 929              		@ args = 0, pretend = 0, frame = 0
 930              		@ frame_needed = 0, uses_anonymous_args = 0
 931              		.loc 1 654 1 is_stmt 0 view .LVU205
 932 0000 F0B5     		push	{r4, r5, r6, r7, lr}
 933              	.LCFI5:
 934              		.cfi_def_cfa_offset 20
 935              		.cfi_offset 4, -20
 936              		.cfi_offset 5, -16
 937              		.cfi_offset 6, -12
 938              		.cfi_offset 7, -8
 939              		.cfi_offset 14, -4
 655:Drivers/STM32F0xx_HAL_Driver/Src/stm32f0xx_hal_pcd.c ****   HAL_StatusTypeDef  ret = HAL_OK;
 940              		.loc 1 655 3 is_stmt 1 view .LVU206
 941              	.LVL56:
ARM GAS  /tmp/ccHm7VQo.s 			page 30


 656:Drivers/STM32F0xx_HAL_Driver/Src/stm32f0xx_hal_pcd.c ****   PCD_EPTypeDef *ep;
 942              		.loc 1 656 3 view .LVU207
 657:Drivers/STM32F0xx_HAL_Driver/Src/stm32f0xx_hal_pcd.c ****   
 658:Drivers/STM32F0xx_HAL_Driver/Src/stm32f0xx_hal_pcd.c ****   if ((ep_addr & 0x80U) == 0x80U)
 943              		.loc 1 658 3 view .LVU208
 944              		.loc 1 658 25 is_stmt 0 view .LVU209
 945 0002 4DB2     		sxtb	r5, r1
 946              		.loc 1 658 6 view .LVU210
 947 0004 002D     		cmp	r5, #0
 948 0006 2BDB     		blt	.L73
 659:Drivers/STM32F0xx_HAL_Driver/Src/stm32f0xx_hal_pcd.c ****   {
 660:Drivers/STM32F0xx_HAL_Driver/Src/stm32f0xx_hal_pcd.c ****     ep = &hpcd->IN_ep[ep_addr & 0x7FU];
 661:Drivers/STM32F0xx_HAL_Driver/Src/stm32f0xx_hal_pcd.c ****   }
 662:Drivers/STM32F0xx_HAL_Driver/Src/stm32f0xx_hal_pcd.c ****   else
 663:Drivers/STM32F0xx_HAL_Driver/Src/stm32f0xx_hal_pcd.c ****   {
 664:Drivers/STM32F0xx_HAL_Driver/Src/stm32f0xx_hal_pcd.c ****     ep = &hpcd->OUT_ep[ep_addr & 0x7FU];
 949              		.loc 1 664 5 is_stmt 1 view .LVU211
 950              		.loc 1 664 32 is_stmt 0 view .LVU212
 951 0008 7F26     		movs	r6, #127
 952 000a 0E40     		ands	r6, r1
 953              		.loc 1 664 8 view .LVU213
 954 000c F400     		lsls	r4, r6, #3
 955 000e A41B     		subs	r4, r4, r6
 956 0010 A400     		lsls	r4, r4, #2
 957 0012 0934     		adds	r4, r4, #9
 958 0014 FF34     		adds	r4, r4, #255
 959 0016 0419     		adds	r4, r0, r4
 960              	.LVL57:
 961              	.L50:
 665:Drivers/STM32F0xx_HAL_Driver/Src/stm32f0xx_hal_pcd.c ****   }
 666:Drivers/STM32F0xx_HAL_Driver/Src/stm32f0xx_hal_pcd.c ****   ep->num   = ep_addr & 0x7FU;
 962              		.loc 1 666 3 is_stmt 1 view .LVU214
 963              		.loc 1 666 23 is_stmt 0 view .LVU215
 964 0018 7F26     		movs	r6, #127
 965 001a 3140     		ands	r1, r6
 966              	.LVL58:
 967              		.loc 1 666 13 view .LVU216
 968 001c 2170     		strb	r1, [r4]
 667:Drivers/STM32F0xx_HAL_Driver/Src/stm32f0xx_hal_pcd.c ****   
 668:Drivers/STM32F0xx_HAL_Driver/Src/stm32f0xx_hal_pcd.c ****   ep->is_in = (0x80U & ep_addr) != 0U;
 969              		.loc 1 668 3 is_stmt 1 view .LVU217
 970              		.loc 1 668 33 is_stmt 0 view .LVU218
 971 001e ED0F     		lsrs	r5, r5, #31
 972              	.LVL59:
 973              		.loc 1 668 13 view .LVU219
 974 0020 6570     		strb	r5, [r4, #1]
 669:Drivers/STM32F0xx_HAL_Driver/Src/stm32f0xx_hal_pcd.c ****   ep->maxpacket = ep_mps;
 975              		.loc 1 669 3 is_stmt 1 view .LVU220
 976              		.loc 1 669 17 is_stmt 0 view .LVU221
 977 0022 E260     		str	r2, [r4, #12]
 670:Drivers/STM32F0xx_HAL_Driver/Src/stm32f0xx_hal_pcd.c ****   ep->type = ep_type;
 978              		.loc 1 670 3 is_stmt 1 view .LVU222
 979              		.loc 1 670 12 is_stmt 0 view .LVU223
 980 0024 E370     		strb	r3, [r4, #3]
 671:Drivers/STM32F0xx_HAL_Driver/Src/stm32f0xx_hal_pcd.c ****   
 672:Drivers/STM32F0xx_HAL_Driver/Src/stm32f0xx_hal_pcd.c ****   __HAL_LOCK(hpcd); 
 981              		.loc 1 672 3 is_stmt 1 view .LVU224
ARM GAS  /tmp/ccHm7VQo.s 			page 31


 982              		.loc 1 672 3 view .LVU225
 983 0026 F423     		movs	r3, #244
 984              	.LVL60:
 985              		.loc 1 672 3 is_stmt 0 view .LVU226
 986 0028 5B00     		lsls	r3, r3, #1
 987 002a C35C     		ldrb	r3, [r0, r3]
 988 002c 012B     		cmp	r3, #1
 989 002e 00D1     		bne	.LCB755
 990 0030 50E1     		b	.L72	@long jump
 991              	.LCB755:
 992              		.loc 1 672 3 is_stmt 1 discriminator 2 view .LVU227
 993 0032 F423     		movs	r3, #244
 994 0034 5B00     		lsls	r3, r3, #1
 995 0036 0122     		movs	r2, #1
 996              	.LVL61:
 997              		.loc 1 672 3 is_stmt 0 discriminator 2 view .LVU228
 998 0038 C254     		strb	r2, [r0, r3]
 999              	.LVL62:
 673:Drivers/STM32F0xx_HAL_Driver/Src/stm32f0xx_hal_pcd.c **** 
 674:Drivers/STM32F0xx_HAL_Driver/Src/stm32f0xx_hal_pcd.c ****   /* initialize Endpoint */
 675:Drivers/STM32F0xx_HAL_Driver/Src/stm32f0xx_hal_pcd.c ****   switch (ep->type)
 1000              		.loc 1 675 3 is_stmt 1 discriminator 2 view .LVU229
 1001              		.loc 1 675 13 is_stmt 0 discriminator 2 view .LVU230
 1002 003a E378     		ldrb	r3, [r4, #3]
 1003              		.loc 1 675 3 discriminator 2 view .LVU231
 1004 003c 022B     		cmp	r3, #2
 1005 003e 00D1     		bne	.LCB768
 1006 0040 67E0     		b	.L52	@long jump
 1007              	.LCB768:
 1008              		.loc 1 675 3 view .LVU232
 1009 0042 15D8     		bhi	.L53
 1010 0044 002B     		cmp	r3, #0
 1011 0046 1FD0     		beq	.L54
 1012 0048 012B     		cmp	r3, #1
 1013 004a 26D1     		bne	.L56
 676:Drivers/STM32F0xx_HAL_Driver/Src/stm32f0xx_hal_pcd.c ****   {
 677:Drivers/STM32F0xx_HAL_Driver/Src/stm32f0xx_hal_pcd.c ****   case PCD_EP_TYPE_CTRL:
 678:Drivers/STM32F0xx_HAL_Driver/Src/stm32f0xx_hal_pcd.c ****     PCD_SET_EPTYPE(hpcd->Instance, ep->num, USB_EP_CONTROL);
 679:Drivers/STM32F0xx_HAL_Driver/Src/stm32f0xx_hal_pcd.c ****     break;
 680:Drivers/STM32F0xx_HAL_Driver/Src/stm32f0xx_hal_pcd.c ****   case PCD_EP_TYPE_BULK:
 681:Drivers/STM32F0xx_HAL_Driver/Src/stm32f0xx_hal_pcd.c ****     PCD_SET_EPTYPE(hpcd->Instance, ep->num, USB_EP_BULK);
 682:Drivers/STM32F0xx_HAL_Driver/Src/stm32f0xx_hal_pcd.c ****     break;
 683:Drivers/STM32F0xx_HAL_Driver/Src/stm32f0xx_hal_pcd.c ****   case PCD_EP_TYPE_INTR:
 684:Drivers/STM32F0xx_HAL_Driver/Src/stm32f0xx_hal_pcd.c ****     PCD_SET_EPTYPE(hpcd->Instance, ep->num, USB_EP_INTERRUPT);
 685:Drivers/STM32F0xx_HAL_Driver/Src/stm32f0xx_hal_pcd.c ****     break;
 686:Drivers/STM32F0xx_HAL_Driver/Src/stm32f0xx_hal_pcd.c ****   case PCD_EP_TYPE_ISOC:
 687:Drivers/STM32F0xx_HAL_Driver/Src/stm32f0xx_hal_pcd.c ****     PCD_SET_EPTYPE(hpcd->Instance, ep->num, USB_EP_ISOCHRONOUS);
 1014              		.loc 1 687 5 is_stmt 1 view .LVU233
 1015 004c 0568     		ldr	r5, [r0]
 1016 004e 2378     		ldrb	r3, [r4]
 1017 0050 9B00     		lsls	r3, r3, #2
 1018 0052 EA5A     		ldrh	r2, [r5, r3]
 1019 0054 A049     		ldr	r1, .L74
 1020 0056 1140     		ands	r1, r2
 1021 0058 A04A     		ldr	r2, .L74+4
 1022 005a 0A43     		orrs	r2, r1
 1023 005c EA52     		strh	r2, [r5, r3]
ARM GAS  /tmp/ccHm7VQo.s 			page 32


 688:Drivers/STM32F0xx_HAL_Driver/Src/stm32f0xx_hal_pcd.c ****     break;
 1024              		.loc 1 688 5 view .LVU234
 1025 005e 1CE0     		b	.L56
 1026              	.LVL63:
 1027              	.L73:
 660:Drivers/STM32F0xx_HAL_Driver/Src/stm32f0xx_hal_pcd.c ****   }
 1028              		.loc 1 660 5 view .LVU235
 660:Drivers/STM32F0xx_HAL_Driver/Src/stm32f0xx_hal_pcd.c ****   }
 1029              		.loc 1 660 31 is_stmt 0 view .LVU236
 1030 0060 7F26     		movs	r6, #127
 1031 0062 0E40     		ands	r6, r1
 660:Drivers/STM32F0xx_HAL_Driver/Src/stm32f0xx_hal_pcd.c ****   }
 1032              		.loc 1 660 8 view .LVU237
 1033 0064 F400     		lsls	r4, r6, #3
 1034 0066 A41B     		subs	r4, r4, r6
 1035 0068 A400     		lsls	r4, r4, #2
 1036 006a 2834     		adds	r4, r4, #40
 1037 006c 0419     		adds	r4, r0, r4
 1038              	.LVL64:
 660:Drivers/STM32F0xx_HAL_Driver/Src/stm32f0xx_hal_pcd.c ****   }
 1039              		.loc 1 660 8 view .LVU238
 1040 006e D3E7     		b	.L50
 1041              	.LVL65:
 1042              	.L53:
 675:Drivers/STM32F0xx_HAL_Driver/Src/stm32f0xx_hal_pcd.c ****   {
 1043              		.loc 1 675 3 view .LVU239
 1044 0070 032B     		cmp	r3, #3
 1045 0072 12D1     		bne	.L56
 684:Drivers/STM32F0xx_HAL_Driver/Src/stm32f0xx_hal_pcd.c ****     break;
 1046              		.loc 1 684 5 is_stmt 1 view .LVU240
 1047 0074 0568     		ldr	r5, [r0]
 1048 0076 2378     		ldrb	r3, [r4]
 1049 0078 9B00     		lsls	r3, r3, #2
 1050 007a EA5A     		ldrh	r2, [r5, r3]
 1051 007c 9649     		ldr	r1, .L74
 1052 007e 1140     		ands	r1, r2
 1053 0080 974A     		ldr	r2, .L74+8
 1054 0082 0A43     		orrs	r2, r1
 1055 0084 EA52     		strh	r2, [r5, r3]
 685:Drivers/STM32F0xx_HAL_Driver/Src/stm32f0xx_hal_pcd.c ****   case PCD_EP_TYPE_ISOC:
 1056              		.loc 1 685 5 view .LVU241
 1057 0086 08E0     		b	.L56
 1058              	.L54:
 678:Drivers/STM32F0xx_HAL_Driver/Src/stm32f0xx_hal_pcd.c ****     break;
 1059              		.loc 1 678 5 view .LVU242
 1060 0088 0568     		ldr	r5, [r0]
 1061 008a 2378     		ldrb	r3, [r4]
 1062 008c 9B00     		lsls	r3, r3, #2
 1063 008e EA5A     		ldrh	r2, [r5, r3]
 1064 0090 9149     		ldr	r1, .L74
 1065 0092 1140     		ands	r1, r2
 1066 0094 934A     		ldr	r2, .L74+12
 1067 0096 0A43     		orrs	r2, r1
 1068 0098 EA52     		strh	r2, [r5, r3]
 679:Drivers/STM32F0xx_HAL_Driver/Src/stm32f0xx_hal_pcd.c ****   case PCD_EP_TYPE_BULK:
 1069              		.loc 1 679 5 view .LVU243
 1070              	.L56:
ARM GAS  /tmp/ccHm7VQo.s 			page 33


 689:Drivers/STM32F0xx_HAL_Driver/Src/stm32f0xx_hal_pcd.c ****   default:
 690:Drivers/STM32F0xx_HAL_Driver/Src/stm32f0xx_hal_pcd.c ****     break;
 691:Drivers/STM32F0xx_HAL_Driver/Src/stm32f0xx_hal_pcd.c ****   } 
 692:Drivers/STM32F0xx_HAL_Driver/Src/stm32f0xx_hal_pcd.c ****   
 693:Drivers/STM32F0xx_HAL_Driver/Src/stm32f0xx_hal_pcd.c ****   PCD_SET_EP_ADDRESS(hpcd->Instance, ep->num, ep->num);
 1071              		.loc 1 693 3 view .LVU244
 1072 009a 0168     		ldr	r1, [r0]
 1073 009c 2378     		ldrb	r3, [r4]
 1074 009e 9D00     		lsls	r5, r3, #2
 1075 00a0 4A5B     		ldrh	r2, [r1, r5]
 1076 00a2 914E     		ldr	r6, .L74+16
 1077 00a4 3240     		ands	r2, r6
 1078 00a6 1343     		orrs	r3, r2
 1079 00a8 904A     		ldr	r2, .L74+20
 1080 00aa 1343     		orrs	r3, r2
 1081 00ac 4B53     		strh	r3, [r1, r5]
 694:Drivers/STM32F0xx_HAL_Driver/Src/stm32f0xx_hal_pcd.c ****   
 695:Drivers/STM32F0xx_HAL_Driver/Src/stm32f0xx_hal_pcd.c ****   if (ep->doublebuffer == 0U) 
 1082              		.loc 1 695 3 view .LVU245
 1083              		.loc 1 695 9 is_stmt 0 view .LVU246
 1084 00ae A37A     		ldrb	r3, [r4, #10]
 1085              		.loc 1 695 6 view .LVU247
 1086 00b0 002B     		cmp	r3, #0
 1087 00b2 00D0     		beq	.LCB876
 1088 00b4 7EE0     		b	.L58	@long jump
 1089              	.LCB876:
 696:Drivers/STM32F0xx_HAL_Driver/Src/stm32f0xx_hal_pcd.c ****   {
 697:Drivers/STM32F0xx_HAL_Driver/Src/stm32f0xx_hal_pcd.c ****     if (ep->is_in)
 1090              		.loc 1 697 5 is_stmt 1 view .LVU248
 1091              		.loc 1 697 11 is_stmt 0 view .LVU249
 1092 00b6 6378     		ldrb	r3, [r4, #1]
 1093              		.loc 1 697 8 view .LVU250
 1094 00b8 002B     		cmp	r3, #0
 1095 00ba 34D0     		beq	.L59
 698:Drivers/STM32F0xx_HAL_Driver/Src/stm32f0xx_hal_pcd.c ****     {
 699:Drivers/STM32F0xx_HAL_Driver/Src/stm32f0xx_hal_pcd.c ****       /*Set the endpoint Transmit buffer address */
 700:Drivers/STM32F0xx_HAL_Driver/Src/stm32f0xx_hal_pcd.c ****       PCD_SET_EP_TX_ADDRESS(hpcd->Instance, ep->num, ep->pmaadress);
 1096              		.loc 1 700 7 is_stmt 1 view .LVU251
 1097 00bc A288     		ldrh	r2, [r4, #4]
 1098 00be 0568     		ldr	r5, [r0]
 1099 00c0 5023     		movs	r3, #80
 1100 00c2 EB5A     		ldrh	r3, [r5, r3]
 1101 00c4 2178     		ldrb	r1, [r4]
 1102 00c6 C900     		lsls	r1, r1, #3
 1103 00c8 5B18     		adds	r3, r3, r1
 1104 00ca 5B19     		adds	r3, r3, r5
 1105 00cc 8021     		movs	r1, #128
 1106 00ce C900     		lsls	r1, r1, #3
 1107 00d0 8C46     		mov	ip, r1
 1108 00d2 6344     		add	r3, r3, ip
 1109 00d4 0121     		movs	r1, #1
 1110 00d6 8A43     		bics	r2, r1
 1111 00d8 1A80     		strh	r2, [r3]
 701:Drivers/STM32F0xx_HAL_Driver/Src/stm32f0xx_hal_pcd.c ****       PCD_CLEAR_TX_DTOG(hpcd->Instance, ep->num)
 1112              		.loc 1 701 7 view .LVU252
 1113 00da 0268     		ldr	r2, [r0]
 1114 00dc 2378     		ldrb	r3, [r4]
ARM GAS  /tmp/ccHm7VQo.s 			page 34


 1115 00de 9B00     		lsls	r3, r3, #2
 1116 00e0 D118     		adds	r1, r2, r3
 1117 00e2 D35A     		ldrh	r3, [r2, r3]
 1118 00e4 5A06     		lsls	r2, r3, #25
 1119 00e6 03D5     		bpl	.L60
 1120              		.loc 1 701 7 discriminator 1 view .LVU253
 1121 00e8 3340     		ands	r3, r6
 1122 00ea 814A     		ldr	r2, .L74+24
 1123 00ec 1343     		orrs	r3, r2
 1124 00ee 0B80     		strh	r3, [r1]
 1125              	.L60:
 1126              	.LBB2:
 702:Drivers/STM32F0xx_HAL_Driver/Src/stm32f0xx_hal_pcd.c ****       /* Configure NAK status for the Endpoint*/
 703:Drivers/STM32F0xx_HAL_Driver/Src/stm32f0xx_hal_pcd.c ****       PCD_SET_EP_TX_STATUS(hpcd->Instance, ep->num, USB_EP_TX_NAK) 
 1127              		.loc 1 703 7 view .LVU254
 1128              		.loc 1 703 7 view .LVU255
 1129 00f0 0168     		ldr	r1, [r0]
 1130 00f2 2278     		ldrb	r2, [r4]
 1131 00f4 9200     		lsls	r2, r2, #2
 1132 00f6 8B5A     		ldrh	r3, [r1, r2]
 1133 00f8 7E4C     		ldr	r4, .L74+28
 1134              	.LVL66:
 1135              		.loc 1 703 7 is_stmt 0 view .LVU256
 1136 00fa 2340     		ands	r3, r4
 1137              	.LVL67:
 1138              		.loc 1 703 7 is_stmt 1 view .LVU257
 1139              		.loc 1 703 7 view .LVU258
 1140              		.loc 1 703 7 view .LVU259
 1141 00fc 2024     		movs	r4, #32
 1142 00fe 6340     		eors	r3, r4
 1143              	.LVL68:
 1144              		.loc 1 703 7 view .LVU260
 1145 0100 7A4C     		ldr	r4, .L74+20
 1146 0102 2343     		orrs	r3, r4
 1147              	.LVL69:
 1148              		.loc 1 703 7 is_stmt 0 view .LVU261
 1149 0104 8B52     		strh	r3, [r1, r2]
 1150              	.L61:
 1151              		.loc 1 703 7 view .LVU262
 1152              	.LBE2:
 704:Drivers/STM32F0xx_HAL_Driver/Src/stm32f0xx_hal_pcd.c ****     }
 705:Drivers/STM32F0xx_HAL_Driver/Src/stm32f0xx_hal_pcd.c ****     else
 706:Drivers/STM32F0xx_HAL_Driver/Src/stm32f0xx_hal_pcd.c ****     {
 707:Drivers/STM32F0xx_HAL_Driver/Src/stm32f0xx_hal_pcd.c ****       /*Set the endpoint Receive buffer address */
 708:Drivers/STM32F0xx_HAL_Driver/Src/stm32f0xx_hal_pcd.c ****       PCD_SET_EP_RX_ADDRESS(hpcd->Instance, ep->num, ep->pmaadress);
 709:Drivers/STM32F0xx_HAL_Driver/Src/stm32f0xx_hal_pcd.c ****       /*Set the endpoint Receive buffer counter*/
 710:Drivers/STM32F0xx_HAL_Driver/Src/stm32f0xx_hal_pcd.c ****       PCD_SET_EP_RX_CNT(hpcd->Instance, ep->num, ep->maxpacket)
 711:Drivers/STM32F0xx_HAL_Driver/Src/stm32f0xx_hal_pcd.c ****       PCD_CLEAR_RX_DTOG(hpcd->Instance, ep->num)
 712:Drivers/STM32F0xx_HAL_Driver/Src/stm32f0xx_hal_pcd.c ****       /* Configure VALID status for the Endpoint*/
 713:Drivers/STM32F0xx_HAL_Driver/Src/stm32f0xx_hal_pcd.c ****       PCD_SET_EP_RX_STATUS(hpcd->Instance, ep->num, USB_EP_RX_VALID)
 714:Drivers/STM32F0xx_HAL_Driver/Src/stm32f0xx_hal_pcd.c ****     }
 715:Drivers/STM32F0xx_HAL_Driver/Src/stm32f0xx_hal_pcd.c ****   }
 716:Drivers/STM32F0xx_HAL_Driver/Src/stm32f0xx_hal_pcd.c ****   /*Double Buffer*/
 717:Drivers/STM32F0xx_HAL_Driver/Src/stm32f0xx_hal_pcd.c ****   else
 718:Drivers/STM32F0xx_HAL_Driver/Src/stm32f0xx_hal_pcd.c ****   {
 719:Drivers/STM32F0xx_HAL_Driver/Src/stm32f0xx_hal_pcd.c ****     /*Set the endpoint as double buffered*/
 720:Drivers/STM32F0xx_HAL_Driver/Src/stm32f0xx_hal_pcd.c ****     PCD_SET_EP_DBUF(hpcd->Instance, ep->num);
ARM GAS  /tmp/ccHm7VQo.s 			page 35


 721:Drivers/STM32F0xx_HAL_Driver/Src/stm32f0xx_hal_pcd.c ****     /*Set buffer address for double buffered mode*/
 722:Drivers/STM32F0xx_HAL_Driver/Src/stm32f0xx_hal_pcd.c ****     PCD_SET_EP_DBUF_ADDR(hpcd->Instance, ep->num,ep->pmaaddr0, ep->pmaaddr1)
 723:Drivers/STM32F0xx_HAL_Driver/Src/stm32f0xx_hal_pcd.c ****     
 724:Drivers/STM32F0xx_HAL_Driver/Src/stm32f0xx_hal_pcd.c ****     if (ep->is_in==0U)
 725:Drivers/STM32F0xx_HAL_Driver/Src/stm32f0xx_hal_pcd.c ****     {
 726:Drivers/STM32F0xx_HAL_Driver/Src/stm32f0xx_hal_pcd.c ****       /* Clear the data toggle bits for the endpoint IN/OUT*/
 727:Drivers/STM32F0xx_HAL_Driver/Src/stm32f0xx_hal_pcd.c ****       PCD_CLEAR_RX_DTOG(hpcd->Instance, ep->num)
 728:Drivers/STM32F0xx_HAL_Driver/Src/stm32f0xx_hal_pcd.c ****       PCD_CLEAR_TX_DTOG(hpcd->Instance, ep->num)
 729:Drivers/STM32F0xx_HAL_Driver/Src/stm32f0xx_hal_pcd.c ****       
 730:Drivers/STM32F0xx_HAL_Driver/Src/stm32f0xx_hal_pcd.c ****       /* Reset value of the data toggle bits for the endpoint out*/
 731:Drivers/STM32F0xx_HAL_Driver/Src/stm32f0xx_hal_pcd.c ****       PCD_TX_DTOG(hpcd->Instance, ep->num);
 732:Drivers/STM32F0xx_HAL_Driver/Src/stm32f0xx_hal_pcd.c ****       
 733:Drivers/STM32F0xx_HAL_Driver/Src/stm32f0xx_hal_pcd.c ****       PCD_SET_EP_RX_STATUS(hpcd->Instance, ep->num, USB_EP_RX_VALID)
 734:Drivers/STM32F0xx_HAL_Driver/Src/stm32f0xx_hal_pcd.c ****       PCD_SET_EP_TX_STATUS(hpcd->Instance, ep->num, USB_EP_TX_DIS)
 735:Drivers/STM32F0xx_HAL_Driver/Src/stm32f0xx_hal_pcd.c ****     }
 736:Drivers/STM32F0xx_HAL_Driver/Src/stm32f0xx_hal_pcd.c ****     else
 737:Drivers/STM32F0xx_HAL_Driver/Src/stm32f0xx_hal_pcd.c ****     {
 738:Drivers/STM32F0xx_HAL_Driver/Src/stm32f0xx_hal_pcd.c ****       /* Clear the data toggle bits for the endpoint IN/OUT*/
 739:Drivers/STM32F0xx_HAL_Driver/Src/stm32f0xx_hal_pcd.c ****       PCD_CLEAR_RX_DTOG(hpcd->Instance, ep->num)
 740:Drivers/STM32F0xx_HAL_Driver/Src/stm32f0xx_hal_pcd.c ****       PCD_CLEAR_TX_DTOG(hpcd->Instance, ep->num)
 741:Drivers/STM32F0xx_HAL_Driver/Src/stm32f0xx_hal_pcd.c ****       PCD_RX_DTOG(hpcd->Instance, ep->num);
 742:Drivers/STM32F0xx_HAL_Driver/Src/stm32f0xx_hal_pcd.c ****       /* Configure DISABLE status for the Endpoint*/
 743:Drivers/STM32F0xx_HAL_Driver/Src/stm32f0xx_hal_pcd.c ****       PCD_SET_EP_TX_STATUS(hpcd->Instance, ep->num, USB_EP_TX_DIS)
 744:Drivers/STM32F0xx_HAL_Driver/Src/stm32f0xx_hal_pcd.c ****       PCD_SET_EP_RX_STATUS(hpcd->Instance, ep->num, USB_EP_RX_DIS)
 745:Drivers/STM32F0xx_HAL_Driver/Src/stm32f0xx_hal_pcd.c ****     }
 746:Drivers/STM32F0xx_HAL_Driver/Src/stm32f0xx_hal_pcd.c ****   } 
 747:Drivers/STM32F0xx_HAL_Driver/Src/stm32f0xx_hal_pcd.c ****   
 748:Drivers/STM32F0xx_HAL_Driver/Src/stm32f0xx_hal_pcd.c ****   __HAL_UNLOCK(hpcd);   
 1153              		.loc 1 748 3 is_stmt 1 view .LVU263
 1154              		.loc 1 748 3 view .LVU264
 1155 0106 F423     		movs	r3, #244
 1156 0108 5B00     		lsls	r3, r3, #1
 1157 010a 0022     		movs	r2, #0
 1158 010c C254     		strb	r2, [r0, r3]
 749:Drivers/STM32F0xx_HAL_Driver/Src/stm32f0xx_hal_pcd.c ****   return ret;
 1159              		.loc 1 749 3 view .LVU265
 1160              		.loc 1 749 10 is_stmt 0 view .LVU266
 1161 010e 0020     		movs	r0, #0
 1162              	.LVL70:
 1163              	.L51:
 750:Drivers/STM32F0xx_HAL_Driver/Src/stm32f0xx_hal_pcd.c **** }
 1164              		.loc 1 750 1 view .LVU267
 1165              		@ sp needed
 1166 0110 F0BD     		pop	{r4, r5, r6, r7, pc}
 1167              	.LVL71:
 1168              	.L52:
 681:Drivers/STM32F0xx_HAL_Driver/Src/stm32f0xx_hal_pcd.c ****     break;
 1169              		.loc 1 681 5 is_stmt 1 view .LVU268
 1170 0112 0568     		ldr	r5, [r0]
 1171 0114 2378     		ldrb	r3, [r4]
 1172 0116 9B00     		lsls	r3, r3, #2
 1173 0118 EA5A     		ldrh	r2, [r5, r3]
 1174 011a 6F49     		ldr	r1, .L74
 1175 011c 1140     		ands	r1, r2
 1176 011e 734A     		ldr	r2, .L74+20
 1177 0120 0A43     		orrs	r2, r1
 1178 0122 EA52     		strh	r2, [r5, r3]
ARM GAS  /tmp/ccHm7VQo.s 			page 36


 682:Drivers/STM32F0xx_HAL_Driver/Src/stm32f0xx_hal_pcd.c ****   case PCD_EP_TYPE_INTR:
 1179              		.loc 1 682 5 view .LVU269
 1180 0124 B9E7     		b	.L56
 1181              	.L59:
 708:Drivers/STM32F0xx_HAL_Driver/Src/stm32f0xx_hal_pcd.c ****       /*Set the endpoint Receive buffer counter*/
 1182              		.loc 1 708 7 view .LVU270
 1183 0126 A288     		ldrh	r2, [r4, #4]
 1184 0128 0568     		ldr	r5, [r0]
 1185 012a 5026     		movs	r6, #80
 1186 012c AB5B     		ldrh	r3, [r5, r6]
 1187 012e 2178     		ldrb	r1, [r4]
 1188 0130 C900     		lsls	r1, r1, #3
 1189 0132 5B18     		adds	r3, r3, r1
 1190 0134 5B19     		adds	r3, r3, r5
 1191 0136 7049     		ldr	r1, .L74+32
 1192 0138 8C46     		mov	ip, r1
 1193 013a 6344     		add	r3, r3, ip
 1194 013c 0121     		movs	r1, #1
 1195 013e 8A43     		bics	r2, r1
 1196 0140 1A80     		strh	r2, [r3]
 1197              	.LBB3:
 710:Drivers/STM32F0xx_HAL_Driver/Src/stm32f0xx_hal_pcd.c ****       PCD_CLEAR_RX_DTOG(hpcd->Instance, ep->num)
 1198              		.loc 1 710 7 view .LVU271
 1199 0142 0168     		ldr	r1, [r0]
 1200 0144 8B5B     		ldrh	r3, [r1, r6]
 1201 0146 2278     		ldrb	r2, [r4]
 1202 0148 D200     		lsls	r2, r2, #3
 1203 014a 9B18     		adds	r3, r3, r2
 1204 014c 5B18     		adds	r3, r3, r1
 1205 014e 6B4A     		ldr	r2, .L74+36
 1206 0150 9446     		mov	ip, r2
 1207 0152 6344     		add	r3, r3, ip
 1208              	.LVL72:
 1209              	.LBB4:
 710:Drivers/STM32F0xx_HAL_Driver/Src/stm32f0xx_hal_pcd.c ****       PCD_CLEAR_RX_DTOG(hpcd->Instance, ep->num)
 1210              		.loc 1 710 7 view .LVU272
 710:Drivers/STM32F0xx_HAL_Driver/Src/stm32f0xx_hal_pcd.c ****       PCD_CLEAR_RX_DTOG(hpcd->Instance, ep->num)
 1211              		.loc 1 710 7 view .LVU273
 1212 0154 E168     		ldr	r1, [r4, #12]
 1213 0156 3E29     		cmp	r1, #62
 1214 0158 23D9     		bls	.L62
 710:Drivers/STM32F0xx_HAL_Driver/Src/stm32f0xx_hal_pcd.c ****       PCD_CLEAR_RX_DTOG(hpcd->Instance, ep->num)
 1215              		.loc 1 710 7 discriminator 1 view .LVU274
 1216 015a 4A09     		lsrs	r2, r1, #5
 1217 015c 92B2     		uxth	r2, r2
 1218              	.LVL73:
 710:Drivers/STM32F0xx_HAL_Driver/Src/stm32f0xx_hal_pcd.c ****       PCD_CLEAR_RX_DTOG(hpcd->Instance, ep->num)
 1219              		.loc 1 710 7 discriminator 1 view .LVU275
 1220 015e C906     		lsls	r1, r1, #27
 1221 0160 01D1     		bne	.L63
 710:Drivers/STM32F0xx_HAL_Driver/Src/stm32f0xx_hal_pcd.c ****       PCD_CLEAR_RX_DTOG(hpcd->Instance, ep->num)
 1222              		.loc 1 710 7 discriminator 3 view .LVU276
 1223 0162 013A     		subs	r2, r2, #1
 1224              	.LVL74:
 710:Drivers/STM32F0xx_HAL_Driver/Src/stm32f0xx_hal_pcd.c ****       PCD_CLEAR_RX_DTOG(hpcd->Instance, ep->num)
 1225              		.loc 1 710 7 is_stmt 0 discriminator 3 view .LVU277
 1226 0164 92B2     		uxth	r2, r2
ARM GAS  /tmp/ccHm7VQo.s 			page 37


 1227              	.LVL75:
 1228              	.L63:
 710:Drivers/STM32F0xx_HAL_Driver/Src/stm32f0xx_hal_pcd.c ****       PCD_CLEAR_RX_DTOG(hpcd->Instance, ep->num)
 1229              		.loc 1 710 7 is_stmt 1 discriminator 5 view .LVU278
 1230 0166 9202     		lsls	r2, r2, #10
 1231              	.LVL76:
 710:Drivers/STM32F0xx_HAL_Driver/Src/stm32f0xx_hal_pcd.c ****       PCD_CLEAR_RX_DTOG(hpcd->Instance, ep->num)
 1232              		.loc 1 710 7 is_stmt 0 discriminator 5 view .LVU279
 1233 0168 92B2     		uxth	r2, r2
 1234 016a 6549     		ldr	r1, .L74+40
 1235 016c 0A43     		orrs	r2, r1
 1236 016e 1A80     		strh	r2, [r3]
 1237              	.L64:
 710:Drivers/STM32F0xx_HAL_Driver/Src/stm32f0xx_hal_pcd.c ****       PCD_CLEAR_RX_DTOG(hpcd->Instance, ep->num)
 1238              		.loc 1 710 7 discriminator 5 view .LVU280
 1239              	.LBE4:
 1240              	.LBE3:
 711:Drivers/STM32F0xx_HAL_Driver/Src/stm32f0xx_hal_pcd.c ****       /* Configure VALID status for the Endpoint*/
 1241              		.loc 1 711 7 is_stmt 1 view .LVU281
 1242 0170 0268     		ldr	r2, [r0]
 1243 0172 2378     		ldrb	r3, [r4]
 1244              	.LVL77:
 711:Drivers/STM32F0xx_HAL_Driver/Src/stm32f0xx_hal_pcd.c ****       /* Configure VALID status for the Endpoint*/
 1245              		.loc 1 711 7 is_stmt 0 view .LVU282
 1246 0174 9B00     		lsls	r3, r3, #2
 1247 0176 D118     		adds	r1, r2, r3
 1248 0178 D35A     		ldrh	r3, [r2, r3]
 1249 017a 5A04     		lsls	r2, r3, #17
 1250 017c 04D5     		bpl	.L66
 711:Drivers/STM32F0xx_HAL_Driver/Src/stm32f0xx_hal_pcd.c ****       /* Configure VALID status for the Endpoint*/
 1251              		.loc 1 711 7 is_stmt 1 discriminator 1 view .LVU283
 1252 017e 5A4A     		ldr	r2, .L74+16
 1253 0180 1340     		ands	r3, r2
 1254 0182 604A     		ldr	r2, .L74+44
 1255 0184 1343     		orrs	r3, r2
 1256 0186 0B80     		strh	r3, [r1]
 1257              	.L66:
 1258              	.LBB6:
 713:Drivers/STM32F0xx_HAL_Driver/Src/stm32f0xx_hal_pcd.c ****     }
 1259              		.loc 1 713 7 view .LVU284
 713:Drivers/STM32F0xx_HAL_Driver/Src/stm32f0xx_hal_pcd.c ****     }
 1260              		.loc 1 713 7 view .LVU285
 1261 0188 0568     		ldr	r5, [r0]
 1262 018a 2378     		ldrb	r3, [r4]
 1263 018c 9B00     		lsls	r3, r3, #2
 1264 018e E95A     		ldrh	r1, [r5, r3]
 1265 0190 5D4A     		ldr	r2, .L74+48
 1266 0192 1140     		ands	r1, r2
 1267              	.LVL78:
 713:Drivers/STM32F0xx_HAL_Driver/Src/stm32f0xx_hal_pcd.c ****     }
 1268              		.loc 1 713 7 view .LVU286
 713:Drivers/STM32F0xx_HAL_Driver/Src/stm32f0xx_hal_pcd.c ****     }
 1269              		.loc 1 713 7 view .LVU287
 713:Drivers/STM32F0xx_HAL_Driver/Src/stm32f0xx_hal_pcd.c ****     }
 1270              		.loc 1 713 7 view .LVU288
 713:Drivers/STM32F0xx_HAL_Driver/Src/stm32f0xx_hal_pcd.c ****     }
 1271              		.loc 1 713 7 view .LVU289
ARM GAS  /tmp/ccHm7VQo.s 			page 38


 1272 0194 C022     		movs	r2, #192
 1273 0196 9201     		lsls	r2, r2, #6
 1274 0198 5140     		eors	r1, r2
 1275              	.LVL79:
 713:Drivers/STM32F0xx_HAL_Driver/Src/stm32f0xx_hal_pcd.c ****     }
 1276              		.loc 1 713 7 view .LVU290
 1277 019a 544A     		ldr	r2, .L74+20
 1278 019c 0A43     		orrs	r2, r1
 1279 019e EA52     		strh	r2, [r5, r3]
 1280 01a0 B1E7     		b	.L61
 1281              	.LVL80:
 1282              	.L62:
 713:Drivers/STM32F0xx_HAL_Driver/Src/stm32f0xx_hal_pcd.c ****     }
 1283              		.loc 1 713 7 is_stmt 0 view .LVU291
 1284              	.LBE6:
 1285              	.LBB7:
 1286              	.LBB5:
 710:Drivers/STM32F0xx_HAL_Driver/Src/stm32f0xx_hal_pcd.c ****       PCD_CLEAR_RX_DTOG(hpcd->Instance, ep->num)
 1287              		.loc 1 710 7 is_stmt 1 discriminator 2 view .LVU292
 1288 01a2 4A08     		lsrs	r2, r1, #1
 1289 01a4 92B2     		uxth	r2, r2
 1290              	.LVL81:
 710:Drivers/STM32F0xx_HAL_Driver/Src/stm32f0xx_hal_pcd.c ****       PCD_CLEAR_RX_DTOG(hpcd->Instance, ep->num)
 1291              		.loc 1 710 7 discriminator 2 view .LVU293
 1292 01a6 C907     		lsls	r1, r1, #31
 1293 01a8 01D5     		bpl	.L65
 710:Drivers/STM32F0xx_HAL_Driver/Src/stm32f0xx_hal_pcd.c ****       PCD_CLEAR_RX_DTOG(hpcd->Instance, ep->num)
 1294              		.loc 1 710 7 discriminator 6 view .LVU294
 1295 01aa 0132     		adds	r2, r2, #1
 1296              	.LVL82:
 710:Drivers/STM32F0xx_HAL_Driver/Src/stm32f0xx_hal_pcd.c ****       PCD_CLEAR_RX_DTOG(hpcd->Instance, ep->num)
 1297              		.loc 1 710 7 is_stmt 0 discriminator 6 view .LVU295
 1298 01ac 92B2     		uxth	r2, r2
 1299              	.LVL83:
 1300              	.L65:
 710:Drivers/STM32F0xx_HAL_Driver/Src/stm32f0xx_hal_pcd.c ****       PCD_CLEAR_RX_DTOG(hpcd->Instance, ep->num)
 1301              		.loc 1 710 7 is_stmt 1 discriminator 8 view .LVU296
 1302 01ae 9202     		lsls	r2, r2, #10
 1303              	.LVL84:
 710:Drivers/STM32F0xx_HAL_Driver/Src/stm32f0xx_hal_pcd.c ****       PCD_CLEAR_RX_DTOG(hpcd->Instance, ep->num)
 1304              		.loc 1 710 7 is_stmt 0 discriminator 8 view .LVU297
 1305 01b0 1A80     		strh	r2, [r3]
 1306 01b2 DDE7     		b	.L64
 1307              	.LVL85:
 1308              	.L58:
 710:Drivers/STM32F0xx_HAL_Driver/Src/stm32f0xx_hal_pcd.c ****       PCD_CLEAR_RX_DTOG(hpcd->Instance, ep->num)
 1309              		.loc 1 710 7 discriminator 8 view .LVU298
 1310              	.LBE5:
 1311              	.LBE7:
 720:Drivers/STM32F0xx_HAL_Driver/Src/stm32f0xx_hal_pcd.c ****     /*Set buffer address for double buffered mode*/
 1312              		.loc 1 720 5 is_stmt 1 view .LVU299
 1313 01b4 0568     		ldr	r5, [r0]
 1314 01b6 2378     		ldrb	r3, [r4]
 1315 01b8 9B00     		lsls	r3, r3, #2
 1316 01ba EA5A     		ldrh	r2, [r5, r3]
 1317 01bc 5349     		ldr	r1, .L74+52
 1318 01be 1140     		ands	r1, r2
ARM GAS  /tmp/ccHm7VQo.s 			page 39


 1319 01c0 534A     		ldr	r2, .L74+56
 1320 01c2 0A43     		orrs	r2, r1
 1321 01c4 EA52     		strh	r2, [r5, r3]
 722:Drivers/STM32F0xx_HAL_Driver/Src/stm32f0xx_hal_pcd.c ****     
 1322              		.loc 1 722 5 view .LVU300
 1323 01c6 E288     		ldrh	r2, [r4, #6]
 1324 01c8 0568     		ldr	r5, [r0]
 1325 01ca 5027     		movs	r7, #80
 1326 01cc EB5B     		ldrh	r3, [r5, r7]
 1327 01ce 2178     		ldrb	r1, [r4]
 1328 01d0 C900     		lsls	r1, r1, #3
 1329 01d2 5B18     		adds	r3, r3, r1
 1330 01d4 5B19     		adds	r3, r3, r5
 1331 01d6 8021     		movs	r1, #128
 1332 01d8 C900     		lsls	r1, r1, #3
 1333 01da 8C46     		mov	ip, r1
 1334 01dc 6344     		add	r3, r3, ip
 1335 01de 0126     		movs	r6, #1
 1336 01e0 B243     		bics	r2, r6
 1337 01e2 1A80     		strh	r2, [r3]
 722:Drivers/STM32F0xx_HAL_Driver/Src/stm32f0xx_hal_pcd.c ****     
 1338              		.loc 1 722 5 view .LVU301
 1339 01e4 2289     		ldrh	r2, [r4, #8]
 1340 01e6 0568     		ldr	r5, [r0]
 1341 01e8 EB5B     		ldrh	r3, [r5, r7]
 1342 01ea 2178     		ldrb	r1, [r4]
 1343 01ec C900     		lsls	r1, r1, #3
 1344 01ee 5B18     		adds	r3, r3, r1
 1345 01f0 5B19     		adds	r3, r3, r5
 1346 01f2 4149     		ldr	r1, .L74+32
 1347 01f4 8C46     		mov	ip, r1
 1348 01f6 6344     		add	r3, r3, ip
 1349 01f8 B243     		bics	r2, r6
 1350 01fa 1A80     		strh	r2, [r3]
 724:Drivers/STM32F0xx_HAL_Driver/Src/stm32f0xx_hal_pcd.c ****     {
 1351              		.loc 1 724 5 view .LVU302
 724:Drivers/STM32F0xx_HAL_Driver/Src/stm32f0xx_hal_pcd.c ****     {
 1352              		.loc 1 724 11 is_stmt 0 view .LVU303
 1353 01fc 6378     		ldrb	r3, [r4, #1]
 724:Drivers/STM32F0xx_HAL_Driver/Src/stm32f0xx_hal_pcd.c ****     {
 1354              		.loc 1 724 8 view .LVU304
 1355 01fe 002B     		cmp	r3, #0
 1356 0200 35D1     		bne	.L67
 727:Drivers/STM32F0xx_HAL_Driver/Src/stm32f0xx_hal_pcd.c ****       PCD_CLEAR_TX_DTOG(hpcd->Instance, ep->num)
 1357              		.loc 1 727 7 is_stmt 1 view .LVU305
 1358 0202 0268     		ldr	r2, [r0]
 1359 0204 2378     		ldrb	r3, [r4]
 1360 0206 9B00     		lsls	r3, r3, #2
 1361 0208 D118     		adds	r1, r2, r3
 1362 020a D35A     		ldrh	r3, [r2, r3]
 1363 020c 5A04     		lsls	r2, r3, #17
 1364 020e 04D5     		bpl	.L68
 727:Drivers/STM32F0xx_HAL_Driver/Src/stm32f0xx_hal_pcd.c ****       PCD_CLEAR_TX_DTOG(hpcd->Instance, ep->num)
 1365              		.loc 1 727 7 discriminator 1 view .LVU306
 1366 0210 354A     		ldr	r2, .L74+16
 1367 0212 1340     		ands	r3, r2
 1368 0214 3B4A     		ldr	r2, .L74+44
ARM GAS  /tmp/ccHm7VQo.s 			page 40


 1369 0216 1343     		orrs	r3, r2
 1370 0218 0B80     		strh	r3, [r1]
 1371              	.L68:
 728:Drivers/STM32F0xx_HAL_Driver/Src/stm32f0xx_hal_pcd.c ****       
 1372              		.loc 1 728 7 view .LVU307
 1373 021a 0268     		ldr	r2, [r0]
 1374 021c 2378     		ldrb	r3, [r4]
 1375 021e 9B00     		lsls	r3, r3, #2
 1376 0220 D118     		adds	r1, r2, r3
 1377 0222 D35A     		ldrh	r3, [r2, r3]
 1378 0224 5A06     		lsls	r2, r3, #25
 1379 0226 04D5     		bpl	.L69
 728:Drivers/STM32F0xx_HAL_Driver/Src/stm32f0xx_hal_pcd.c ****       
 1380              		.loc 1 728 7 discriminator 1 view .LVU308
 1381 0228 2F4A     		ldr	r2, .L74+16
 1382 022a 1340     		ands	r3, r2
 1383 022c 304A     		ldr	r2, .L74+24
 1384 022e 1343     		orrs	r3, r2
 1385 0230 0B80     		strh	r3, [r1]
 1386              	.L69:
 731:Drivers/STM32F0xx_HAL_Driver/Src/stm32f0xx_hal_pcd.c ****       
 1387              		.loc 1 731 7 view .LVU309
 1388 0232 0568     		ldr	r5, [r0]
 1389 0234 2378     		ldrb	r3, [r4]
 1390 0236 9B00     		lsls	r3, r3, #2
 1391 0238 EA5A     		ldrh	r2, [r5, r3]
 1392 023a 2B49     		ldr	r1, .L74+16
 1393 023c 1140     		ands	r1, r2
 1394 023e 2C4A     		ldr	r2, .L74+24
 1395 0240 0A43     		orrs	r2, r1
 1396 0242 EA52     		strh	r2, [r5, r3]
 1397              	.LBB8:
 733:Drivers/STM32F0xx_HAL_Driver/Src/stm32f0xx_hal_pcd.c ****       PCD_SET_EP_TX_STATUS(hpcd->Instance, ep->num, USB_EP_TX_DIS)
 1398              		.loc 1 733 7 view .LVU310
 733:Drivers/STM32F0xx_HAL_Driver/Src/stm32f0xx_hal_pcd.c ****       PCD_SET_EP_TX_STATUS(hpcd->Instance, ep->num, USB_EP_TX_DIS)
 1399              		.loc 1 733 7 view .LVU311
 1400 0244 0568     		ldr	r5, [r0]
 1401 0246 2178     		ldrb	r1, [r4]
 1402 0248 8900     		lsls	r1, r1, #2
 1403 024a 6B5A     		ldrh	r3, [r5, r1]
 1404 024c 2E4A     		ldr	r2, .L74+48
 1405 024e 1A40     		ands	r2, r3
 1406              	.LVL86:
 733:Drivers/STM32F0xx_HAL_Driver/Src/stm32f0xx_hal_pcd.c ****       PCD_SET_EP_TX_STATUS(hpcd->Instance, ep->num, USB_EP_TX_DIS)
 1407              		.loc 1 733 7 view .LVU312
 733:Drivers/STM32F0xx_HAL_Driver/Src/stm32f0xx_hal_pcd.c ****       PCD_SET_EP_TX_STATUS(hpcd->Instance, ep->num, USB_EP_TX_DIS)
 1408              		.loc 1 733 7 view .LVU313
 733:Drivers/STM32F0xx_HAL_Driver/Src/stm32f0xx_hal_pcd.c ****       PCD_SET_EP_TX_STATUS(hpcd->Instance, ep->num, USB_EP_TX_DIS)
 1409              		.loc 1 733 7 view .LVU314
 733:Drivers/STM32F0xx_HAL_Driver/Src/stm32f0xx_hal_pcd.c ****       PCD_SET_EP_TX_STATUS(hpcd->Instance, ep->num, USB_EP_TX_DIS)
 1410              		.loc 1 733 7 view .LVU315
 1411 0250 C023     		movs	r3, #192
 1412 0252 9B01     		lsls	r3, r3, #6
 1413 0254 5340     		eors	r3, r2
 1414              	.LVL87:
 733:Drivers/STM32F0xx_HAL_Driver/Src/stm32f0xx_hal_pcd.c ****       PCD_SET_EP_TX_STATUS(hpcd->Instance, ep->num, USB_EP_TX_DIS)
 1415              		.loc 1 733 7 view .LVU316
ARM GAS  /tmp/ccHm7VQo.s 			page 41


 1416 0256 254A     		ldr	r2, .L74+20
 1417 0258 1343     		orrs	r3, r2
 1418              	.LVL88:
 733:Drivers/STM32F0xx_HAL_Driver/Src/stm32f0xx_hal_pcd.c ****       PCD_SET_EP_TX_STATUS(hpcd->Instance, ep->num, USB_EP_TX_DIS)
 1419              		.loc 1 733 7 is_stmt 0 view .LVU317
 1420 025a 6B52     		strh	r3, [r5, r1]
 1421              	.LVL89:
 733:Drivers/STM32F0xx_HAL_Driver/Src/stm32f0xx_hal_pcd.c ****       PCD_SET_EP_TX_STATUS(hpcd->Instance, ep->num, USB_EP_TX_DIS)
 1422              		.loc 1 733 7 view .LVU318
 1423              	.LBE8:
 1424              	.LBB9:
 734:Drivers/STM32F0xx_HAL_Driver/Src/stm32f0xx_hal_pcd.c ****     }
 1425              		.loc 1 734 7 is_stmt 1 view .LVU319
 734:Drivers/STM32F0xx_HAL_Driver/Src/stm32f0xx_hal_pcd.c ****     }
 1426              		.loc 1 734 7 view .LVU320
 1427 025c 0568     		ldr	r5, [r0]
 1428 025e 2378     		ldrb	r3, [r4]
 1429 0260 9B00     		lsls	r3, r3, #2
 1430 0262 E95A     		ldrh	r1, [r5, r3]
 1431 0264 234C     		ldr	r4, .L74+28
 1432              	.LVL90:
 734:Drivers/STM32F0xx_HAL_Driver/Src/stm32f0xx_hal_pcd.c ****     }
 1433              		.loc 1 734 7 is_stmt 0 view .LVU321
 1434 0266 2140     		ands	r1, r4
 1435              	.LVL91:
 734:Drivers/STM32F0xx_HAL_Driver/Src/stm32f0xx_hal_pcd.c ****     }
 1436              		.loc 1 734 7 is_stmt 1 view .LVU322
 734:Drivers/STM32F0xx_HAL_Driver/Src/stm32f0xx_hal_pcd.c ****     }
 1437              		.loc 1 734 7 view .LVU323
 734:Drivers/STM32F0xx_HAL_Driver/Src/stm32f0xx_hal_pcd.c ****     }
 1438              		.loc 1 734 7 view .LVU324
 1439 0268 0A43     		orrs	r2, r1
 1440 026a EA52     		strh	r2, [r5, r3]
 1441              	.LBE9:
 1442 026c 4BE7     		b	.L61
 1443              	.LVL92:
 1444              	.L67:
 739:Drivers/STM32F0xx_HAL_Driver/Src/stm32f0xx_hal_pcd.c ****       PCD_CLEAR_TX_DTOG(hpcd->Instance, ep->num)
 1445              		.loc 1 739 7 view .LVU325
 1446 026e 0268     		ldr	r2, [r0]
 1447 0270 2378     		ldrb	r3, [r4]
 1448 0272 9B00     		lsls	r3, r3, #2
 1449 0274 D118     		adds	r1, r2, r3
 1450 0276 D35A     		ldrh	r3, [r2, r3]
 1451 0278 5A04     		lsls	r2, r3, #17
 1452 027a 04D5     		bpl	.L70
 739:Drivers/STM32F0xx_HAL_Driver/Src/stm32f0xx_hal_pcd.c ****       PCD_CLEAR_TX_DTOG(hpcd->Instance, ep->num)
 1453              		.loc 1 739 7 discriminator 1 view .LVU326
 1454 027c 1A4A     		ldr	r2, .L74+16
 1455 027e 1340     		ands	r3, r2
 1456 0280 204A     		ldr	r2, .L74+44
 1457 0282 1343     		orrs	r3, r2
 1458 0284 0B80     		strh	r3, [r1]
 1459              	.L70:
 740:Drivers/STM32F0xx_HAL_Driver/Src/stm32f0xx_hal_pcd.c ****       PCD_RX_DTOG(hpcd->Instance, ep->num);
 1460              		.loc 1 740 7 view .LVU327
 1461 0286 0268     		ldr	r2, [r0]
ARM GAS  /tmp/ccHm7VQo.s 			page 42


 1462 0288 2378     		ldrb	r3, [r4]
 1463 028a 9B00     		lsls	r3, r3, #2
 1464 028c D118     		adds	r1, r2, r3
 1465 028e D35A     		ldrh	r3, [r2, r3]
 1466 0290 5A06     		lsls	r2, r3, #25
 1467 0292 04D5     		bpl	.L71
 740:Drivers/STM32F0xx_HAL_Driver/Src/stm32f0xx_hal_pcd.c ****       PCD_RX_DTOG(hpcd->Instance, ep->num);
 1468              		.loc 1 740 7 discriminator 1 view .LVU328
 1469 0294 144A     		ldr	r2, .L74+16
 1470 0296 1340     		ands	r3, r2
 1471 0298 154A     		ldr	r2, .L74+24
 1472 029a 1343     		orrs	r3, r2
 1473 029c 0B80     		strh	r3, [r1]
 1474              	.L71:
 741:Drivers/STM32F0xx_HAL_Driver/Src/stm32f0xx_hal_pcd.c ****       /* Configure DISABLE status for the Endpoint*/
 1475              		.loc 1 741 7 view .LVU329
 1476 029e 0568     		ldr	r5, [r0]
 1477 02a0 2378     		ldrb	r3, [r4]
 1478 02a2 9B00     		lsls	r3, r3, #2
 1479 02a4 EA5A     		ldrh	r2, [r5, r3]
 1480 02a6 1049     		ldr	r1, .L74+16
 1481 02a8 1140     		ands	r1, r2
 1482 02aa 164A     		ldr	r2, .L74+44
 1483 02ac 0A43     		orrs	r2, r1
 1484 02ae EA52     		strh	r2, [r5, r3]
 1485              	.LBB10:
 743:Drivers/STM32F0xx_HAL_Driver/Src/stm32f0xx_hal_pcd.c ****       PCD_SET_EP_RX_STATUS(hpcd->Instance, ep->num, USB_EP_RX_DIS)
 1486              		.loc 1 743 7 view .LVU330
 743:Drivers/STM32F0xx_HAL_Driver/Src/stm32f0xx_hal_pcd.c ****       PCD_SET_EP_RX_STATUS(hpcd->Instance, ep->num, USB_EP_RX_DIS)
 1487              		.loc 1 743 7 view .LVU331
 1488 02b0 0568     		ldr	r5, [r0]
 1489 02b2 2178     		ldrb	r1, [r4]
 1490 02b4 8900     		lsls	r1, r1, #2
 1491 02b6 6B5A     		ldrh	r3, [r5, r1]
 1492 02b8 0E4A     		ldr	r2, .L74+28
 1493 02ba 1340     		ands	r3, r2
 1494              	.LVL93:
 743:Drivers/STM32F0xx_HAL_Driver/Src/stm32f0xx_hal_pcd.c ****       PCD_SET_EP_RX_STATUS(hpcd->Instance, ep->num, USB_EP_RX_DIS)
 1495              		.loc 1 743 7 view .LVU332
 743:Drivers/STM32F0xx_HAL_Driver/Src/stm32f0xx_hal_pcd.c ****       PCD_SET_EP_RX_STATUS(hpcd->Instance, ep->num, USB_EP_RX_DIS)
 1496              		.loc 1 743 7 view .LVU333
 743:Drivers/STM32F0xx_HAL_Driver/Src/stm32f0xx_hal_pcd.c ****       PCD_SET_EP_RX_STATUS(hpcd->Instance, ep->num, USB_EP_RX_DIS)
 1497              		.loc 1 743 7 view .LVU334
 1498 02bc 0B4A     		ldr	r2, .L74+20
 1499 02be 1343     		orrs	r3, r2
 1500              	.LVL94:
 743:Drivers/STM32F0xx_HAL_Driver/Src/stm32f0xx_hal_pcd.c ****       PCD_SET_EP_RX_STATUS(hpcd->Instance, ep->num, USB_EP_RX_DIS)
 1501              		.loc 1 743 7 is_stmt 0 view .LVU335
 1502 02c0 6B52     		strh	r3, [r5, r1]
 1503              	.LVL95:
 743:Drivers/STM32F0xx_HAL_Driver/Src/stm32f0xx_hal_pcd.c ****       PCD_SET_EP_RX_STATUS(hpcd->Instance, ep->num, USB_EP_RX_DIS)
 1504              		.loc 1 743 7 view .LVU336
 1505              	.LBE10:
 1506              	.LBB11:
 744:Drivers/STM32F0xx_HAL_Driver/Src/stm32f0xx_hal_pcd.c ****     }
 1507              		.loc 1 744 7 is_stmt 1 view .LVU337
 744:Drivers/STM32F0xx_HAL_Driver/Src/stm32f0xx_hal_pcd.c ****     }
ARM GAS  /tmp/ccHm7VQo.s 			page 43


 1508              		.loc 1 744 7 view .LVU338
 1509 02c2 0568     		ldr	r5, [r0]
 1510 02c4 2378     		ldrb	r3, [r4]
 1511 02c6 9B00     		lsls	r3, r3, #2
 1512 02c8 E95A     		ldrh	r1, [r5, r3]
 1513 02ca 0F4C     		ldr	r4, .L74+48
 1514              	.LVL96:
 744:Drivers/STM32F0xx_HAL_Driver/Src/stm32f0xx_hal_pcd.c ****     }
 1515              		.loc 1 744 7 is_stmt 0 view .LVU339
 1516 02cc 2140     		ands	r1, r4
 1517              	.LVL97:
 744:Drivers/STM32F0xx_HAL_Driver/Src/stm32f0xx_hal_pcd.c ****     }
 1518              		.loc 1 744 7 is_stmt 1 view .LVU340
 744:Drivers/STM32F0xx_HAL_Driver/Src/stm32f0xx_hal_pcd.c ****     }
 1519              		.loc 1 744 7 view .LVU341
 744:Drivers/STM32F0xx_HAL_Driver/Src/stm32f0xx_hal_pcd.c ****     }
 1520              		.loc 1 744 7 view .LVU342
 1521 02ce 0A43     		orrs	r2, r1
 1522 02d0 EA52     		strh	r2, [r5, r3]
 1523 02d2 18E7     		b	.L61
 1524              	.LVL98:
 1525              	.L72:
 744:Drivers/STM32F0xx_HAL_Driver/Src/stm32f0xx_hal_pcd.c ****     }
 1526              		.loc 1 744 7 is_stmt 0 view .LVU343
 1527              	.LBE11:
 672:Drivers/STM32F0xx_HAL_Driver/Src/stm32f0xx_hal_pcd.c **** 
 1528              		.loc 1 672 3 view .LVU344
 1529 02d4 0220     		movs	r0, #2
 1530              	.LVL99:
 672:Drivers/STM32F0xx_HAL_Driver/Src/stm32f0xx_hal_pcd.c **** 
 1531              		.loc 1 672 3 view .LVU345
 1532 02d6 1BE7     		b	.L51
 1533              	.L75:
 1534              		.align	2
 1535              	.L74:
 1536 02d8 0F090000 		.word	2319
 1537 02dc 8084FFFF 		.word	-31616
 1538 02e0 8086FFFF 		.word	-31104
 1539 02e4 8082FFFF 		.word	-32128
 1540 02e8 0F0F0000 		.word	3855
 1541 02ec 8080FFFF 		.word	-32640
 1542 02f0 C080FFFF 		.word	-32576
 1543 02f4 BF8FFFFF 		.word	-28737
 1544 02f8 04040000 		.word	1028
 1545 02fc 06040000 		.word	1030
 1546 0300 0080FFFF 		.word	-32768
 1547 0304 80C0FFFF 		.word	-16256
 1548 0308 8FBFFFFF 		.word	-16497
 1549 030c 0F0E0000 		.word	3599
 1550 0310 8081FFFF 		.word	-32384
 1551              		.cfi_endproc
 1552              	.LFE58:
 1554              		.section	.text.HAL_PCD_EP_Close,"ax",%progbits
 1555              		.align	1
 1556              		.global	HAL_PCD_EP_Close
 1557              		.syntax unified
 1558              		.code	16
ARM GAS  /tmp/ccHm7VQo.s 			page 44


 1559              		.thumb_func
 1560              		.fpu softvfp
 1562              	HAL_PCD_EP_Close:
 1563              	.LVL100:
 1564              	.LFB59:
 751:Drivers/STM32F0xx_HAL_Driver/Src/stm32f0xx_hal_pcd.c **** 
 752:Drivers/STM32F0xx_HAL_Driver/Src/stm32f0xx_hal_pcd.c **** 
 753:Drivers/STM32F0xx_HAL_Driver/Src/stm32f0xx_hal_pcd.c **** /**
 754:Drivers/STM32F0xx_HAL_Driver/Src/stm32f0xx_hal_pcd.c ****   * @brief  Deactivate an endpoint
 755:Drivers/STM32F0xx_HAL_Driver/Src/stm32f0xx_hal_pcd.c ****   * @param  hpcd PCD handle
 756:Drivers/STM32F0xx_HAL_Driver/Src/stm32f0xx_hal_pcd.c ****   * @param  ep_addr endpoint address
 757:Drivers/STM32F0xx_HAL_Driver/Src/stm32f0xx_hal_pcd.c ****   * @retval HAL status
 758:Drivers/STM32F0xx_HAL_Driver/Src/stm32f0xx_hal_pcd.c ****   */
 759:Drivers/STM32F0xx_HAL_Driver/Src/stm32f0xx_hal_pcd.c **** HAL_StatusTypeDef HAL_PCD_EP_Close(PCD_HandleTypeDef *hpcd, uint8_t ep_addr)
 760:Drivers/STM32F0xx_HAL_Driver/Src/stm32f0xx_hal_pcd.c **** {  
 1565              		.loc 1 760 1 is_stmt 1 view -0
 1566              		.cfi_startproc
 1567              		@ args = 0, pretend = 0, frame = 0
 1568              		@ frame_needed = 0, uses_anonymous_args = 0
 1569              		.loc 1 760 1 is_stmt 0 view .LVU347
 1570 0000 30B5     		push	{r4, r5, lr}
 1571              	.LCFI6:
 1572              		.cfi_def_cfa_offset 12
 1573              		.cfi_offset 4, -12
 1574              		.cfi_offset 5, -8
 1575              		.cfi_offset 14, -4
 1576 0002 0C00     		movs	r4, r1
 761:Drivers/STM32F0xx_HAL_Driver/Src/stm32f0xx_hal_pcd.c ****   PCD_EPTypeDef *ep;
 1577              		.loc 1 761 3 is_stmt 1 view .LVU348
 762:Drivers/STM32F0xx_HAL_Driver/Src/stm32f0xx_hal_pcd.c ****   
 763:Drivers/STM32F0xx_HAL_Driver/Src/stm32f0xx_hal_pcd.c ****   if ((ep_addr & 0x80U) == 0x80U)
 1578              		.loc 1 763 3 view .LVU349
 1579              		.loc 1 763 25 is_stmt 0 view .LVU350
 1580 0004 4AB2     		sxtb	r2, r1
 1581              		.loc 1 763 6 view .LVU351
 1582 0006 002A     		cmp	r2, #0
 1583 0008 37DB     		blt	.L91
 764:Drivers/STM32F0xx_HAL_Driver/Src/stm32f0xx_hal_pcd.c ****   {
 765:Drivers/STM32F0xx_HAL_Driver/Src/stm32f0xx_hal_pcd.c ****     ep = &hpcd->IN_ep[ep_addr & 0x7FU];
 766:Drivers/STM32F0xx_HAL_Driver/Src/stm32f0xx_hal_pcd.c ****   }
 767:Drivers/STM32F0xx_HAL_Driver/Src/stm32f0xx_hal_pcd.c ****   else
 768:Drivers/STM32F0xx_HAL_Driver/Src/stm32f0xx_hal_pcd.c ****   {
 769:Drivers/STM32F0xx_HAL_Driver/Src/stm32f0xx_hal_pcd.c ****     ep = &hpcd->OUT_ep[ep_addr & 0x7FU];
 1584              		.loc 1 769 5 is_stmt 1 view .LVU352
 1585              		.loc 1 769 32 is_stmt 0 view .LVU353
 1586 000a 7F21     		movs	r1, #127
 1587              	.LVL101:
 1588              		.loc 1 769 32 view .LVU354
 1589 000c 2140     		ands	r1, r4
 1590              		.loc 1 769 8 view .LVU355
 1591 000e CB00     		lsls	r3, r1, #3
 1592 0010 5B1A     		subs	r3, r3, r1
 1593 0012 9B00     		lsls	r3, r3, #2
 1594 0014 0933     		adds	r3, r3, #9
 1595 0016 FF33     		adds	r3, r3, #255
 1596 0018 C318     		adds	r3, r0, r3
 1597              	.LVL102:
ARM GAS  /tmp/ccHm7VQo.s 			page 45


 1598              	.L78:
 770:Drivers/STM32F0xx_HAL_Driver/Src/stm32f0xx_hal_pcd.c ****   }
 771:Drivers/STM32F0xx_HAL_Driver/Src/stm32f0xx_hal_pcd.c ****   ep->num   = ep_addr & 0x7FU;
 1599              		.loc 1 771 3 is_stmt 1 view .LVU356
 1600              		.loc 1 771 23 is_stmt 0 view .LVU357
 1601 001a 7F21     		movs	r1, #127
 1602 001c 2140     		ands	r1, r4
 1603              		.loc 1 771 13 view .LVU358
 1604 001e 1970     		strb	r1, [r3]
 772:Drivers/STM32F0xx_HAL_Driver/Src/stm32f0xx_hal_pcd.c ****   
 773:Drivers/STM32F0xx_HAL_Driver/Src/stm32f0xx_hal_pcd.c ****   ep->is_in = (0x80U & ep_addr) != 0U;
 1605              		.loc 1 773 3 is_stmt 1 view .LVU359
 1606              		.loc 1 773 33 is_stmt 0 view .LVU360
 1607 0020 D20F     		lsrs	r2, r2, #31
 1608              	.LVL103:
 1609              		.loc 1 773 13 view .LVU361
 1610 0022 5A70     		strb	r2, [r3, #1]
 774:Drivers/STM32F0xx_HAL_Driver/Src/stm32f0xx_hal_pcd.c ****   
 775:Drivers/STM32F0xx_HAL_Driver/Src/stm32f0xx_hal_pcd.c ****   __HAL_LOCK(hpcd); 
 1611              		.loc 1 775 3 is_stmt 1 view .LVU362
 1612              		.loc 1 775 3 view .LVU363
 1613 0024 F422     		movs	r2, #244
 1614 0026 5200     		lsls	r2, r2, #1
 1615 0028 825C     		ldrb	r2, [r0, r2]
 1616 002a 012A     		cmp	r2, #1
 1617 002c 00D1     		bne	.LCB1510
 1618 002e ABE0     		b	.L90	@long jump
 1619              	.LCB1510:
 1620              		.loc 1 775 3 discriminator 2 view .LVU364
 1621 0030 F422     		movs	r2, #244
 1622 0032 5200     		lsls	r2, r2, #1
 1623 0034 0121     		movs	r1, #1
 1624 0036 8154     		strb	r1, [r0, r2]
 776:Drivers/STM32F0xx_HAL_Driver/Src/stm32f0xx_hal_pcd.c **** 
 777:Drivers/STM32F0xx_HAL_Driver/Src/stm32f0xx_hal_pcd.c ****   if (ep->doublebuffer == 0U) 
 1625              		.loc 1 777 3 discriminator 2 view .LVU365
 1626              		.loc 1 777 9 is_stmt 0 discriminator 2 view .LVU366
 1627 0038 9A7A     		ldrb	r2, [r3, #10]
 1628              		.loc 1 777 6 discriminator 2 view .LVU367
 1629 003a 002A     		cmp	r2, #0
 1630 003c 3BD1     		bne	.L80
 778:Drivers/STM32F0xx_HAL_Driver/Src/stm32f0xx_hal_pcd.c ****   {
 779:Drivers/STM32F0xx_HAL_Driver/Src/stm32f0xx_hal_pcd.c ****     if (ep->is_in)
 1631              		.loc 1 779 5 is_stmt 1 view .LVU368
 1632              		.loc 1 779 11 is_stmt 0 view .LVU369
 1633 003e 5A78     		ldrb	r2, [r3, #1]
 1634              		.loc 1 779 8 view .LVU370
 1635 0040 002A     		cmp	r2, #0
 1636 0042 22D0     		beq	.L81
 780:Drivers/STM32F0xx_HAL_Driver/Src/stm32f0xx_hal_pcd.c ****     {
 781:Drivers/STM32F0xx_HAL_Driver/Src/stm32f0xx_hal_pcd.c ****       PCD_CLEAR_TX_DTOG(hpcd->Instance, ep->num)
 1637              		.loc 1 781 7 is_stmt 1 view .LVU371
 1638 0044 0168     		ldr	r1, [r0]
 1639 0046 1A78     		ldrb	r2, [r3]
 1640 0048 9200     		lsls	r2, r2, #2
 1641 004a 8C18     		adds	r4, r1, r2
 1642 004c 8A5A     		ldrh	r2, [r1, r2]
ARM GAS  /tmp/ccHm7VQo.s 			page 46


 1643 004e 5106     		lsls	r1, r2, #25
 1644 0050 04D5     		bpl	.L82
 1645              		.loc 1 781 7 discriminator 1 view .LVU372
 1646 0052 4E49     		ldr	r1, .L92
 1647 0054 0A40     		ands	r2, r1
 1648 0056 4E49     		ldr	r1, .L92+4
 1649 0058 0A43     		orrs	r2, r1
 1650 005a 2280     		strh	r2, [r4]
 1651              	.L82:
 1652              	.LBB12:
 782:Drivers/STM32F0xx_HAL_Driver/Src/stm32f0xx_hal_pcd.c ****       /* Configure DISABLE status for the Endpoint*/
 783:Drivers/STM32F0xx_HAL_Driver/Src/stm32f0xx_hal_pcd.c ****       PCD_SET_EP_TX_STATUS(hpcd->Instance, ep->num, USB_EP_TX_DIS)
 1653              		.loc 1 783 7 view .LVU373
 1654              		.loc 1 783 7 view .LVU374
 1655 005c 0468     		ldr	r4, [r0]
 1656 005e 1B78     		ldrb	r3, [r3]
 1657              	.LVL104:
 1658              		.loc 1 783 7 is_stmt 0 view .LVU375
 1659 0060 9B00     		lsls	r3, r3, #2
 1660 0062 E25A     		ldrh	r2, [r4, r3]
 1661 0064 4B49     		ldr	r1, .L92+8
 1662 0066 1140     		ands	r1, r2
 1663              	.LVL105:
 1664              		.loc 1 783 7 is_stmt 1 view .LVU376
 1665              		.loc 1 783 7 view .LVU377
 1666              		.loc 1 783 7 view .LVU378
 1667 0068 4B4A     		ldr	r2, .L92+12
 1668 006a 0A43     		orrs	r2, r1
 1669 006c E252     		strh	r2, [r4, r3]
 1670              	.LVL106:
 1671              	.L83:
 1672              		.loc 1 783 7 is_stmt 0 view .LVU379
 1673              	.LBE12:
 784:Drivers/STM32F0xx_HAL_Driver/Src/stm32f0xx_hal_pcd.c ****     }
 785:Drivers/STM32F0xx_HAL_Driver/Src/stm32f0xx_hal_pcd.c ****     else
 786:Drivers/STM32F0xx_HAL_Driver/Src/stm32f0xx_hal_pcd.c ****     {
 787:Drivers/STM32F0xx_HAL_Driver/Src/stm32f0xx_hal_pcd.c ****       PCD_CLEAR_RX_DTOG(hpcd->Instance, ep->num)
 788:Drivers/STM32F0xx_HAL_Driver/Src/stm32f0xx_hal_pcd.c ****       /* Configure DISABLE status for the Endpoint*/
 789:Drivers/STM32F0xx_HAL_Driver/Src/stm32f0xx_hal_pcd.c ****       PCD_SET_EP_RX_STATUS(hpcd->Instance, ep->num, USB_EP_RX_DIS)
 790:Drivers/STM32F0xx_HAL_Driver/Src/stm32f0xx_hal_pcd.c ****     }
 791:Drivers/STM32F0xx_HAL_Driver/Src/stm32f0xx_hal_pcd.c ****   }
 792:Drivers/STM32F0xx_HAL_Driver/Src/stm32f0xx_hal_pcd.c ****   /*Double Buffer*/
 793:Drivers/STM32F0xx_HAL_Driver/Src/stm32f0xx_hal_pcd.c ****   else
 794:Drivers/STM32F0xx_HAL_Driver/Src/stm32f0xx_hal_pcd.c ****   { 
 795:Drivers/STM32F0xx_HAL_Driver/Src/stm32f0xx_hal_pcd.c ****     if (ep->is_in==0U)
 796:Drivers/STM32F0xx_HAL_Driver/Src/stm32f0xx_hal_pcd.c ****     {
 797:Drivers/STM32F0xx_HAL_Driver/Src/stm32f0xx_hal_pcd.c ****       /* Clear the data toggle bits for the endpoint IN/OUT*/
 798:Drivers/STM32F0xx_HAL_Driver/Src/stm32f0xx_hal_pcd.c ****       PCD_CLEAR_RX_DTOG(hpcd->Instance, ep->num)
 799:Drivers/STM32F0xx_HAL_Driver/Src/stm32f0xx_hal_pcd.c ****       PCD_CLEAR_TX_DTOG(hpcd->Instance, ep->num)
 800:Drivers/STM32F0xx_HAL_Driver/Src/stm32f0xx_hal_pcd.c ****       
 801:Drivers/STM32F0xx_HAL_Driver/Src/stm32f0xx_hal_pcd.c ****       /* Reset value of the data toggle bits for the endpoint out*/
 802:Drivers/STM32F0xx_HAL_Driver/Src/stm32f0xx_hal_pcd.c ****       PCD_TX_DTOG(hpcd->Instance, ep->num);
 803:Drivers/STM32F0xx_HAL_Driver/Src/stm32f0xx_hal_pcd.c ****       
 804:Drivers/STM32F0xx_HAL_Driver/Src/stm32f0xx_hal_pcd.c ****       PCD_SET_EP_RX_STATUS(hpcd->Instance, ep->num, USB_EP_RX_DIS)
 805:Drivers/STM32F0xx_HAL_Driver/Src/stm32f0xx_hal_pcd.c ****       PCD_SET_EP_TX_STATUS(hpcd->Instance, ep->num, USB_EP_TX_DIS)
 806:Drivers/STM32F0xx_HAL_Driver/Src/stm32f0xx_hal_pcd.c ****     }
 807:Drivers/STM32F0xx_HAL_Driver/Src/stm32f0xx_hal_pcd.c ****     else
ARM GAS  /tmp/ccHm7VQo.s 			page 47


 808:Drivers/STM32F0xx_HAL_Driver/Src/stm32f0xx_hal_pcd.c ****     {
 809:Drivers/STM32F0xx_HAL_Driver/Src/stm32f0xx_hal_pcd.c ****       /* Clear the data toggle bits for the endpoint IN/OUT*/
 810:Drivers/STM32F0xx_HAL_Driver/Src/stm32f0xx_hal_pcd.c ****       PCD_CLEAR_RX_DTOG(hpcd->Instance, ep->num)
 811:Drivers/STM32F0xx_HAL_Driver/Src/stm32f0xx_hal_pcd.c ****       PCD_CLEAR_TX_DTOG(hpcd->Instance, ep->num)
 812:Drivers/STM32F0xx_HAL_Driver/Src/stm32f0xx_hal_pcd.c ****       PCD_RX_DTOG(hpcd->Instance, ep->num);
 813:Drivers/STM32F0xx_HAL_Driver/Src/stm32f0xx_hal_pcd.c ****       /* Configure DISABLE status for the Endpoint*/
 814:Drivers/STM32F0xx_HAL_Driver/Src/stm32f0xx_hal_pcd.c ****       PCD_SET_EP_TX_STATUS(hpcd->Instance, ep->num, USB_EP_TX_DIS)
 815:Drivers/STM32F0xx_HAL_Driver/Src/stm32f0xx_hal_pcd.c ****       PCD_SET_EP_RX_STATUS(hpcd->Instance, ep->num, USB_EP_RX_DIS)
 816:Drivers/STM32F0xx_HAL_Driver/Src/stm32f0xx_hal_pcd.c ****     }
 817:Drivers/STM32F0xx_HAL_Driver/Src/stm32f0xx_hal_pcd.c ****   } 
 818:Drivers/STM32F0xx_HAL_Driver/Src/stm32f0xx_hal_pcd.c ****   
 819:Drivers/STM32F0xx_HAL_Driver/Src/stm32f0xx_hal_pcd.c ****   __HAL_UNLOCK(hpcd);   
 1674              		.loc 1 819 3 is_stmt 1 view .LVU380
 1675              		.loc 1 819 3 view .LVU381
 1676 006e F423     		movs	r3, #244
 1677 0070 5B00     		lsls	r3, r3, #1
 1678 0072 0022     		movs	r2, #0
 1679 0074 C254     		strb	r2, [r0, r3]
 820:Drivers/STM32F0xx_HAL_Driver/Src/stm32f0xx_hal_pcd.c ****   return HAL_OK;
 1680              		.loc 1 820 3 view .LVU382
 1681              		.loc 1 820 10 is_stmt 0 view .LVU383
 1682 0076 0020     		movs	r0, #0
 1683              	.LVL107:
 1684              	.L79:
 821:Drivers/STM32F0xx_HAL_Driver/Src/stm32f0xx_hal_pcd.c **** }
 1685              		.loc 1 821 1 view .LVU384
 1686              		@ sp needed
 1687 0078 30BD     		pop	{r4, r5, pc}
 1688              	.LVL108:
 1689              	.L91:
 765:Drivers/STM32F0xx_HAL_Driver/Src/stm32f0xx_hal_pcd.c ****   }
 1690              		.loc 1 765 5 is_stmt 1 view .LVU385
 765:Drivers/STM32F0xx_HAL_Driver/Src/stm32f0xx_hal_pcd.c ****   }
 1691              		.loc 1 765 31 is_stmt 0 view .LVU386
 1692 007a 7F21     		movs	r1, #127
 1693              	.LVL109:
 765:Drivers/STM32F0xx_HAL_Driver/Src/stm32f0xx_hal_pcd.c ****   }
 1694              		.loc 1 765 31 view .LVU387
 1695 007c 2140     		ands	r1, r4
 765:Drivers/STM32F0xx_HAL_Driver/Src/stm32f0xx_hal_pcd.c ****   }
 1696              		.loc 1 765 8 view .LVU388
 1697 007e CB00     		lsls	r3, r1, #3
 1698 0080 5B1A     		subs	r3, r3, r1
 1699 0082 9B00     		lsls	r3, r3, #2
 1700 0084 2833     		adds	r3, r3, #40
 1701 0086 C318     		adds	r3, r0, r3
 1702              	.LVL110:
 765:Drivers/STM32F0xx_HAL_Driver/Src/stm32f0xx_hal_pcd.c ****   }
 1703              		.loc 1 765 8 view .LVU389
 1704 0088 C7E7     		b	.L78
 1705              	.LVL111:
 1706              	.L81:
 787:Drivers/STM32F0xx_HAL_Driver/Src/stm32f0xx_hal_pcd.c ****       /* Configure DISABLE status for the Endpoint*/
 1707              		.loc 1 787 7 is_stmt 1 view .LVU390
 1708 008a 0168     		ldr	r1, [r0]
 1709 008c 1A78     		ldrb	r2, [r3]
 1710 008e 9200     		lsls	r2, r2, #2
ARM GAS  /tmp/ccHm7VQo.s 			page 48


 1711 0090 8C18     		adds	r4, r1, r2
 1712 0092 8A5A     		ldrh	r2, [r1, r2]
 1713 0094 5104     		lsls	r1, r2, #17
 1714 0096 04D5     		bpl	.L84
 787:Drivers/STM32F0xx_HAL_Driver/Src/stm32f0xx_hal_pcd.c ****       /* Configure DISABLE status for the Endpoint*/
 1715              		.loc 1 787 7 discriminator 1 view .LVU391
 1716 0098 3C49     		ldr	r1, .L92
 1717 009a 0A40     		ands	r2, r1
 1718 009c 3F49     		ldr	r1, .L92+16
 1719 009e 0A43     		orrs	r2, r1
 1720 00a0 2280     		strh	r2, [r4]
 1721              	.L84:
 1722              	.LBB13:
 789:Drivers/STM32F0xx_HAL_Driver/Src/stm32f0xx_hal_pcd.c ****     }
 1723              		.loc 1 789 7 view .LVU392
 789:Drivers/STM32F0xx_HAL_Driver/Src/stm32f0xx_hal_pcd.c ****     }
 1724              		.loc 1 789 7 view .LVU393
 1725 00a2 0468     		ldr	r4, [r0]
 1726 00a4 1B78     		ldrb	r3, [r3]
 1727              	.LVL112:
 789:Drivers/STM32F0xx_HAL_Driver/Src/stm32f0xx_hal_pcd.c ****     }
 1728              		.loc 1 789 7 is_stmt 0 view .LVU394
 1729 00a6 9B00     		lsls	r3, r3, #2
 1730 00a8 E25A     		ldrh	r2, [r4, r3]
 1731 00aa 3D49     		ldr	r1, .L92+20
 1732 00ac 1140     		ands	r1, r2
 1733              	.LVL113:
 789:Drivers/STM32F0xx_HAL_Driver/Src/stm32f0xx_hal_pcd.c ****     }
 1734              		.loc 1 789 7 is_stmt 1 view .LVU395
 789:Drivers/STM32F0xx_HAL_Driver/Src/stm32f0xx_hal_pcd.c ****     }
 1735              		.loc 1 789 7 view .LVU396
 789:Drivers/STM32F0xx_HAL_Driver/Src/stm32f0xx_hal_pcd.c ****     }
 1736              		.loc 1 789 7 view .LVU397
 1737 00ae 3A4A     		ldr	r2, .L92+12
 1738 00b0 0A43     		orrs	r2, r1
 1739 00b2 E252     		strh	r2, [r4, r3]
 1740 00b4 DBE7     		b	.L83
 1741              	.LVL114:
 1742              	.L80:
 789:Drivers/STM32F0xx_HAL_Driver/Src/stm32f0xx_hal_pcd.c ****     }
 1743              		.loc 1 789 7 is_stmt 0 view .LVU398
 1744              	.LBE13:
 795:Drivers/STM32F0xx_HAL_Driver/Src/stm32f0xx_hal_pcd.c ****     {
 1745              		.loc 1 795 5 is_stmt 1 view .LVU399
 795:Drivers/STM32F0xx_HAL_Driver/Src/stm32f0xx_hal_pcd.c ****     {
 1746              		.loc 1 795 11 is_stmt 0 view .LVU400
 1747 00b6 5A78     		ldrb	r2, [r3, #1]
 795:Drivers/STM32F0xx_HAL_Driver/Src/stm32f0xx_hal_pcd.c ****     {
 1748              		.loc 1 795 8 view .LVU401
 1749 00b8 002A     		cmp	r2, #0
 1750 00ba 32D1     		bne	.L85
 798:Drivers/STM32F0xx_HAL_Driver/Src/stm32f0xx_hal_pcd.c ****       PCD_CLEAR_TX_DTOG(hpcd->Instance, ep->num)
 1751              		.loc 1 798 7 is_stmt 1 view .LVU402
 1752 00bc 0168     		ldr	r1, [r0]
 1753 00be 1A78     		ldrb	r2, [r3]
 1754 00c0 9200     		lsls	r2, r2, #2
 1755 00c2 8C18     		adds	r4, r1, r2
ARM GAS  /tmp/ccHm7VQo.s 			page 49


 1756 00c4 8A5A     		ldrh	r2, [r1, r2]
 1757 00c6 5104     		lsls	r1, r2, #17
 1758 00c8 04D5     		bpl	.L86
 798:Drivers/STM32F0xx_HAL_Driver/Src/stm32f0xx_hal_pcd.c ****       PCD_CLEAR_TX_DTOG(hpcd->Instance, ep->num)
 1759              		.loc 1 798 7 discriminator 1 view .LVU403
 1760 00ca 3049     		ldr	r1, .L92
 1761 00cc 0A40     		ands	r2, r1
 1762 00ce 3349     		ldr	r1, .L92+16
 1763 00d0 0A43     		orrs	r2, r1
 1764 00d2 2280     		strh	r2, [r4]
 1765              	.L86:
 799:Drivers/STM32F0xx_HAL_Driver/Src/stm32f0xx_hal_pcd.c ****       
 1766              		.loc 1 799 7 view .LVU404
 1767 00d4 0168     		ldr	r1, [r0]
 1768 00d6 1A78     		ldrb	r2, [r3]
 1769 00d8 9200     		lsls	r2, r2, #2
 1770 00da 8C18     		adds	r4, r1, r2
 1771 00dc 8A5A     		ldrh	r2, [r1, r2]
 1772 00de 5106     		lsls	r1, r2, #25
 1773 00e0 04D5     		bpl	.L87
 799:Drivers/STM32F0xx_HAL_Driver/Src/stm32f0xx_hal_pcd.c ****       
 1774              		.loc 1 799 7 discriminator 1 view .LVU405
 1775 00e2 2A49     		ldr	r1, .L92
 1776 00e4 0A40     		ands	r2, r1
 1777 00e6 2A49     		ldr	r1, .L92+4
 1778 00e8 0A43     		orrs	r2, r1
 1779 00ea 2280     		strh	r2, [r4]
 1780              	.L87:
 802:Drivers/STM32F0xx_HAL_Driver/Src/stm32f0xx_hal_pcd.c ****       
 1781              		.loc 1 802 7 view .LVU406
 1782 00ec 0568     		ldr	r5, [r0]
 1783 00ee 1A78     		ldrb	r2, [r3]
 1784 00f0 9200     		lsls	r2, r2, #2
 1785 00f2 A95A     		ldrh	r1, [r5, r2]
 1786 00f4 254C     		ldr	r4, .L92
 1787 00f6 0C40     		ands	r4, r1
 1788 00f8 2549     		ldr	r1, .L92+4
 1789 00fa 2143     		orrs	r1, r4
 1790 00fc A952     		strh	r1, [r5, r2]
 1791              	.LBB14:
 804:Drivers/STM32F0xx_HAL_Driver/Src/stm32f0xx_hal_pcd.c ****       PCD_SET_EP_TX_STATUS(hpcd->Instance, ep->num, USB_EP_TX_DIS)
 1792              		.loc 1 804 7 view .LVU407
 804:Drivers/STM32F0xx_HAL_Driver/Src/stm32f0xx_hal_pcd.c ****       PCD_SET_EP_TX_STATUS(hpcd->Instance, ep->num, USB_EP_TX_DIS)
 1793              		.loc 1 804 7 view .LVU408
 1794 00fe 0568     		ldr	r5, [r0]
 1795 0100 1C78     		ldrb	r4, [r3]
 1796 0102 A400     		lsls	r4, r4, #2
 1797 0104 2A5B     		ldrh	r2, [r5, r4]
 1798 0106 2649     		ldr	r1, .L92+20
 1799 0108 0A40     		ands	r2, r1
 1800              	.LVL115:
 804:Drivers/STM32F0xx_HAL_Driver/Src/stm32f0xx_hal_pcd.c ****       PCD_SET_EP_TX_STATUS(hpcd->Instance, ep->num, USB_EP_TX_DIS)
 1801              		.loc 1 804 7 view .LVU409
 804:Drivers/STM32F0xx_HAL_Driver/Src/stm32f0xx_hal_pcd.c ****       PCD_SET_EP_TX_STATUS(hpcd->Instance, ep->num, USB_EP_TX_DIS)
 1802              		.loc 1 804 7 view .LVU410
 804:Drivers/STM32F0xx_HAL_Driver/Src/stm32f0xx_hal_pcd.c ****       PCD_SET_EP_TX_STATUS(hpcd->Instance, ep->num, USB_EP_TX_DIS)
 1803              		.loc 1 804 7 view .LVU411
ARM GAS  /tmp/ccHm7VQo.s 			page 50


 1804 010a 2349     		ldr	r1, .L92+12
 1805 010c 0A43     		orrs	r2, r1
 1806              	.LVL116:
 804:Drivers/STM32F0xx_HAL_Driver/Src/stm32f0xx_hal_pcd.c ****       PCD_SET_EP_TX_STATUS(hpcd->Instance, ep->num, USB_EP_TX_DIS)
 1807              		.loc 1 804 7 is_stmt 0 view .LVU412
 1808 010e 2A53     		strh	r2, [r5, r4]
 1809              	.LVL117:
 804:Drivers/STM32F0xx_HAL_Driver/Src/stm32f0xx_hal_pcd.c ****       PCD_SET_EP_TX_STATUS(hpcd->Instance, ep->num, USB_EP_TX_DIS)
 1810              		.loc 1 804 7 view .LVU413
 1811              	.LBE14:
 1812              	.LBB15:
 805:Drivers/STM32F0xx_HAL_Driver/Src/stm32f0xx_hal_pcd.c ****     }
 1813              		.loc 1 805 7 is_stmt 1 view .LVU414
 805:Drivers/STM32F0xx_HAL_Driver/Src/stm32f0xx_hal_pcd.c ****     }
 1814              		.loc 1 805 7 view .LVU415
 1815 0110 0468     		ldr	r4, [r0]
 1816 0112 1B78     		ldrb	r3, [r3]
 1817              	.LVL118:
 805:Drivers/STM32F0xx_HAL_Driver/Src/stm32f0xx_hal_pcd.c ****     }
 1818              		.loc 1 805 7 is_stmt 0 view .LVU416
 1819 0114 9B00     		lsls	r3, r3, #2
 1820 0116 E25A     		ldrh	r2, [r4, r3]
 1821 0118 1E4D     		ldr	r5, .L92+8
 1822 011a 2A40     		ands	r2, r5
 1823              	.LVL119:
 805:Drivers/STM32F0xx_HAL_Driver/Src/stm32f0xx_hal_pcd.c ****     }
 1824              		.loc 1 805 7 is_stmt 1 view .LVU417
 805:Drivers/STM32F0xx_HAL_Driver/Src/stm32f0xx_hal_pcd.c ****     }
 1825              		.loc 1 805 7 view .LVU418
 805:Drivers/STM32F0xx_HAL_Driver/Src/stm32f0xx_hal_pcd.c ****     }
 1826              		.loc 1 805 7 view .LVU419
 1827 011c 1143     		orrs	r1, r2
 1828 011e E152     		strh	r1, [r4, r3]
 1829              	.LBE15:
 1830 0120 A5E7     		b	.L83
 1831              	.LVL120:
 1832              	.L85:
 810:Drivers/STM32F0xx_HAL_Driver/Src/stm32f0xx_hal_pcd.c ****       PCD_CLEAR_TX_DTOG(hpcd->Instance, ep->num)
 1833              		.loc 1 810 7 view .LVU420
 1834 0122 0168     		ldr	r1, [r0]
 1835 0124 1A78     		ldrb	r2, [r3]
 1836 0126 9200     		lsls	r2, r2, #2
 1837 0128 8C18     		adds	r4, r1, r2
 1838 012a 8A5A     		ldrh	r2, [r1, r2]
 1839 012c 5104     		lsls	r1, r2, #17
 1840 012e 04D5     		bpl	.L88
 810:Drivers/STM32F0xx_HAL_Driver/Src/stm32f0xx_hal_pcd.c ****       PCD_CLEAR_TX_DTOG(hpcd->Instance, ep->num)
 1841              		.loc 1 810 7 discriminator 1 view .LVU421
 1842 0130 1649     		ldr	r1, .L92
 1843 0132 0A40     		ands	r2, r1
 1844 0134 1949     		ldr	r1, .L92+16
 1845 0136 0A43     		orrs	r2, r1
 1846 0138 2280     		strh	r2, [r4]
 1847              	.L88:
 811:Drivers/STM32F0xx_HAL_Driver/Src/stm32f0xx_hal_pcd.c ****       PCD_RX_DTOG(hpcd->Instance, ep->num);
 1848              		.loc 1 811 7 view .LVU422
 1849 013a 0168     		ldr	r1, [r0]
ARM GAS  /tmp/ccHm7VQo.s 			page 51


 1850 013c 1A78     		ldrb	r2, [r3]
 1851 013e 9200     		lsls	r2, r2, #2
 1852 0140 8C18     		adds	r4, r1, r2
 1853 0142 8A5A     		ldrh	r2, [r1, r2]
 1854 0144 5106     		lsls	r1, r2, #25
 1855 0146 04D5     		bpl	.L89
 811:Drivers/STM32F0xx_HAL_Driver/Src/stm32f0xx_hal_pcd.c ****       PCD_RX_DTOG(hpcd->Instance, ep->num);
 1856              		.loc 1 811 7 discriminator 1 view .LVU423
 1857 0148 1049     		ldr	r1, .L92
 1858 014a 0A40     		ands	r2, r1
 1859 014c 1049     		ldr	r1, .L92+4
 1860 014e 0A43     		orrs	r2, r1
 1861 0150 2280     		strh	r2, [r4]
 1862              	.L89:
 812:Drivers/STM32F0xx_HAL_Driver/Src/stm32f0xx_hal_pcd.c ****       /* Configure DISABLE status for the Endpoint*/
 1863              		.loc 1 812 7 view .LVU424
 1864 0152 0568     		ldr	r5, [r0]
 1865 0154 1A78     		ldrb	r2, [r3]
 1866 0156 9200     		lsls	r2, r2, #2
 1867 0158 A95A     		ldrh	r1, [r5, r2]
 1868 015a 0C4C     		ldr	r4, .L92
 1869 015c 0C40     		ands	r4, r1
 1870 015e 0F49     		ldr	r1, .L92+16
 1871 0160 2143     		orrs	r1, r4
 1872 0162 A952     		strh	r1, [r5, r2]
 1873              	.LBB16:
 814:Drivers/STM32F0xx_HAL_Driver/Src/stm32f0xx_hal_pcd.c ****       PCD_SET_EP_RX_STATUS(hpcd->Instance, ep->num, USB_EP_RX_DIS)
 1874              		.loc 1 814 7 view .LVU425
 814:Drivers/STM32F0xx_HAL_Driver/Src/stm32f0xx_hal_pcd.c ****       PCD_SET_EP_RX_STATUS(hpcd->Instance, ep->num, USB_EP_RX_DIS)
 1875              		.loc 1 814 7 view .LVU426
 1876 0164 0568     		ldr	r5, [r0]
 1877 0166 1C78     		ldrb	r4, [r3]
 1878 0168 A400     		lsls	r4, r4, #2
 1879 016a 2A5B     		ldrh	r2, [r5, r4]
 1880 016c 0949     		ldr	r1, .L92+8
 1881 016e 0A40     		ands	r2, r1
 1882              	.LVL121:
 814:Drivers/STM32F0xx_HAL_Driver/Src/stm32f0xx_hal_pcd.c ****       PCD_SET_EP_RX_STATUS(hpcd->Instance, ep->num, USB_EP_RX_DIS)
 1883              		.loc 1 814 7 view .LVU427
 814:Drivers/STM32F0xx_HAL_Driver/Src/stm32f0xx_hal_pcd.c ****       PCD_SET_EP_RX_STATUS(hpcd->Instance, ep->num, USB_EP_RX_DIS)
 1884              		.loc 1 814 7 view .LVU428
 814:Drivers/STM32F0xx_HAL_Driver/Src/stm32f0xx_hal_pcd.c ****       PCD_SET_EP_RX_STATUS(hpcd->Instance, ep->num, USB_EP_RX_DIS)
 1885              		.loc 1 814 7 view .LVU429
 1886 0170 0949     		ldr	r1, .L92+12
 1887 0172 0A43     		orrs	r2, r1
 1888              	.LVL122:
 814:Drivers/STM32F0xx_HAL_Driver/Src/stm32f0xx_hal_pcd.c ****       PCD_SET_EP_RX_STATUS(hpcd->Instance, ep->num, USB_EP_RX_DIS)
 1889              		.loc 1 814 7 is_stmt 0 view .LVU430
 1890 0174 2A53     		strh	r2, [r5, r4]
 1891              	.LVL123:
 814:Drivers/STM32F0xx_HAL_Driver/Src/stm32f0xx_hal_pcd.c ****       PCD_SET_EP_RX_STATUS(hpcd->Instance, ep->num, USB_EP_RX_DIS)
 1892              		.loc 1 814 7 view .LVU431
 1893              	.LBE16:
 1894              	.LBB17:
 815:Drivers/STM32F0xx_HAL_Driver/Src/stm32f0xx_hal_pcd.c ****     }
 1895              		.loc 1 815 7 is_stmt 1 view .LVU432
 815:Drivers/STM32F0xx_HAL_Driver/Src/stm32f0xx_hal_pcd.c ****     }
ARM GAS  /tmp/ccHm7VQo.s 			page 52


 1896              		.loc 1 815 7 view .LVU433
 1897 0176 0468     		ldr	r4, [r0]
 1898 0178 1B78     		ldrb	r3, [r3]
 1899              	.LVL124:
 815:Drivers/STM32F0xx_HAL_Driver/Src/stm32f0xx_hal_pcd.c ****     }
 1900              		.loc 1 815 7 is_stmt 0 view .LVU434
 1901 017a 9B00     		lsls	r3, r3, #2
 1902 017c E25A     		ldrh	r2, [r4, r3]
 1903 017e 084D     		ldr	r5, .L92+20
 1904 0180 2A40     		ands	r2, r5
 1905              	.LVL125:
 815:Drivers/STM32F0xx_HAL_Driver/Src/stm32f0xx_hal_pcd.c ****     }
 1906              		.loc 1 815 7 is_stmt 1 view .LVU435
 815:Drivers/STM32F0xx_HAL_Driver/Src/stm32f0xx_hal_pcd.c ****     }
 1907              		.loc 1 815 7 view .LVU436
 815:Drivers/STM32F0xx_HAL_Driver/Src/stm32f0xx_hal_pcd.c ****     }
 1908              		.loc 1 815 7 view .LVU437
 1909 0182 1143     		orrs	r1, r2
 1910 0184 E152     		strh	r1, [r4, r3]
 1911 0186 72E7     		b	.L83
 1912              	.LVL126:
 1913              	.L90:
 815:Drivers/STM32F0xx_HAL_Driver/Src/stm32f0xx_hal_pcd.c ****     }
 1914              		.loc 1 815 7 is_stmt 0 view .LVU438
 1915              	.LBE17:
 775:Drivers/STM32F0xx_HAL_Driver/Src/stm32f0xx_hal_pcd.c **** 
 1916              		.loc 1 775 3 view .LVU439
 1917 0188 0220     		movs	r0, #2
 1918              	.LVL127:
 775:Drivers/STM32F0xx_HAL_Driver/Src/stm32f0xx_hal_pcd.c **** 
 1919              		.loc 1 775 3 view .LVU440
 1920 018a 75E7     		b	.L79
 1921              	.L93:
 1922              		.align	2
 1923              	.L92:
 1924 018c 0F0F0000 		.word	3855
 1925 0190 C080FFFF 		.word	-32576
 1926 0194 BF8FFFFF 		.word	-28737
 1927 0198 8080FFFF 		.word	-32640
 1928 019c 80C0FFFF 		.word	-16256
 1929 01a0 8FBFFFFF 		.word	-16497
 1930              		.cfi_endproc
 1931              	.LFE59:
 1933              		.section	.text.HAL_PCD_EP_Receive,"ax",%progbits
 1934              		.align	1
 1935              		.global	HAL_PCD_EP_Receive
 1936              		.syntax unified
 1937              		.code	16
 1938              		.thumb_func
 1939              		.fpu softvfp
 1941              	HAL_PCD_EP_Receive:
 1942              	.LVL128:
 1943              	.LFB60:
 822:Drivers/STM32F0xx_HAL_Driver/Src/stm32f0xx_hal_pcd.c **** 
 823:Drivers/STM32F0xx_HAL_Driver/Src/stm32f0xx_hal_pcd.c **** 
 824:Drivers/STM32F0xx_HAL_Driver/Src/stm32f0xx_hal_pcd.c **** /**
 825:Drivers/STM32F0xx_HAL_Driver/Src/stm32f0xx_hal_pcd.c ****   * @brief  Receive an amount of data  
ARM GAS  /tmp/ccHm7VQo.s 			page 53


 826:Drivers/STM32F0xx_HAL_Driver/Src/stm32f0xx_hal_pcd.c ****   * @param  hpcd PCD handle
 827:Drivers/STM32F0xx_HAL_Driver/Src/stm32f0xx_hal_pcd.c ****   * @param  ep_addr endpoint address
 828:Drivers/STM32F0xx_HAL_Driver/Src/stm32f0xx_hal_pcd.c ****   * @param  pBuf pointer to the reception buffer   
 829:Drivers/STM32F0xx_HAL_Driver/Src/stm32f0xx_hal_pcd.c ****   * @param  len amount of data to be received
 830:Drivers/STM32F0xx_HAL_Driver/Src/stm32f0xx_hal_pcd.c ****   * @retval HAL status
 831:Drivers/STM32F0xx_HAL_Driver/Src/stm32f0xx_hal_pcd.c ****   */
 832:Drivers/STM32F0xx_HAL_Driver/Src/stm32f0xx_hal_pcd.c **** HAL_StatusTypeDef HAL_PCD_EP_Receive(PCD_HandleTypeDef *hpcd, uint8_t ep_addr, uint8_t *pBuf, uint3
 833:Drivers/STM32F0xx_HAL_Driver/Src/stm32f0xx_hal_pcd.c **** {
 1944              		.loc 1 833 1 is_stmt 1 view -0
 1945              		.cfi_startproc
 1946              		@ args = 0, pretend = 0, frame = 0
 1947              		@ frame_needed = 0, uses_anonymous_args = 0
 1948              		.loc 1 833 1 is_stmt 0 view .LVU442
 1949 0000 30B5     		push	{r4, r5, lr}
 1950              	.LCFI7:
 1951              		.cfi_def_cfa_offset 12
 1952              		.cfi_offset 4, -12
 1953              		.cfi_offset 5, -8
 1954              		.cfi_offset 14, -4
 834:Drivers/STM32F0xx_HAL_Driver/Src/stm32f0xx_hal_pcd.c ****   
 835:Drivers/STM32F0xx_HAL_Driver/Src/stm32f0xx_hal_pcd.c ****  PCD_EPTypeDef *ep;
 1955              		.loc 1 835 2 is_stmt 1 view .LVU443
 836:Drivers/STM32F0xx_HAL_Driver/Src/stm32f0xx_hal_pcd.c ****   
 837:Drivers/STM32F0xx_HAL_Driver/Src/stm32f0xx_hal_pcd.c ****   ep = &hpcd->OUT_ep[ep_addr & 0x7FU];
 1956              		.loc 1 837 3 view .LVU444
 1957 0002 7F24     		movs	r4, #127
 1958 0004 2140     		ands	r1, r4
 1959              	.LVL129:
 838:Drivers/STM32F0xx_HAL_Driver/Src/stm32f0xx_hal_pcd.c ****   
 839:Drivers/STM32F0xx_HAL_Driver/Src/stm32f0xx_hal_pcd.c ****   /*setup and start the Xfer */
 840:Drivers/STM32F0xx_HAL_Driver/Src/stm32f0xx_hal_pcd.c ****   ep->xfer_buff = pBuf;  
 1960              		.loc 1 840 3 view .LVU445
 1961              		.loc 1 840 17 is_stmt 0 view .LVU446
 1962 0006 CC00     		lsls	r4, r1, #3
 1963 0008 641A     		subs	r4, r4, r1
 1964 000a A400     		lsls	r4, r4, #2
 1965 000c 0419     		adds	r4, r0, r4
 1966 000e 2500     		movs	r5, r4
 1967 0010 1935     		adds	r5, r5, #25
 1968 0012 FF35     		adds	r5, r5, #255
 1969 0014 2A60     		str	r2, [r5]
 841:Drivers/STM32F0xx_HAL_Driver/Src/stm32f0xx_hal_pcd.c ****   ep->xfer_len = len;
 1970              		.loc 1 841 3 is_stmt 1 view .LVU447
 1971              		.loc 1 841 16 is_stmt 0 view .LVU448
 1972 0016 2200     		movs	r2, r4
 1973              	.LVL130:
 1974              		.loc 1 841 16 view .LVU449
 1975 0018 1D32     		adds	r2, r2, #29
 1976 001a FF32     		adds	r2, r2, #255
 1977 001c 1360     		str	r3, [r2]
 842:Drivers/STM32F0xx_HAL_Driver/Src/stm32f0xx_hal_pcd.c ****   ep->xfer_count = 0U;
 1978              		.loc 1 842 3 is_stmt 1 view .LVU450
 1979              		.loc 1 842 18 is_stmt 0 view .LVU451
 1980 001e 0835     		adds	r5, r5, #8
 1981              	.LVL131:
 1982              		.loc 1 842 18 view .LVU452
 1983 0020 0022     		movs	r2, #0
ARM GAS  /tmp/ccHm7VQo.s 			page 54


 1984 0022 2A60     		str	r2, [r5]
 843:Drivers/STM32F0xx_HAL_Driver/Src/stm32f0xx_hal_pcd.c ****   ep->is_in = 0U;
 1985              		.loc 1 843 3 is_stmt 1 view .LVU453
 1986              		.loc 1 843 13 is_stmt 0 view .LVU454
 1987 0024 173D     		subs	r5, r5, #23
 1988              	.LVL132:
 1989              		.loc 1 843 13 view .LVU455
 1990 0026 2A70     		strb	r2, [r5]
 844:Drivers/STM32F0xx_HAL_Driver/Src/stm32f0xx_hal_pcd.c ****   ep->num = ep_addr & 0x7FU;
 1991              		.loc 1 844 3 is_stmt 1 view .LVU456
 1992              		.loc 1 844 11 is_stmt 0 view .LVU457
 1993 0028 2200     		movs	r2, r4
 1994 002a 0932     		adds	r2, r2, #9
 1995 002c FF32     		adds	r2, r2, #255
 1996 002e 1170     		strb	r1, [r2]
 845:Drivers/STM32F0xx_HAL_Driver/Src/stm32f0xx_hal_pcd.c ****    
 846:Drivers/STM32F0xx_HAL_Driver/Src/stm32f0xx_hal_pcd.c ****   /* Multi packet transfer*/
 847:Drivers/STM32F0xx_HAL_Driver/Src/stm32f0xx_hal_pcd.c ****   if (ep->xfer_len > ep->maxpacket)
 1997              		.loc 1 847 3 is_stmt 1 view .LVU458
 1998              		.loc 1 847 24 is_stmt 0 view .LVU459
 1999 0030 1534     		adds	r4, r4, #21
 2000 0032 FF34     		adds	r4, r4, #255
 2001 0034 2268     		ldr	r2, [r4]
 2002              		.loc 1 847 6 view .LVU460
 2003 0036 9342     		cmp	r3, r2
 2004 0038 41D9     		bls	.L95
 848:Drivers/STM32F0xx_HAL_Driver/Src/stm32f0xx_hal_pcd.c ****   {
 849:Drivers/STM32F0xx_HAL_Driver/Src/stm32f0xx_hal_pcd.c ****     len=ep->maxpacket;
 2005              		.loc 1 849 5 is_stmt 1 view .LVU461
 2006              	.LVL133:
 850:Drivers/STM32F0xx_HAL_Driver/Src/stm32f0xx_hal_pcd.c ****     ep->xfer_len-=len; 
 2007              		.loc 1 850 5 view .LVU462
 2008              		.loc 1 850 17 is_stmt 0 view .LVU463
 2009 003a CC00     		lsls	r4, r1, #3
 2010 003c 641A     		subs	r4, r4, r1
 2011 003e A400     		lsls	r4, r4, #2
 2012 0040 0419     		adds	r4, r0, r4
 2013 0042 1D34     		adds	r4, r4, #29
 2014 0044 FF34     		adds	r4, r4, #255
 2015 0046 9B1A     		subs	r3, r3, r2
 2016 0048 2360     		str	r3, [r4]
 2017              	.LVL134:
 2018              	.L96:
 851:Drivers/STM32F0xx_HAL_Driver/Src/stm32f0xx_hal_pcd.c ****   }
 852:Drivers/STM32F0xx_HAL_Driver/Src/stm32f0xx_hal_pcd.c ****   else
 853:Drivers/STM32F0xx_HAL_Driver/Src/stm32f0xx_hal_pcd.c ****   {
 854:Drivers/STM32F0xx_HAL_Driver/Src/stm32f0xx_hal_pcd.c ****     len=ep->xfer_len;
 855:Drivers/STM32F0xx_HAL_Driver/Src/stm32f0xx_hal_pcd.c ****     ep->xfer_len =0U;
 856:Drivers/STM32F0xx_HAL_Driver/Src/stm32f0xx_hal_pcd.c ****   }
 857:Drivers/STM32F0xx_HAL_Driver/Src/stm32f0xx_hal_pcd.c ****   
 858:Drivers/STM32F0xx_HAL_Driver/Src/stm32f0xx_hal_pcd.c ****   /* configure and validate Rx endpoint */
 859:Drivers/STM32F0xx_HAL_Driver/Src/stm32f0xx_hal_pcd.c ****   if (ep->doublebuffer == 0) 
 2019              		.loc 1 859 3 is_stmt 1 view .LVU464
 2020              		.loc 1 859 9 is_stmt 0 view .LVU465
 2021 004a CB00     		lsls	r3, r1, #3
 2022 004c 5B1A     		subs	r3, r3, r1
 2023 004e 9B00     		lsls	r3, r3, #2
ARM GAS  /tmp/ccHm7VQo.s 			page 55


 2024 0050 C318     		adds	r3, r0, r3
 2025 0052 1333     		adds	r3, r3, #19
 2026 0054 FF33     		adds	r3, r3, #255
 2027 0056 1B78     		ldrb	r3, [r3]
 2028              		.loc 1 859 6 view .LVU466
 2029 0058 002B     		cmp	r3, #0
 2030 005a 43D1     		bne	.L97
 2031              	.LBB18:
 860:Drivers/STM32F0xx_HAL_Driver/Src/stm32f0xx_hal_pcd.c ****   {
 861:Drivers/STM32F0xx_HAL_Driver/Src/stm32f0xx_hal_pcd.c ****     /*Set RX buffer count*/
 862:Drivers/STM32F0xx_HAL_Driver/Src/stm32f0xx_hal_pcd.c ****     PCD_SET_EP_RX_CNT(hpcd->Instance, ep->num, len)
 2032              		.loc 1 862 5 is_stmt 1 view .LVU467
 2033 005c 0468     		ldr	r4, [r0]
 2034 005e 5033     		adds	r3, r3, #80
 2035 0060 E55A     		ldrh	r5, [r4, r3]
 2036 0062 CB00     		lsls	r3, r1, #3
 2037 0064 5B1A     		subs	r3, r3, r1
 2038 0066 9B00     		lsls	r3, r3, #2
 2039 0068 C318     		adds	r3, r0, r3
 2040 006a 0933     		adds	r3, r3, #9
 2041 006c FF33     		adds	r3, r3, #255
 2042 006e 1B78     		ldrb	r3, [r3]
 2043 0070 DB00     		lsls	r3, r3, #3
 2044 0072 EB18     		adds	r3, r5, r3
 2045 0074 1C19     		adds	r4, r3, r4
 2046 0076 604B     		ldr	r3, .L112
 2047 0078 9C46     		mov	ip, r3
 2048 007a 6444     		add	r4, r4, ip
 2049              	.LVL135:
 2050              	.LBB19:
 2051              		.loc 1 862 5 view .LVU468
 2052              		.loc 1 862 5 view .LVU469
 2053 007c 3E2A     		cmp	r2, #62
 2054 007e 28D9     		bls	.L98
 2055              		.loc 1 862 5 discriminator 1 view .LVU470
 2056 0080 5309     		lsrs	r3, r2, #5
 2057 0082 9BB2     		uxth	r3, r3
 2058              	.LVL136:
 2059              		.loc 1 862 5 discriminator 1 view .LVU471
 2060 0084 D206     		lsls	r2, r2, #27
 2061 0086 01D1     		bne	.L99
 2062              	.LVL137:
 2063              		.loc 1 862 5 discriminator 3 view .LVU472
 2064 0088 013B     		subs	r3, r3, #1
 2065              	.LVL138:
 2066              		.loc 1 862 5 is_stmt 0 discriminator 3 view .LVU473
 2067 008a 9BB2     		uxth	r3, r3
 2068              	.LVL139:
 2069              	.L99:
 2070              		.loc 1 862 5 is_stmt 1 discriminator 5 view .LVU474
 2071 008c 9B02     		lsls	r3, r3, #10
 2072              	.LVL140:
 2073              		.loc 1 862 5 is_stmt 0 discriminator 5 view .LVU475
 2074 008e 9BB2     		uxth	r3, r3
 2075 0090 5A4A     		ldr	r2, .L112+4
 2076 0092 1343     		orrs	r3, r2
 2077 0094 2380     		strh	r3, [r4]
ARM GAS  /tmp/ccHm7VQo.s 			page 56


 2078              	.LVL141:
 2079              	.L100:
 2080              		.loc 1 862 5 discriminator 5 view .LVU476
 2081              	.LBE19:
 2082              	.LBE18:
 2083              	.LBB21:
 863:Drivers/STM32F0xx_HAL_Driver/Src/stm32f0xx_hal_pcd.c ****   }
 864:Drivers/STM32F0xx_HAL_Driver/Src/stm32f0xx_hal_pcd.c ****   else
 865:Drivers/STM32F0xx_HAL_Driver/Src/stm32f0xx_hal_pcd.c ****   {
 866:Drivers/STM32F0xx_HAL_Driver/Src/stm32f0xx_hal_pcd.c ****     /*Set the Double buffer counter*/
 867:Drivers/STM32F0xx_HAL_Driver/Src/stm32f0xx_hal_pcd.c ****     PCD_SET_EP_DBUF_CNT(hpcd->Instance, ep->num, ep->is_in, len)
 868:Drivers/STM32F0xx_HAL_Driver/Src/stm32f0xx_hal_pcd.c ****   } 
 869:Drivers/STM32F0xx_HAL_Driver/Src/stm32f0xx_hal_pcd.c ****   
 870:Drivers/STM32F0xx_HAL_Driver/Src/stm32f0xx_hal_pcd.c ****   PCD_SET_EP_RX_STATUS(hpcd->Instance, ep->num, USB_EP_RX_VALID)
 2084              		.loc 1 870 3 is_stmt 1 view .LVU477
 2085              		.loc 1 870 3 view .LVU478
 2086 0096 0468     		ldr	r4, [r0]
 2087 0098 CB00     		lsls	r3, r1, #3
 2088 009a 591A     		subs	r1, r3, r1
 2089              	.LVL142:
 2090              		.loc 1 870 3 is_stmt 0 view .LVU479
 2091 009c 8900     		lsls	r1, r1, #2
 2092 009e 4018     		adds	r0, r0, r1
 2093              	.LVL143:
 2094              		.loc 1 870 3 view .LVU480
 2095 00a0 0930     		adds	r0, r0, #9
 2096 00a2 FF30     		adds	r0, r0, #255
 2097 00a4 0378     		ldrb	r3, [r0]
 2098 00a6 9B00     		lsls	r3, r3, #2
 2099 00a8 E15A     		ldrh	r1, [r4, r3]
 2100 00aa 554A     		ldr	r2, .L112+8
 2101 00ac 1140     		ands	r1, r2
 2102              	.LVL144:
 2103              		.loc 1 870 3 is_stmt 1 view .LVU481
 2104              		.loc 1 870 3 view .LVU482
 2105              		.loc 1 870 3 view .LVU483
 2106              		.loc 1 870 3 view .LVU484
 2107 00ae C022     		movs	r2, #192
 2108 00b0 9201     		lsls	r2, r2, #6
 2109 00b2 5140     		eors	r1, r2
 2110              	.LVL145:
 2111              		.loc 1 870 3 view .LVU485
 2112 00b4 534A     		ldr	r2, .L112+12
 2113 00b6 0A43     		orrs	r2, r1
 2114 00b8 E252     		strh	r2, [r4, r3]
 2115              	.LBE21:
 871:Drivers/STM32F0xx_HAL_Driver/Src/stm32f0xx_hal_pcd.c ****   
 872:Drivers/STM32F0xx_HAL_Driver/Src/stm32f0xx_hal_pcd.c ****   return HAL_OK;
 2116              		.loc 1 872 3 view .LVU486
 873:Drivers/STM32F0xx_HAL_Driver/Src/stm32f0xx_hal_pcd.c **** }
 2117              		.loc 1 873 1 is_stmt 0 view .LVU487
 2118 00ba 0020     		movs	r0, #0
 2119              		@ sp needed
 2120 00bc 30BD     		pop	{r4, r5, pc}
 2121              	.LVL146:
 2122              	.L95:
 854:Drivers/STM32F0xx_HAL_Driver/Src/stm32f0xx_hal_pcd.c ****     ep->xfer_len =0U;
ARM GAS  /tmp/ccHm7VQo.s 			page 57


 2123              		.loc 1 854 5 is_stmt 1 view .LVU488
 855:Drivers/STM32F0xx_HAL_Driver/Src/stm32f0xx_hal_pcd.c ****   }
 2124              		.loc 1 855 5 view .LVU489
 855:Drivers/STM32F0xx_HAL_Driver/Src/stm32f0xx_hal_pcd.c ****   }
 2125              		.loc 1 855 18 is_stmt 0 view .LVU490
 2126 00be CA00     		lsls	r2, r1, #3
 2127 00c0 521A     		subs	r2, r2, r1
 2128 00c2 9200     		lsls	r2, r2, #2
 2129 00c4 8218     		adds	r2, r0, r2
 2130 00c6 1D32     		adds	r2, r2, #29
 2131 00c8 FF32     		adds	r2, r2, #255
 2132 00ca 0024     		movs	r4, #0
 2133 00cc 1460     		str	r4, [r2]
 2134              	.LVL147:
 854:Drivers/STM32F0xx_HAL_Driver/Src/stm32f0xx_hal_pcd.c ****     ep->xfer_len =0U;
 2135              		.loc 1 854 8 view .LVU491
 2136 00ce 1A00     		movs	r2, r3
 2137 00d0 BBE7     		b	.L96
 2138              	.LVL148:
 2139              	.L98:
 2140              	.LBB22:
 2141              	.LBB20:
 862:Drivers/STM32F0xx_HAL_Driver/Src/stm32f0xx_hal_pcd.c ****   }
 2142              		.loc 1 862 5 is_stmt 1 discriminator 2 view .LVU492
 2143 00d2 5308     		lsrs	r3, r2, #1
 2144 00d4 9BB2     		uxth	r3, r3
 2145              	.LVL149:
 862:Drivers/STM32F0xx_HAL_Driver/Src/stm32f0xx_hal_pcd.c ****   }
 2146              		.loc 1 862 5 discriminator 2 view .LVU493
 2147 00d6 D207     		lsls	r2, r2, #31
 2148 00d8 01D5     		bpl	.L101
 2149              	.LVL150:
 862:Drivers/STM32F0xx_HAL_Driver/Src/stm32f0xx_hal_pcd.c ****   }
 2150              		.loc 1 862 5 discriminator 6 view .LVU494
 2151 00da 0133     		adds	r3, r3, #1
 2152              	.LVL151:
 862:Drivers/STM32F0xx_HAL_Driver/Src/stm32f0xx_hal_pcd.c ****   }
 2153              		.loc 1 862 5 is_stmt 0 discriminator 6 view .LVU495
 2154 00dc 9BB2     		uxth	r3, r3
 2155              	.LVL152:
 2156              	.L101:
 862:Drivers/STM32F0xx_HAL_Driver/Src/stm32f0xx_hal_pcd.c ****   }
 2157              		.loc 1 862 5 is_stmt 1 discriminator 8 view .LVU496
 2158 00de 9B02     		lsls	r3, r3, #10
 2159              	.LVL153:
 862:Drivers/STM32F0xx_HAL_Driver/Src/stm32f0xx_hal_pcd.c ****   }
 2160              		.loc 1 862 5 is_stmt 0 discriminator 8 view .LVU497
 2161 00e0 2380     		strh	r3, [r4]
 2162 00e2 D8E7     		b	.L100
 2163              	.LVL154:
 2164              	.L97:
 862:Drivers/STM32F0xx_HAL_Driver/Src/stm32f0xx_hal_pcd.c ****   }
 2165              		.loc 1 862 5 discriminator 8 view .LVU498
 2166              	.LBE20:
 2167              	.LBE22:
 867:Drivers/STM32F0xx_HAL_Driver/Src/stm32f0xx_hal_pcd.c ****   } 
 2168              		.loc 1 867 5 is_stmt 1 view .LVU499
ARM GAS  /tmp/ccHm7VQo.s 			page 58


 2169 00e4 CB00     		lsls	r3, r1, #3
 2170 00e6 5B1A     		subs	r3, r3, r1
 2171 00e8 9B00     		lsls	r3, r3, #2
 2172 00ea C318     		adds	r3, r0, r3
 2173 00ec 0A33     		adds	r3, r3, #10
 2174 00ee FF33     		adds	r3, r3, #255
 2175 00f0 1B78     		ldrb	r3, [r3]
 2176 00f2 002B     		cmp	r3, #0
 2177 00f4 26D1     		bne	.L102
 2178              	.LBB23:
 867:Drivers/STM32F0xx_HAL_Driver/Src/stm32f0xx_hal_pcd.c ****   } 
 2179              		.loc 1 867 5 discriminator 1 view .LVU500
 2180 00f6 0468     		ldr	r4, [r0]
 2181 00f8 5033     		adds	r3, r3, #80
 2182 00fa E55A     		ldrh	r5, [r4, r3]
 2183 00fc CB00     		lsls	r3, r1, #3
 2184 00fe 5B1A     		subs	r3, r3, r1
 2185 0100 9B00     		lsls	r3, r3, #2
 2186 0102 C318     		adds	r3, r0, r3
 2187 0104 0933     		adds	r3, r3, #9
 2188 0106 FF33     		adds	r3, r3, #255
 2189 0108 1B78     		ldrb	r3, [r3]
 2190 010a DB00     		lsls	r3, r3, #3
 2191 010c EB18     		adds	r3, r5, r3
 2192 010e 1C19     		adds	r4, r3, r4
 2193 0110 3D4B     		ldr	r3, .L112+16
 2194 0112 9C46     		mov	ip, r3
 2195 0114 6444     		add	r4, r4, ip
 2196              	.LVL155:
 2197              	.LBB24:
 867:Drivers/STM32F0xx_HAL_Driver/Src/stm32f0xx_hal_pcd.c ****   } 
 2198              		.loc 1 867 5 discriminator 1 view .LVU501
 867:Drivers/STM32F0xx_HAL_Driver/Src/stm32f0xx_hal_pcd.c ****   } 
 2199              		.loc 1 867 5 discriminator 1 view .LVU502
 2200 0116 3E2A     		cmp	r2, #62
 2201 0118 0BD9     		bls	.L103
 867:Drivers/STM32F0xx_HAL_Driver/Src/stm32f0xx_hal_pcd.c ****   } 
 2202              		.loc 1 867 5 discriminator 3 view .LVU503
 2203 011a 5309     		lsrs	r3, r2, #5
 2204 011c 9BB2     		uxth	r3, r3
 2205              	.LVL156:
 867:Drivers/STM32F0xx_HAL_Driver/Src/stm32f0xx_hal_pcd.c ****   } 
 2206              		.loc 1 867 5 discriminator 3 view .LVU504
 2207 011e D506     		lsls	r5, r2, #27
 2208 0120 01D1     		bne	.L104
 867:Drivers/STM32F0xx_HAL_Driver/Src/stm32f0xx_hal_pcd.c ****   } 
 2209              		.loc 1 867 5 discriminator 5 view .LVU505
 2210 0122 013B     		subs	r3, r3, #1
 2211              	.LVL157:
 867:Drivers/STM32F0xx_HAL_Driver/Src/stm32f0xx_hal_pcd.c ****   } 
 2212              		.loc 1 867 5 is_stmt 0 discriminator 5 view .LVU506
 2213 0124 9BB2     		uxth	r3, r3
 2214              	.LVL158:
 2215              	.L104:
 867:Drivers/STM32F0xx_HAL_Driver/Src/stm32f0xx_hal_pcd.c ****   } 
 2216              		.loc 1 867 5 is_stmt 1 discriminator 7 view .LVU507
 2217 0126 9B02     		lsls	r3, r3, #10
ARM GAS  /tmp/ccHm7VQo.s 			page 59


 2218              	.LVL159:
 867:Drivers/STM32F0xx_HAL_Driver/Src/stm32f0xx_hal_pcd.c ****   } 
 2219              		.loc 1 867 5 is_stmt 0 discriminator 7 view .LVU508
 2220 0128 9BB2     		uxth	r3, r3
 2221 012a 344D     		ldr	r5, .L112+4
 2222 012c 2B43     		orrs	r3, r5
 2223 012e 2380     		strh	r3, [r4]
 2224 0130 0AE0     		b	.L105
 2225              	.L103:
 867:Drivers/STM32F0xx_HAL_Driver/Src/stm32f0xx_hal_pcd.c ****   } 
 2226              		.loc 1 867 5 is_stmt 1 discriminator 4 view .LVU509
 2227 0132 5308     		lsrs	r3, r2, #1
 2228 0134 9BB2     		uxth	r3, r3
 2229              	.LVL160:
 867:Drivers/STM32F0xx_HAL_Driver/Src/stm32f0xx_hal_pcd.c ****   } 
 2230              		.loc 1 867 5 discriminator 4 view .LVU510
 2231 0136 D507     		lsls	r5, r2, #31
 2232 0138 01D5     		bpl	.L106
 867:Drivers/STM32F0xx_HAL_Driver/Src/stm32f0xx_hal_pcd.c ****   } 
 2233              		.loc 1 867 5 discriminator 8 view .LVU511
 2234 013a 0133     		adds	r3, r3, #1
 2235              	.LVL161:
 867:Drivers/STM32F0xx_HAL_Driver/Src/stm32f0xx_hal_pcd.c ****   } 
 2236              		.loc 1 867 5 is_stmt 0 discriminator 8 view .LVU512
 2237 013c 9BB2     		uxth	r3, r3
 2238              	.LVL162:
 2239              	.L106:
 867:Drivers/STM32F0xx_HAL_Driver/Src/stm32f0xx_hal_pcd.c ****   } 
 2240              		.loc 1 867 5 is_stmt 1 discriminator 10 view .LVU513
 2241 013e 9B02     		lsls	r3, r3, #10
 2242              	.LVL163:
 867:Drivers/STM32F0xx_HAL_Driver/Src/stm32f0xx_hal_pcd.c ****   } 
 2243              		.loc 1 867 5 is_stmt 0 discriminator 10 view .LVU514
 2244 0140 2380     		strh	r3, [r4]
 2245 0142 01E0     		b	.L105
 2246              	.LVL164:
 2247              	.L102:
 867:Drivers/STM32F0xx_HAL_Driver/Src/stm32f0xx_hal_pcd.c ****   } 
 2248              		.loc 1 867 5 discriminator 10 view .LVU515
 2249              	.LBE24:
 2250              	.LBE23:
 867:Drivers/STM32F0xx_HAL_Driver/Src/stm32f0xx_hal_pcd.c ****   } 
 2251              		.loc 1 867 5 is_stmt 1 discriminator 2 view .LVU516
 2252 0144 012B     		cmp	r3, #1
 2253 0146 26D0     		beq	.L111
 2254              	.L105:
 867:Drivers/STM32F0xx_HAL_Driver/Src/stm32f0xx_hal_pcd.c ****   } 
 2255              		.loc 1 867 5 discriminator 13 view .LVU517
 2256 0148 CB00     		lsls	r3, r1, #3
 2257 014a 5B1A     		subs	r3, r3, r1
 2258 014c 9B00     		lsls	r3, r3, #2
 2259 014e C318     		adds	r3, r0, r3
 2260 0150 0A33     		adds	r3, r3, #10
 2261 0152 FF33     		adds	r3, r3, #255
 2262 0154 1B78     		ldrb	r3, [r3]
 2263 0156 002B     		cmp	r3, #0
 2264 0158 38D1     		bne	.L107
ARM GAS  /tmp/ccHm7VQo.s 			page 60


 2265              	.LBB25:
 867:Drivers/STM32F0xx_HAL_Driver/Src/stm32f0xx_hal_pcd.c ****   } 
 2266              		.loc 1 867 5 discriminator 14 view .LVU518
 2267 015a 0468     		ldr	r4, [r0]
 2268 015c 5033     		adds	r3, r3, #80
 2269 015e E55A     		ldrh	r5, [r4, r3]
 2270 0160 CB00     		lsls	r3, r1, #3
 2271 0162 5B1A     		subs	r3, r3, r1
 2272 0164 9B00     		lsls	r3, r3, #2
 2273 0166 C318     		adds	r3, r0, r3
 2274 0168 0933     		adds	r3, r3, #9
 2275 016a FF33     		adds	r3, r3, #255
 2276 016c 1B78     		ldrb	r3, [r3]
 2277 016e DB00     		lsls	r3, r3, #3
 2278 0170 EB18     		adds	r3, r5, r3
 2279 0172 1C19     		adds	r4, r3, r4
 2280 0174 204B     		ldr	r3, .L112
 2281 0176 9C46     		mov	ip, r3
 2282 0178 6444     		add	r4, r4, ip
 2283              	.LVL165:
 2284              	.LBB26:
 867:Drivers/STM32F0xx_HAL_Driver/Src/stm32f0xx_hal_pcd.c ****   } 
 2285              		.loc 1 867 5 discriminator 14 view .LVU519
 867:Drivers/STM32F0xx_HAL_Driver/Src/stm32f0xx_hal_pcd.c ****   } 
 2286              		.loc 1 867 5 discriminator 14 view .LVU520
 2287 017a 3E2A     		cmp	r2, #62
 2288 017c 1DD9     		bls	.L108
 867:Drivers/STM32F0xx_HAL_Driver/Src/stm32f0xx_hal_pcd.c ****   } 
 2289              		.loc 1 867 5 discriminator 16 view .LVU521
 2290 017e 5309     		lsrs	r3, r2, #5
 2291 0180 9BB2     		uxth	r3, r3
 2292              	.LVL166:
 867:Drivers/STM32F0xx_HAL_Driver/Src/stm32f0xx_hal_pcd.c ****   } 
 2293              		.loc 1 867 5 discriminator 16 view .LVU522
 2294 0182 D206     		lsls	r2, r2, #27
 2295 0184 01D1     		bne	.L109
 2296              	.LVL167:
 867:Drivers/STM32F0xx_HAL_Driver/Src/stm32f0xx_hal_pcd.c ****   } 
 2297              		.loc 1 867 5 discriminator 18 view .LVU523
 2298 0186 013B     		subs	r3, r3, #1
 2299              	.LVL168:
 867:Drivers/STM32F0xx_HAL_Driver/Src/stm32f0xx_hal_pcd.c ****   } 
 2300              		.loc 1 867 5 is_stmt 0 discriminator 18 view .LVU524
 2301 0188 9BB2     		uxth	r3, r3
 2302              	.LVL169:
 2303              	.L109:
 867:Drivers/STM32F0xx_HAL_Driver/Src/stm32f0xx_hal_pcd.c ****   } 
 2304              		.loc 1 867 5 is_stmt 1 discriminator 20 view .LVU525
 2305 018a 9B02     		lsls	r3, r3, #10
 2306              	.LVL170:
 867:Drivers/STM32F0xx_HAL_Driver/Src/stm32f0xx_hal_pcd.c ****   } 
 2307              		.loc 1 867 5 is_stmt 0 discriminator 20 view .LVU526
 2308 018c 9BB2     		uxth	r3, r3
 2309 018e 1B4A     		ldr	r2, .L112+4
 2310 0190 1343     		orrs	r3, r2
 2311 0192 2380     		strh	r3, [r4]
 2312 0194 7FE7     		b	.L100
ARM GAS  /tmp/ccHm7VQo.s 			page 61


 2313              	.LVL171:
 2314              	.L111:
 867:Drivers/STM32F0xx_HAL_Driver/Src/stm32f0xx_hal_pcd.c ****   } 
 2315              		.loc 1 867 5 discriminator 20 view .LVU527
 2316              	.LBE26:
 2317              	.LBE25:
 867:Drivers/STM32F0xx_HAL_Driver/Src/stm32f0xx_hal_pcd.c ****   } 
 2318              		.loc 1 867 5 is_stmt 1 discriminator 11 view .LVU528
 2319 0196 0468     		ldr	r4, [r0]
 2320 0198 4F33     		adds	r3, r3, #79
 2321 019a E55A     		ldrh	r5, [r4, r3]
 2322 019c CB00     		lsls	r3, r1, #3
 2323 019e 5B1A     		subs	r3, r3, r1
 2324 01a0 9B00     		lsls	r3, r3, #2
 2325 01a2 C318     		adds	r3, r0, r3
 2326 01a4 0933     		adds	r3, r3, #9
 2327 01a6 FF33     		adds	r3, r3, #255
 2328 01a8 1B78     		ldrb	r3, [r3]
 2329 01aa DB00     		lsls	r3, r3, #3
 2330 01ac EB18     		adds	r3, r5, r3
 2331 01ae 1C19     		adds	r4, r3, r4
 2332 01b0 154B     		ldr	r3, .L112+16
 2333 01b2 9C46     		mov	ip, r3
 2334 01b4 6444     		add	r4, r4, ip
 2335 01b6 2280     		strh	r2, [r4]
 2336 01b8 C6E7     		b	.L105
 2337              	.LVL172:
 2338              	.L108:
 2339              	.LBB28:
 2340              	.LBB27:
 867:Drivers/STM32F0xx_HAL_Driver/Src/stm32f0xx_hal_pcd.c ****   } 
 2341              		.loc 1 867 5 discriminator 17 view .LVU529
 2342 01ba 5308     		lsrs	r3, r2, #1
 2343 01bc 9BB2     		uxth	r3, r3
 2344              	.LVL173:
 867:Drivers/STM32F0xx_HAL_Driver/Src/stm32f0xx_hal_pcd.c ****   } 
 2345              		.loc 1 867 5 discriminator 17 view .LVU530
 2346 01be D207     		lsls	r2, r2, #31
 2347 01c0 01D5     		bpl	.L110
 2348              	.LVL174:
 867:Drivers/STM32F0xx_HAL_Driver/Src/stm32f0xx_hal_pcd.c ****   } 
 2349              		.loc 1 867 5 discriminator 21 view .LVU531
 2350 01c2 0133     		adds	r3, r3, #1
 2351              	.LVL175:
 867:Drivers/STM32F0xx_HAL_Driver/Src/stm32f0xx_hal_pcd.c ****   } 
 2352              		.loc 1 867 5 is_stmt 0 discriminator 21 view .LVU532
 2353 01c4 9BB2     		uxth	r3, r3
 2354              	.LVL176:
 2355              	.L110:
 867:Drivers/STM32F0xx_HAL_Driver/Src/stm32f0xx_hal_pcd.c ****   } 
 2356              		.loc 1 867 5 is_stmt 1 discriminator 23 view .LVU533
 2357 01c6 9B02     		lsls	r3, r3, #10
 2358              	.LVL177:
 867:Drivers/STM32F0xx_HAL_Driver/Src/stm32f0xx_hal_pcd.c ****   } 
 2359              		.loc 1 867 5 is_stmt 0 discriminator 23 view .LVU534
 2360 01c8 2380     		strh	r3, [r4]
 2361 01ca 64E7     		b	.L100
ARM GAS  /tmp/ccHm7VQo.s 			page 62


 2362              	.LVL178:
 2363              	.L107:
 867:Drivers/STM32F0xx_HAL_Driver/Src/stm32f0xx_hal_pcd.c ****   } 
 2364              		.loc 1 867 5 discriminator 23 view .LVU535
 2365              	.LBE27:
 2366              	.LBE28:
 867:Drivers/STM32F0xx_HAL_Driver/Src/stm32f0xx_hal_pcd.c ****   } 
 2367              		.loc 1 867 5 is_stmt 1 discriminator 15 view .LVU536
 2368 01cc 012B     		cmp	r3, #1
 2369 01ce 00D0     		beq	.LCB2394
 2370 01d0 61E7     		b	.L100	@long jump
 2371              	.LCB2394:
 867:Drivers/STM32F0xx_HAL_Driver/Src/stm32f0xx_hal_pcd.c ****   } 
 2372              		.loc 1 867 5 discriminator 24 view .LVU537
 2373 01d2 0468     		ldr	r4, [r0]
 2374 01d4 4F33     		adds	r3, r3, #79
 2375 01d6 E55A     		ldrh	r5, [r4, r3]
 2376 01d8 CB00     		lsls	r3, r1, #3
 2377 01da 5B1A     		subs	r3, r3, r1
 2378 01dc 9B00     		lsls	r3, r3, #2
 2379 01de C318     		adds	r3, r0, r3
 2380 01e0 0933     		adds	r3, r3, #9
 2381 01e2 FF33     		adds	r3, r3, #255
 2382 01e4 1B78     		ldrb	r3, [r3]
 2383 01e6 DB00     		lsls	r3, r3, #3
 2384 01e8 EB18     		adds	r3, r5, r3
 2385 01ea 1C19     		adds	r4, r3, r4
 2386 01ec 024B     		ldr	r3, .L112
 2387 01ee 9C46     		mov	ip, r3
 2388 01f0 6444     		add	r4, r4, ip
 2389 01f2 2280     		strh	r2, [r4]
 2390 01f4 4FE7     		b	.L100
 2391              	.L113:
 2392 01f6 C046     		.align	2
 2393              	.L112:
 2394 01f8 06040000 		.word	1030
 2395 01fc 0080FFFF 		.word	-32768
 2396 0200 8FBFFFFF 		.word	-16497
 2397 0204 8080FFFF 		.word	-32640
 2398 0208 02040000 		.word	1026
 2399              		.cfi_endproc
 2400              	.LFE60:
 2402              		.section	.text.HAL_PCD_EP_GetRxCount,"ax",%progbits
 2403              		.align	1
 2404              		.global	HAL_PCD_EP_GetRxCount
 2405              		.syntax unified
 2406              		.code	16
 2407              		.thumb_func
 2408              		.fpu softvfp
 2410              	HAL_PCD_EP_GetRxCount:
 2411              	.LVL179:
 2412              	.LFB61:
 874:Drivers/STM32F0xx_HAL_Driver/Src/stm32f0xx_hal_pcd.c **** 
 875:Drivers/STM32F0xx_HAL_Driver/Src/stm32f0xx_hal_pcd.c **** /**
 876:Drivers/STM32F0xx_HAL_Driver/Src/stm32f0xx_hal_pcd.c ****   * @brief  Get Received Data Size
 877:Drivers/STM32F0xx_HAL_Driver/Src/stm32f0xx_hal_pcd.c ****   * @param  hpcd PCD handle
 878:Drivers/STM32F0xx_HAL_Driver/Src/stm32f0xx_hal_pcd.c ****   * @param  ep_addr endpoint address
ARM GAS  /tmp/ccHm7VQo.s 			page 63


 879:Drivers/STM32F0xx_HAL_Driver/Src/stm32f0xx_hal_pcd.c ****   * @retval Data Size
 880:Drivers/STM32F0xx_HAL_Driver/Src/stm32f0xx_hal_pcd.c ****   */
 881:Drivers/STM32F0xx_HAL_Driver/Src/stm32f0xx_hal_pcd.c **** uint16_t HAL_PCD_EP_GetRxCount(PCD_HandleTypeDef *hpcd, uint8_t ep_addr)
 882:Drivers/STM32F0xx_HAL_Driver/Src/stm32f0xx_hal_pcd.c **** {
 2413              		.loc 1 882 1 view -0
 2414              		.cfi_startproc
 2415              		@ args = 0, pretend = 0, frame = 0
 2416              		@ frame_needed = 0, uses_anonymous_args = 0
 2417              		@ link register save eliminated.
 2418              		.loc 1 882 1 is_stmt 0 view .LVU539
 2419 0000 0B00     		movs	r3, r1
 883:Drivers/STM32F0xx_HAL_Driver/Src/stm32f0xx_hal_pcd.c ****   return hpcd->OUT_ep[ep_addr & 0x7FU].xfer_count;
 2420              		.loc 1 883 3 is_stmt 1 view .LVU540
 2421              		.loc 1 883 31 is_stmt 0 view .LVU541
 2422 0002 7F21     		movs	r1, #127
 2423              	.LVL180:
 2424              		.loc 1 883 31 view .LVU542
 2425 0004 1940     		ands	r1, r3
 2426              		.loc 1 883 39 view .LVU543
 2427 0006 CB00     		lsls	r3, r1, #3
 2428 0008 591A     		subs	r1, r3, r1
 2429 000a 8900     		lsls	r1, r1, #2
 2430 000c 4018     		adds	r0, r0, r1
 2431              	.LVL181:
 2432              		.loc 1 883 39 view .LVU544
 2433 000e 2130     		adds	r0, r0, #33
 2434 0010 FF30     		adds	r0, r0, #255
 2435 0012 0088     		ldrh	r0, [r0]
 884:Drivers/STM32F0xx_HAL_Driver/Src/stm32f0xx_hal_pcd.c **** }
 2436              		.loc 1 884 1 view .LVU545
 2437              		@ sp needed
 2438 0014 7047     		bx	lr
 2439              		.cfi_endproc
 2440              	.LFE61:
 2442              		.section	.text.HAL_PCD_EP_SetStall,"ax",%progbits
 2443              		.align	1
 2444              		.global	HAL_PCD_EP_SetStall
 2445              		.syntax unified
 2446              		.code	16
 2447              		.thumb_func
 2448              		.fpu softvfp
 2450              	HAL_PCD_EP_SetStall:
 2451              	.LVL182:
 2452              	.LFB63:
 885:Drivers/STM32F0xx_HAL_Driver/Src/stm32f0xx_hal_pcd.c **** /**
 886:Drivers/STM32F0xx_HAL_Driver/Src/stm32f0xx_hal_pcd.c ****   * @brief  Send an amount of data  
 887:Drivers/STM32F0xx_HAL_Driver/Src/stm32f0xx_hal_pcd.c ****   * @param  hpcd PCD handle
 888:Drivers/STM32F0xx_HAL_Driver/Src/stm32f0xx_hal_pcd.c ****   * @param  ep_addr endpoint address
 889:Drivers/STM32F0xx_HAL_Driver/Src/stm32f0xx_hal_pcd.c ****   * @param  pBuf pointer to the transmission buffer   
 890:Drivers/STM32F0xx_HAL_Driver/Src/stm32f0xx_hal_pcd.c ****   * @param  len amount of data to be sent
 891:Drivers/STM32F0xx_HAL_Driver/Src/stm32f0xx_hal_pcd.c ****   * @retval HAL status
 892:Drivers/STM32F0xx_HAL_Driver/Src/stm32f0xx_hal_pcd.c ****   */
 893:Drivers/STM32F0xx_HAL_Driver/Src/stm32f0xx_hal_pcd.c **** HAL_StatusTypeDef HAL_PCD_EP_Transmit(PCD_HandleTypeDef *hpcd, uint8_t ep_addr, uint8_t *pBuf, uint
 894:Drivers/STM32F0xx_HAL_Driver/Src/stm32f0xx_hal_pcd.c **** {
 895:Drivers/STM32F0xx_HAL_Driver/Src/stm32f0xx_hal_pcd.c ****   PCD_EPTypeDef *ep;
 896:Drivers/STM32F0xx_HAL_Driver/Src/stm32f0xx_hal_pcd.c ****   uint16_t pmabuffer = 0U;
 897:Drivers/STM32F0xx_HAL_Driver/Src/stm32f0xx_hal_pcd.c ****     
ARM GAS  /tmp/ccHm7VQo.s 			page 64


 898:Drivers/STM32F0xx_HAL_Driver/Src/stm32f0xx_hal_pcd.c ****   ep = &hpcd->IN_ep[ep_addr & 0x7FU];
 899:Drivers/STM32F0xx_HAL_Driver/Src/stm32f0xx_hal_pcd.c ****   
 900:Drivers/STM32F0xx_HAL_Driver/Src/stm32f0xx_hal_pcd.c ****   /*setup and start the Xfer */
 901:Drivers/STM32F0xx_HAL_Driver/Src/stm32f0xx_hal_pcd.c ****   ep->xfer_buff = pBuf;  
 902:Drivers/STM32F0xx_HAL_Driver/Src/stm32f0xx_hal_pcd.c ****   ep->xfer_len = len;
 903:Drivers/STM32F0xx_HAL_Driver/Src/stm32f0xx_hal_pcd.c ****   ep->xfer_count = 0U;
 904:Drivers/STM32F0xx_HAL_Driver/Src/stm32f0xx_hal_pcd.c ****   ep->is_in = 1U;
 905:Drivers/STM32F0xx_HAL_Driver/Src/stm32f0xx_hal_pcd.c ****   ep->num = ep_addr & 0x7FU;
 906:Drivers/STM32F0xx_HAL_Driver/Src/stm32f0xx_hal_pcd.c ****   
 907:Drivers/STM32F0xx_HAL_Driver/Src/stm32f0xx_hal_pcd.c ****   /*Multi packet transfer*/
 908:Drivers/STM32F0xx_HAL_Driver/Src/stm32f0xx_hal_pcd.c ****   if (ep->xfer_len > ep->maxpacket)
 909:Drivers/STM32F0xx_HAL_Driver/Src/stm32f0xx_hal_pcd.c ****   {
 910:Drivers/STM32F0xx_HAL_Driver/Src/stm32f0xx_hal_pcd.c ****     len=ep->maxpacket;
 911:Drivers/STM32F0xx_HAL_Driver/Src/stm32f0xx_hal_pcd.c ****     ep->xfer_len-=len; 
 912:Drivers/STM32F0xx_HAL_Driver/Src/stm32f0xx_hal_pcd.c ****   }
 913:Drivers/STM32F0xx_HAL_Driver/Src/stm32f0xx_hal_pcd.c ****   else
 914:Drivers/STM32F0xx_HAL_Driver/Src/stm32f0xx_hal_pcd.c ****   {  
 915:Drivers/STM32F0xx_HAL_Driver/Src/stm32f0xx_hal_pcd.c ****     len=ep->xfer_len;
 916:Drivers/STM32F0xx_HAL_Driver/Src/stm32f0xx_hal_pcd.c ****     ep->xfer_len =0U;
 917:Drivers/STM32F0xx_HAL_Driver/Src/stm32f0xx_hal_pcd.c ****   }
 918:Drivers/STM32F0xx_HAL_Driver/Src/stm32f0xx_hal_pcd.c ****   
 919:Drivers/STM32F0xx_HAL_Driver/Src/stm32f0xx_hal_pcd.c ****   /* configure and validate Tx endpoint */
 920:Drivers/STM32F0xx_HAL_Driver/Src/stm32f0xx_hal_pcd.c ****   if (ep->doublebuffer == 0U) 
 921:Drivers/STM32F0xx_HAL_Driver/Src/stm32f0xx_hal_pcd.c ****   {
 922:Drivers/STM32F0xx_HAL_Driver/Src/stm32f0xx_hal_pcd.c ****     PCD_WritePMA(hpcd->Instance, ep->xfer_buff, ep->pmaadress, len);
 923:Drivers/STM32F0xx_HAL_Driver/Src/stm32f0xx_hal_pcd.c ****     PCD_SET_EP_TX_CNT(hpcd->Instance, ep->num, len);
 924:Drivers/STM32F0xx_HAL_Driver/Src/stm32f0xx_hal_pcd.c ****   }
 925:Drivers/STM32F0xx_HAL_Driver/Src/stm32f0xx_hal_pcd.c ****   else
 926:Drivers/STM32F0xx_HAL_Driver/Src/stm32f0xx_hal_pcd.c ****   {
 927:Drivers/STM32F0xx_HAL_Driver/Src/stm32f0xx_hal_pcd.c ****     /*Write the data to the USB endpoint*/
 928:Drivers/STM32F0xx_HAL_Driver/Src/stm32f0xx_hal_pcd.c ****     if ((PCD_GET_ENDPOINT(hpcd->Instance, ep->num)& USB_EP_DTOG_TX) == USB_EP_DTOG_TX)
 929:Drivers/STM32F0xx_HAL_Driver/Src/stm32f0xx_hal_pcd.c ****     {
 930:Drivers/STM32F0xx_HAL_Driver/Src/stm32f0xx_hal_pcd.c ****       /*Set the Double buffer counter for pmabuffer1*/
 931:Drivers/STM32F0xx_HAL_Driver/Src/stm32f0xx_hal_pcd.c ****       PCD_SET_EP_DBUF1_CNT(hpcd->Instance, ep->num, ep->is_in, len)
 932:Drivers/STM32F0xx_HAL_Driver/Src/stm32f0xx_hal_pcd.c ****       pmabuffer = ep->pmaaddr1;
 933:Drivers/STM32F0xx_HAL_Driver/Src/stm32f0xx_hal_pcd.c ****     }
 934:Drivers/STM32F0xx_HAL_Driver/Src/stm32f0xx_hal_pcd.c ****     else
 935:Drivers/STM32F0xx_HAL_Driver/Src/stm32f0xx_hal_pcd.c ****     {
 936:Drivers/STM32F0xx_HAL_Driver/Src/stm32f0xx_hal_pcd.c ****       /*Set the Double buffer counter for pmabuffer0*/
 937:Drivers/STM32F0xx_HAL_Driver/Src/stm32f0xx_hal_pcd.c ****       PCD_SET_EP_DBUF0_CNT(hpcd->Instance, ep->num, ep->is_in, len)
 938:Drivers/STM32F0xx_HAL_Driver/Src/stm32f0xx_hal_pcd.c ****       pmabuffer = ep->pmaaddr0;
 939:Drivers/STM32F0xx_HAL_Driver/Src/stm32f0xx_hal_pcd.c ****     }
 940:Drivers/STM32F0xx_HAL_Driver/Src/stm32f0xx_hal_pcd.c **** 
 941:Drivers/STM32F0xx_HAL_Driver/Src/stm32f0xx_hal_pcd.c ****     PCD_WritePMA(hpcd->Instance, ep->xfer_buff, pmabuffer, len);
 942:Drivers/STM32F0xx_HAL_Driver/Src/stm32f0xx_hal_pcd.c ****     PCD_FreeUserBuffer(hpcd->Instance, ep->num, ep->is_in)
 943:Drivers/STM32F0xx_HAL_Driver/Src/stm32f0xx_hal_pcd.c ****   }
 944:Drivers/STM32F0xx_HAL_Driver/Src/stm32f0xx_hal_pcd.c **** 
 945:Drivers/STM32F0xx_HAL_Driver/Src/stm32f0xx_hal_pcd.c ****   PCD_SET_EP_TX_STATUS(hpcd->Instance, ep->num, USB_EP_TX_VALID)
 946:Drivers/STM32F0xx_HAL_Driver/Src/stm32f0xx_hal_pcd.c ****      
 947:Drivers/STM32F0xx_HAL_Driver/Src/stm32f0xx_hal_pcd.c ****   return HAL_OK;
 948:Drivers/STM32F0xx_HAL_Driver/Src/stm32f0xx_hal_pcd.c **** }
 949:Drivers/STM32F0xx_HAL_Driver/Src/stm32f0xx_hal_pcd.c **** 
 950:Drivers/STM32F0xx_HAL_Driver/Src/stm32f0xx_hal_pcd.c **** /**
 951:Drivers/STM32F0xx_HAL_Driver/Src/stm32f0xx_hal_pcd.c ****   * @brief  Set a STALL condition over an endpoint
 952:Drivers/STM32F0xx_HAL_Driver/Src/stm32f0xx_hal_pcd.c ****   * @param  hpcd PCD handle
 953:Drivers/STM32F0xx_HAL_Driver/Src/stm32f0xx_hal_pcd.c ****   * @param  ep_addr endpoint address
 954:Drivers/STM32F0xx_HAL_Driver/Src/stm32f0xx_hal_pcd.c ****   * @retval HAL status
ARM GAS  /tmp/ccHm7VQo.s 			page 65


 955:Drivers/STM32F0xx_HAL_Driver/Src/stm32f0xx_hal_pcd.c ****   */
 956:Drivers/STM32F0xx_HAL_Driver/Src/stm32f0xx_hal_pcd.c **** HAL_StatusTypeDef HAL_PCD_EP_SetStall(PCD_HandleTypeDef *hpcd, uint8_t ep_addr)
 957:Drivers/STM32F0xx_HAL_Driver/Src/stm32f0xx_hal_pcd.c **** {
 2453              		.loc 1 957 1 is_stmt 1 view -0
 2454              		.cfi_startproc
 2455              		@ args = 0, pretend = 0, frame = 0
 2456              		@ frame_needed = 0, uses_anonymous_args = 0
 2457              		.loc 1 957 1 is_stmt 0 view .LVU547
 2458 0000 10B5     		push	{r4, lr}
 2459              	.LCFI8:
 2460              		.cfi_def_cfa_offset 8
 2461              		.cfi_offset 4, -8
 2462              		.cfi_offset 14, -4
 2463 0002 0C00     		movs	r4, r1
 958:Drivers/STM32F0xx_HAL_Driver/Src/stm32f0xx_hal_pcd.c ****   PCD_EPTypeDef *ep;
 2464              		.loc 1 958 3 is_stmt 1 view .LVU548
 959:Drivers/STM32F0xx_HAL_Driver/Src/stm32f0xx_hal_pcd.c ****    
 960:Drivers/STM32F0xx_HAL_Driver/Src/stm32f0xx_hal_pcd.c ****   __HAL_LOCK(hpcd); 
 2465              		.loc 1 960 3 view .LVU549
 2466              		.loc 1 960 3 view .LVU550
 2467 0004 F423     		movs	r3, #244
 2468 0006 5B00     		lsls	r3, r3, #1
 2469 0008 C35C     		ldrb	r3, [r0, r3]
 2470 000a 012B     		cmp	r3, #1
 2471 000c 46D0     		beq	.L122
 2472              		.loc 1 960 3 discriminator 2 view .LVU551
 2473 000e F423     		movs	r3, #244
 2474 0010 5B00     		lsls	r3, r3, #1
 2475 0012 0122     		movs	r2, #1
 2476 0014 C254     		strb	r2, [r0, r3]
 961:Drivers/STM32F0xx_HAL_Driver/Src/stm32f0xx_hal_pcd.c ****    
 962:Drivers/STM32F0xx_HAL_Driver/Src/stm32f0xx_hal_pcd.c ****   if ((0x80U & ep_addr) == 0x80U)
 2477              		.loc 1 962 3 discriminator 2 view .LVU552
 2478              		.loc 1 962 25 is_stmt 0 discriminator 2 view .LVU553
 2479 0016 4AB2     		sxtb	r2, r1
 2480              		.loc 1 962 6 discriminator 2 view .LVU554
 2481 0018 002A     		cmp	r2, #0
 2482 001a 1EDB     		blt	.L123
 963:Drivers/STM32F0xx_HAL_Driver/Src/stm32f0xx_hal_pcd.c ****   {
 964:Drivers/STM32F0xx_HAL_Driver/Src/stm32f0xx_hal_pcd.c ****     ep = &hpcd->IN_ep[ep_addr & 0x7FU];
 965:Drivers/STM32F0xx_HAL_Driver/Src/stm32f0xx_hal_pcd.c ****   }
 966:Drivers/STM32F0xx_HAL_Driver/Src/stm32f0xx_hal_pcd.c ****   else
 967:Drivers/STM32F0xx_HAL_Driver/Src/stm32f0xx_hal_pcd.c ****   {
 968:Drivers/STM32F0xx_HAL_Driver/Src/stm32f0xx_hal_pcd.c ****     ep = &hpcd->OUT_ep[ep_addr];
 2483              		.loc 1 968 5 is_stmt 1 view .LVU555
 2484              		.loc 1 968 8 is_stmt 0 view .LVU556
 2485 001c CB00     		lsls	r3, r1, #3
 2486 001e 5B1A     		subs	r3, r3, r1
 2487 0020 9B00     		lsls	r3, r3, #2
 2488 0022 0933     		adds	r3, r3, #9
 2489 0024 FF33     		adds	r3, r3, #255
 2490 0026 C318     		adds	r3, r0, r3
 2491              	.LVL183:
 2492              	.L118:
 969:Drivers/STM32F0xx_HAL_Driver/Src/stm32f0xx_hal_pcd.c ****   }
 970:Drivers/STM32F0xx_HAL_Driver/Src/stm32f0xx_hal_pcd.c ****   
 971:Drivers/STM32F0xx_HAL_Driver/Src/stm32f0xx_hal_pcd.c ****   ep->is_stall = 1;
ARM GAS  /tmp/ccHm7VQo.s 			page 66


 2493              		.loc 1 971 3 is_stmt 1 view .LVU557
 2494              		.loc 1 971 16 is_stmt 0 view .LVU558
 2495 0028 0121     		movs	r1, #1
 2496 002a 9970     		strb	r1, [r3, #2]
 972:Drivers/STM32F0xx_HAL_Driver/Src/stm32f0xx_hal_pcd.c ****   ep->num   = ep_addr & 0x7FU;
 2497              		.loc 1 972 3 is_stmt 1 view .LVU559
 2498              		.loc 1 972 23 is_stmt 0 view .LVU560
 2499 002c 7E31     		adds	r1, r1, #126
 2500 002e 2140     		ands	r1, r4
 2501              		.loc 1 972 13 view .LVU561
 2502 0030 1970     		strb	r1, [r3]
 973:Drivers/STM32F0xx_HAL_Driver/Src/stm32f0xx_hal_pcd.c ****   ep->is_in = ((ep_addr & 0x80U) == 0x80U);
 2503              		.loc 1 973 3 is_stmt 1 view .LVU562
 2504              		.loc 1 973 34 is_stmt 0 view .LVU563
 2505 0032 D20F     		lsrs	r2, r2, #31
 2506              	.LVL184:
 2507              		.loc 1 973 13 view .LVU564
 2508 0034 5A70     		strb	r2, [r3, #1]
 974:Drivers/STM32F0xx_HAL_Driver/Src/stm32f0xx_hal_pcd.c ****   
 975:Drivers/STM32F0xx_HAL_Driver/Src/stm32f0xx_hal_pcd.c ****   if (ep->num == 0U)
 2509              		.loc 1 975 3 is_stmt 1 view .LVU565
 2510              		.loc 1 975 6 is_stmt 0 view .LVU566
 2511 0036 0029     		cmp	r1, #0
 2512 0038 17D1     		bne	.L119
 2513              	.LBB29:
 976:Drivers/STM32F0xx_HAL_Driver/Src/stm32f0xx_hal_pcd.c ****   {
 977:Drivers/STM32F0xx_HAL_Driver/Src/stm32f0xx_hal_pcd.c ****     /* This macro sets STALL status for RX & TX*/ 
 978:Drivers/STM32F0xx_HAL_Driver/Src/stm32f0xx_hal_pcd.c ****     PCD_SET_EP_TXRX_STATUS(hpcd->Instance, ep->num, USB_EP_RX_STALL, USB_EP_TX_STALL)
 2514              		.loc 1 978 5 is_stmt 1 view .LVU567
 2515              		.loc 1 978 5 view .LVU568
 2516 003a 0468     		ldr	r4, [r0]
 2517 003c 8900     		lsls	r1, r1, #2
 2518 003e 625A     		ldrh	r2, [r4, r1]
 2519              	.LVL185:
 2520              		.loc 1 978 5 view .LVU569
 2521              		.loc 1 978 5 view .LVU570
 2522              		.loc 1 978 5 view .LVU571
 2523              		.loc 1 978 5 view .LVU572
 2524              		.loc 1 978 5 view .LVU573
 2525              		.loc 1 978 5 view .LVU574
 2526              		.loc 1 978 5 view .LVU575
 2527 0040 174B     		ldr	r3, .L124
 2528              	.LVL186:
 2529              		.loc 1 978 5 is_stmt 0 view .LVU576
 2530 0042 1A40     		ands	r2, r3
 2531              	.LVL187:
 2532              		.loc 1 978 5 view .LVU577
 2533 0044 174B     		ldr	r3, .L124+4
 2534 0046 5A40     		eors	r2, r3
 2535 0048 174B     		ldr	r3, .L124+8
 2536 004a 1343     		orrs	r3, r2
 2537 004c 6352     		strh	r3, [r4, r1]
 2538              	.LVL188:
 2539              	.L120:
 2540              		.loc 1 978 5 view .LVU578
 2541              	.LBE29:
 979:Drivers/STM32F0xx_HAL_Driver/Src/stm32f0xx_hal_pcd.c ****   }
ARM GAS  /tmp/ccHm7VQo.s 			page 67


 980:Drivers/STM32F0xx_HAL_Driver/Src/stm32f0xx_hal_pcd.c ****   else
 981:Drivers/STM32F0xx_HAL_Driver/Src/stm32f0xx_hal_pcd.c ****   {
 982:Drivers/STM32F0xx_HAL_Driver/Src/stm32f0xx_hal_pcd.c ****     if (ep->is_in)
 983:Drivers/STM32F0xx_HAL_Driver/Src/stm32f0xx_hal_pcd.c ****     {
 984:Drivers/STM32F0xx_HAL_Driver/Src/stm32f0xx_hal_pcd.c ****       PCD_SET_EP_TX_STATUS(hpcd->Instance, ep->num , USB_EP_TX_STALL)
 985:Drivers/STM32F0xx_HAL_Driver/Src/stm32f0xx_hal_pcd.c ****     }
 986:Drivers/STM32F0xx_HAL_Driver/Src/stm32f0xx_hal_pcd.c ****     else
 987:Drivers/STM32F0xx_HAL_Driver/Src/stm32f0xx_hal_pcd.c ****     {
 988:Drivers/STM32F0xx_HAL_Driver/Src/stm32f0xx_hal_pcd.c ****       PCD_SET_EP_RX_STATUS(hpcd->Instance, ep->num , USB_EP_RX_STALL)
 989:Drivers/STM32F0xx_HAL_Driver/Src/stm32f0xx_hal_pcd.c ****     }
 990:Drivers/STM32F0xx_HAL_Driver/Src/stm32f0xx_hal_pcd.c ****   }
 991:Drivers/STM32F0xx_HAL_Driver/Src/stm32f0xx_hal_pcd.c ****   __HAL_UNLOCK(hpcd); 
 2542              		.loc 1 991 3 is_stmt 1 view .LVU579
 2543              		.loc 1 991 3 view .LVU580
 2544 004e F423     		movs	r3, #244
 2545 0050 5B00     		lsls	r3, r3, #1
 2546 0052 0022     		movs	r2, #0
 2547 0054 C254     		strb	r2, [r0, r3]
 992:Drivers/STM32F0xx_HAL_Driver/Src/stm32f0xx_hal_pcd.c ****   
 993:Drivers/STM32F0xx_HAL_Driver/Src/stm32f0xx_hal_pcd.c ****   return HAL_OK;
 2548              		.loc 1 993 3 view .LVU581
 2549              		.loc 1 993 10 is_stmt 0 view .LVU582
 2550 0056 0020     		movs	r0, #0
 2551              	.LVL189:
 2552              	.L116:
 994:Drivers/STM32F0xx_HAL_Driver/Src/stm32f0xx_hal_pcd.c **** }
 2553              		.loc 1 994 1 view .LVU583
 2554              		@ sp needed
 2555 0058 10BD     		pop	{r4, pc}
 2556              	.LVL190:
 2557              	.L123:
 964:Drivers/STM32F0xx_HAL_Driver/Src/stm32f0xx_hal_pcd.c ****   }
 2558              		.loc 1 964 5 is_stmt 1 view .LVU584
 964:Drivers/STM32F0xx_HAL_Driver/Src/stm32f0xx_hal_pcd.c ****   }
 2559              		.loc 1 964 31 is_stmt 0 view .LVU585
 2560 005a 7F21     		movs	r1, #127
 2561              	.LVL191:
 964:Drivers/STM32F0xx_HAL_Driver/Src/stm32f0xx_hal_pcd.c ****   }
 2562              		.loc 1 964 31 view .LVU586
 2563 005c 2140     		ands	r1, r4
 964:Drivers/STM32F0xx_HAL_Driver/Src/stm32f0xx_hal_pcd.c ****   }
 2564              		.loc 1 964 8 view .LVU587
 2565 005e CB00     		lsls	r3, r1, #3
 2566 0060 5B1A     		subs	r3, r3, r1
 2567 0062 9B00     		lsls	r3, r3, #2
 2568 0064 2833     		adds	r3, r3, #40
 2569 0066 C318     		adds	r3, r0, r3
 2570              	.LVL192:
 964:Drivers/STM32F0xx_HAL_Driver/Src/stm32f0xx_hal_pcd.c ****   }
 2571              		.loc 1 964 8 view .LVU588
 2572 0068 DEE7     		b	.L118
 2573              	.LVL193:
 2574              	.L119:
 982:Drivers/STM32F0xx_HAL_Driver/Src/stm32f0xx_hal_pcd.c ****     {
 2575              		.loc 1 982 5 is_stmt 1 view .LVU589
 982:Drivers/STM32F0xx_HAL_Driver/Src/stm32f0xx_hal_pcd.c ****     {
 2576              		.loc 1 982 8 is_stmt 0 view .LVU590
ARM GAS  /tmp/ccHm7VQo.s 			page 68


 2577 006a 002A     		cmp	r2, #0
 2578 006c 0AD0     		beq	.L121
 2579              	.LBB30:
 984:Drivers/STM32F0xx_HAL_Driver/Src/stm32f0xx_hal_pcd.c ****     }
 2580              		.loc 1 984 7 is_stmt 1 view .LVU591
 984:Drivers/STM32F0xx_HAL_Driver/Src/stm32f0xx_hal_pcd.c ****     }
 2581              		.loc 1 984 7 view .LVU592
 2582 006e 0268     		ldr	r2, [r0]
 2583 0070 8900     		lsls	r1, r1, #2
 2584 0072 535A     		ldrh	r3, [r2, r1]
 2585              	.LVL194:
 984:Drivers/STM32F0xx_HAL_Driver/Src/stm32f0xx_hal_pcd.c ****     }
 2586              		.loc 1 984 7 is_stmt 0 view .LVU593
 2587 0074 0D4C     		ldr	r4, .L124+12
 2588 0076 2340     		ands	r3, r4
 2589              	.LVL195:
 984:Drivers/STM32F0xx_HAL_Driver/Src/stm32f0xx_hal_pcd.c ****     }
 2590              		.loc 1 984 7 is_stmt 1 view .LVU594
 984:Drivers/STM32F0xx_HAL_Driver/Src/stm32f0xx_hal_pcd.c ****     }
 2591              		.loc 1 984 7 view .LVU595
 2592 0078 1024     		movs	r4, #16
 2593 007a 6340     		eors	r3, r4
 2594              	.LVL196:
 984:Drivers/STM32F0xx_HAL_Driver/Src/stm32f0xx_hal_pcd.c ****     }
 2595              		.loc 1 984 7 view .LVU596
 984:Drivers/STM32F0xx_HAL_Driver/Src/stm32f0xx_hal_pcd.c ****     }
 2596              		.loc 1 984 7 view .LVU597
 2597 007c 0A4C     		ldr	r4, .L124+8
 2598 007e 2343     		orrs	r3, r4
 2599              	.LVL197:
 984:Drivers/STM32F0xx_HAL_Driver/Src/stm32f0xx_hal_pcd.c ****     }
 2600              		.loc 1 984 7 is_stmt 0 view .LVU598
 2601 0080 5352     		strh	r3, [r2, r1]
 984:Drivers/STM32F0xx_HAL_Driver/Src/stm32f0xx_hal_pcd.c ****     }
 2602              		.loc 1 984 7 view .LVU599
 2603              	.LBE30:
 2604 0082 E4E7     		b	.L120
 2605              	.LVL198:
 2606              	.L121:
 2607              	.LBB31:
 988:Drivers/STM32F0xx_HAL_Driver/Src/stm32f0xx_hal_pcd.c ****     }
 2608              		.loc 1 988 7 is_stmt 1 view .LVU600
 988:Drivers/STM32F0xx_HAL_Driver/Src/stm32f0xx_hal_pcd.c ****     }
 2609              		.loc 1 988 7 view .LVU601
 2610 0084 0468     		ldr	r4, [r0]
 2611 0086 8900     		lsls	r1, r1, #2
 2612 0088 625A     		ldrh	r2, [r4, r1]
 2613 008a 094B     		ldr	r3, .L124+16
 2614              	.LVL199:
 988:Drivers/STM32F0xx_HAL_Driver/Src/stm32f0xx_hal_pcd.c ****     }
 2615              		.loc 1 988 7 is_stmt 0 view .LVU602
 2616 008c 1A40     		ands	r2, r3
 2617              	.LVL200:
 988:Drivers/STM32F0xx_HAL_Driver/Src/stm32f0xx_hal_pcd.c ****     }
 2618              		.loc 1 988 7 is_stmt 1 view .LVU603
 988:Drivers/STM32F0xx_HAL_Driver/Src/stm32f0xx_hal_pcd.c ****     }
 2619              		.loc 1 988 7 view .LVU604
ARM GAS  /tmp/ccHm7VQo.s 			page 69


 2620 008e 8023     		movs	r3, #128
 2621 0090 5B01     		lsls	r3, r3, #5
 2622 0092 5A40     		eors	r2, r3
 2623              	.LVL201:
 988:Drivers/STM32F0xx_HAL_Driver/Src/stm32f0xx_hal_pcd.c ****     }
 2624              		.loc 1 988 7 view .LVU605
 988:Drivers/STM32F0xx_HAL_Driver/Src/stm32f0xx_hal_pcd.c ****     }
 2625              		.loc 1 988 7 view .LVU606
 2626 0094 044B     		ldr	r3, .L124+8
 2627 0096 1343     		orrs	r3, r2
 2628 0098 6352     		strh	r3, [r4, r1]
 2629 009a D8E7     		b	.L120
 2630              	.LVL202:
 2631              	.L122:
 988:Drivers/STM32F0xx_HAL_Driver/Src/stm32f0xx_hal_pcd.c ****     }
 2632              		.loc 1 988 7 is_stmt 0 view .LVU607
 2633              	.LBE31:
 960:Drivers/STM32F0xx_HAL_Driver/Src/stm32f0xx_hal_pcd.c ****    
 2634              		.loc 1 960 3 view .LVU608
 2635 009c 0220     		movs	r0, #2
 2636              	.LVL203:
 960:Drivers/STM32F0xx_HAL_Driver/Src/stm32f0xx_hal_pcd.c ****    
 2637              		.loc 1 960 3 view .LVU609
 2638 009e DBE7     		b	.L116
 2639              	.L125:
 2640              		.align	2
 2641              	.L124:
 2642 00a0 BFBFFFFF 		.word	-16449
 2643 00a4 10100000 		.word	4112
 2644 00a8 8080FFFF 		.word	-32640
 2645 00ac BF8FFFFF 		.word	-28737
 2646 00b0 8FBFFFFF 		.word	-16497
 2647              		.cfi_endproc
 2648              	.LFE63:
 2650              		.section	.text.HAL_PCD_EP_ClrStall,"ax",%progbits
 2651              		.align	1
 2652              		.global	HAL_PCD_EP_ClrStall
 2653              		.syntax unified
 2654              		.code	16
 2655              		.thumb_func
 2656              		.fpu softvfp
 2658              	HAL_PCD_EP_ClrStall:
 2659              	.LVL204:
 2660              	.LFB64:
 995:Drivers/STM32F0xx_HAL_Driver/Src/stm32f0xx_hal_pcd.c **** 
 996:Drivers/STM32F0xx_HAL_Driver/Src/stm32f0xx_hal_pcd.c **** /**
 997:Drivers/STM32F0xx_HAL_Driver/Src/stm32f0xx_hal_pcd.c ****   * @brief  Clear a STALL condition over in an endpoint
 998:Drivers/STM32F0xx_HAL_Driver/Src/stm32f0xx_hal_pcd.c ****   * @param  hpcd PCD handle
 999:Drivers/STM32F0xx_HAL_Driver/Src/stm32f0xx_hal_pcd.c ****   * @param  ep_addr endpoint address
1000:Drivers/STM32F0xx_HAL_Driver/Src/stm32f0xx_hal_pcd.c ****   * @retval HAL status
1001:Drivers/STM32F0xx_HAL_Driver/Src/stm32f0xx_hal_pcd.c ****   */
1002:Drivers/STM32F0xx_HAL_Driver/Src/stm32f0xx_hal_pcd.c **** HAL_StatusTypeDef HAL_PCD_EP_ClrStall(PCD_HandleTypeDef *hpcd, uint8_t ep_addr)
1003:Drivers/STM32F0xx_HAL_Driver/Src/stm32f0xx_hal_pcd.c **** {
 2661              		.loc 1 1003 1 is_stmt 1 view -0
 2662              		.cfi_startproc
 2663              		@ args = 0, pretend = 0, frame = 0
 2664              		@ frame_needed = 0, uses_anonymous_args = 0
ARM GAS  /tmp/ccHm7VQo.s 			page 70


 2665              		.loc 1 1003 1 is_stmt 0 view .LVU611
 2666 0000 10B5     		push	{r4, lr}
 2667              	.LCFI9:
 2668              		.cfi_def_cfa_offset 8
 2669              		.cfi_offset 4, -8
 2670              		.cfi_offset 14, -4
 2671 0002 0C00     		movs	r4, r1
1004:Drivers/STM32F0xx_HAL_Driver/Src/stm32f0xx_hal_pcd.c ****   PCD_EPTypeDef *ep;
 2672              		.loc 1 1004 3 is_stmt 1 view .LVU612
1005:Drivers/STM32F0xx_HAL_Driver/Src/stm32f0xx_hal_pcd.c ****   
1006:Drivers/STM32F0xx_HAL_Driver/Src/stm32f0xx_hal_pcd.c ****   if ((0x80U & ep_addr) == 0x80U)
 2673              		.loc 1 1006 3 view .LVU613
 2674              		.loc 1 1006 25 is_stmt 0 view .LVU614
 2675 0004 4AB2     		sxtb	r2, r1
 2676              		.loc 1 1006 6 view .LVU615
 2677 0006 002A     		cmp	r2, #0
 2678 0008 35DB     		blt	.L135
1007:Drivers/STM32F0xx_HAL_Driver/Src/stm32f0xx_hal_pcd.c ****   {
1008:Drivers/STM32F0xx_HAL_Driver/Src/stm32f0xx_hal_pcd.c ****     ep = &hpcd->IN_ep[ep_addr & 0x7FU];
1009:Drivers/STM32F0xx_HAL_Driver/Src/stm32f0xx_hal_pcd.c ****   }
1010:Drivers/STM32F0xx_HAL_Driver/Src/stm32f0xx_hal_pcd.c ****   else
1011:Drivers/STM32F0xx_HAL_Driver/Src/stm32f0xx_hal_pcd.c ****   {
1012:Drivers/STM32F0xx_HAL_Driver/Src/stm32f0xx_hal_pcd.c ****     ep = &hpcd->OUT_ep[ep_addr];
 2679              		.loc 1 1012 5 is_stmt 1 view .LVU616
 2680              		.loc 1 1012 8 is_stmt 0 view .LVU617
 2681 000a CB00     		lsls	r3, r1, #3
 2682 000c 5B1A     		subs	r3, r3, r1
 2683 000e 9B00     		lsls	r3, r3, #2
 2684 0010 0933     		adds	r3, r3, #9
 2685 0012 FF33     		adds	r3, r3, #255
 2686 0014 C318     		adds	r3, r0, r3
 2687              	.LVL205:
 2688              	.L128:
1013:Drivers/STM32F0xx_HAL_Driver/Src/stm32f0xx_hal_pcd.c ****   }
1014:Drivers/STM32F0xx_HAL_Driver/Src/stm32f0xx_hal_pcd.c ****   
1015:Drivers/STM32F0xx_HAL_Driver/Src/stm32f0xx_hal_pcd.c ****   ep->is_stall = 0U;
 2689              		.loc 1 1015 3 is_stmt 1 view .LVU618
 2690              		.loc 1 1015 16 is_stmt 0 view .LVU619
 2691 0016 0021     		movs	r1, #0
 2692 0018 9970     		strb	r1, [r3, #2]
1016:Drivers/STM32F0xx_HAL_Driver/Src/stm32f0xx_hal_pcd.c ****   ep->num   = ep_addr & 0x7FU;
 2693              		.loc 1 1016 3 is_stmt 1 view .LVU620
 2694              		.loc 1 1016 23 is_stmt 0 view .LVU621
 2695 001a 7F31     		adds	r1, r1, #127
 2696 001c 2140     		ands	r1, r4
 2697              		.loc 1 1016 13 view .LVU622
 2698 001e 1970     		strb	r1, [r3]
1017:Drivers/STM32F0xx_HAL_Driver/Src/stm32f0xx_hal_pcd.c ****   ep->is_in = ((ep_addr & 0x80U) == 0x80U);
 2699              		.loc 1 1017 3 is_stmt 1 view .LVU623
 2700              		.loc 1 1017 34 is_stmt 0 view .LVU624
 2701 0020 D20F     		lsrs	r2, r2, #31
 2702              	.LVL206:
 2703              		.loc 1 1017 13 view .LVU625
 2704 0022 5A70     		strb	r2, [r3, #1]
1018:Drivers/STM32F0xx_HAL_Driver/Src/stm32f0xx_hal_pcd.c ****   
1019:Drivers/STM32F0xx_HAL_Driver/Src/stm32f0xx_hal_pcd.c ****   __HAL_LOCK(hpcd); 
 2705              		.loc 1 1019 3 is_stmt 1 view .LVU626
ARM GAS  /tmp/ccHm7VQo.s 			page 71


 2706              		.loc 1 1019 3 view .LVU627
 2707 0024 F422     		movs	r2, #244
 2708 0026 5200     		lsls	r2, r2, #1
 2709 0028 825C     		ldrb	r2, [r0, r2]
 2710 002a 012A     		cmp	r2, #1
 2711 002c 44D0     		beq	.L134
 2712              		.loc 1 1019 3 discriminator 2 view .LVU628
 2713 002e F422     		movs	r2, #244
 2714 0030 5200     		lsls	r2, r2, #1
 2715 0032 0121     		movs	r1, #1
 2716 0034 8154     		strb	r1, [r0, r2]
1020:Drivers/STM32F0xx_HAL_Driver/Src/stm32f0xx_hal_pcd.c ****   
1021:Drivers/STM32F0xx_HAL_Driver/Src/stm32f0xx_hal_pcd.c ****   if (ep->is_in)
 2717              		.loc 1 1021 3 discriminator 2 view .LVU629
 2718              		.loc 1 1021 9 is_stmt 0 discriminator 2 view .LVU630
 2719 0036 5A78     		ldrb	r2, [r3, #1]
 2720              		.loc 1 1021 6 discriminator 2 view .LVU631
 2721 0038 002A     		cmp	r2, #0
 2722 003a 24D0     		beq	.L130
1022:Drivers/STM32F0xx_HAL_Driver/Src/stm32f0xx_hal_pcd.c ****   {
1023:Drivers/STM32F0xx_HAL_Driver/Src/stm32f0xx_hal_pcd.c ****     PCD_CLEAR_TX_DTOG(hpcd->Instance, ep->num)
 2723              		.loc 1 1023 5 is_stmt 1 view .LVU632
 2724 003c 0168     		ldr	r1, [r0]
 2725 003e 1A78     		ldrb	r2, [r3]
 2726 0040 9200     		lsls	r2, r2, #2
 2727 0042 8C18     		adds	r4, r1, r2
 2728 0044 8A5A     		ldrh	r2, [r1, r2]
 2729 0046 5106     		lsls	r1, r2, #25
 2730 0048 04D5     		bpl	.L131
 2731              		.loc 1 1023 5 discriminator 1 view .LVU633
 2732 004a 1C49     		ldr	r1, .L136
 2733 004c 0A40     		ands	r2, r1
 2734 004e 1C49     		ldr	r1, .L136+4
 2735 0050 0A43     		orrs	r2, r1
 2736 0052 2280     		strh	r2, [r4]
 2737              	.L131:
 2738              	.LBB32:
1024:Drivers/STM32F0xx_HAL_Driver/Src/stm32f0xx_hal_pcd.c ****     PCD_SET_EP_TX_STATUS(hpcd->Instance, ep->num, USB_EP_TX_VALID)
 2739              		.loc 1 1024 5 view .LVU634
 2740              		.loc 1 1024 5 view .LVU635
 2741 0054 0168     		ldr	r1, [r0]
 2742 0056 1A78     		ldrb	r2, [r3]
 2743 0058 9200     		lsls	r2, r2, #2
 2744 005a 8B5A     		ldrh	r3, [r1, r2]
 2745              	.LVL207:
 2746              		.loc 1 1024 5 is_stmt 0 view .LVU636
 2747 005c 194C     		ldr	r4, .L136+8
 2748 005e 2340     		ands	r3, r4
 2749              	.LVL208:
 2750              		.loc 1 1024 5 is_stmt 1 view .LVU637
 2751              		.loc 1 1024 5 view .LVU638
 2752              		.loc 1 1024 5 view .LVU639
 2753              		.loc 1 1024 5 view .LVU640
 2754 0060 3024     		movs	r4, #48
 2755 0062 6340     		eors	r3, r4
 2756              	.LVL209:
 2757              		.loc 1 1024 5 view .LVU641
ARM GAS  /tmp/ccHm7VQo.s 			page 72


 2758 0064 184C     		ldr	r4, .L136+12
 2759 0066 2343     		orrs	r3, r4
 2760              	.LVL210:
 2761              		.loc 1 1024 5 is_stmt 0 view .LVU642
 2762 0068 8B52     		strh	r3, [r1, r2]
 2763              	.L132:
 2764              		.loc 1 1024 5 view .LVU643
 2765              	.LBE32:
1025:Drivers/STM32F0xx_HAL_Driver/Src/stm32f0xx_hal_pcd.c ****   }
1026:Drivers/STM32F0xx_HAL_Driver/Src/stm32f0xx_hal_pcd.c ****   else
1027:Drivers/STM32F0xx_HAL_Driver/Src/stm32f0xx_hal_pcd.c ****   {
1028:Drivers/STM32F0xx_HAL_Driver/Src/stm32f0xx_hal_pcd.c ****     PCD_CLEAR_RX_DTOG(hpcd->Instance, ep->num)
1029:Drivers/STM32F0xx_HAL_Driver/Src/stm32f0xx_hal_pcd.c ****     PCD_SET_EP_RX_STATUS(hpcd->Instance, ep->num, USB_EP_RX_VALID)
1030:Drivers/STM32F0xx_HAL_Driver/Src/stm32f0xx_hal_pcd.c ****   }
1031:Drivers/STM32F0xx_HAL_Driver/Src/stm32f0xx_hal_pcd.c ****   __HAL_UNLOCK(hpcd); 
 2766              		.loc 1 1031 3 is_stmt 1 view .LVU644
 2767              		.loc 1 1031 3 view .LVU645
 2768 006a F423     		movs	r3, #244
 2769 006c 5B00     		lsls	r3, r3, #1
 2770 006e 0022     		movs	r2, #0
 2771 0070 C254     		strb	r2, [r0, r3]
1032:Drivers/STM32F0xx_HAL_Driver/Src/stm32f0xx_hal_pcd.c ****     
1033:Drivers/STM32F0xx_HAL_Driver/Src/stm32f0xx_hal_pcd.c ****   return HAL_OK;
 2772              		.loc 1 1033 3 view .LVU646
 2773              		.loc 1 1033 10 is_stmt 0 view .LVU647
 2774 0072 0020     		movs	r0, #0
 2775              	.LVL211:
 2776              	.L129:
1034:Drivers/STM32F0xx_HAL_Driver/Src/stm32f0xx_hal_pcd.c **** }
 2777              		.loc 1 1034 1 view .LVU648
 2778              		@ sp needed
 2779 0074 10BD     		pop	{r4, pc}
 2780              	.LVL212:
 2781              	.L135:
1008:Drivers/STM32F0xx_HAL_Driver/Src/stm32f0xx_hal_pcd.c ****   }
 2782              		.loc 1 1008 5 is_stmt 1 view .LVU649
1008:Drivers/STM32F0xx_HAL_Driver/Src/stm32f0xx_hal_pcd.c ****   }
 2783              		.loc 1 1008 31 is_stmt 0 view .LVU650
 2784 0076 7F21     		movs	r1, #127
 2785              	.LVL213:
1008:Drivers/STM32F0xx_HAL_Driver/Src/stm32f0xx_hal_pcd.c ****   }
 2786              		.loc 1 1008 31 view .LVU651
 2787 0078 2140     		ands	r1, r4
1008:Drivers/STM32F0xx_HAL_Driver/Src/stm32f0xx_hal_pcd.c ****   }
 2788              		.loc 1 1008 8 view .LVU652
 2789 007a CB00     		lsls	r3, r1, #3
 2790 007c 5B1A     		subs	r3, r3, r1
 2791 007e 9B00     		lsls	r3, r3, #2
 2792 0080 2833     		adds	r3, r3, #40
 2793 0082 C318     		adds	r3, r0, r3
 2794              	.LVL214:
1008:Drivers/STM32F0xx_HAL_Driver/Src/stm32f0xx_hal_pcd.c ****   }
 2795              		.loc 1 1008 8 view .LVU653
 2796 0084 C7E7     		b	.L128
 2797              	.LVL215:
 2798              	.L130:
1028:Drivers/STM32F0xx_HAL_Driver/Src/stm32f0xx_hal_pcd.c ****     PCD_SET_EP_RX_STATUS(hpcd->Instance, ep->num, USB_EP_RX_VALID)
ARM GAS  /tmp/ccHm7VQo.s 			page 73


 2799              		.loc 1 1028 5 is_stmt 1 view .LVU654
 2800 0086 0168     		ldr	r1, [r0]
 2801 0088 1A78     		ldrb	r2, [r3]
 2802 008a 9200     		lsls	r2, r2, #2
 2803 008c 8C18     		adds	r4, r1, r2
 2804 008e 8A5A     		ldrh	r2, [r1, r2]
 2805 0090 5104     		lsls	r1, r2, #17
 2806 0092 04D5     		bpl	.L133
1028:Drivers/STM32F0xx_HAL_Driver/Src/stm32f0xx_hal_pcd.c ****     PCD_SET_EP_RX_STATUS(hpcd->Instance, ep->num, USB_EP_RX_VALID)
 2807              		.loc 1 1028 5 discriminator 1 view .LVU655
 2808 0094 0949     		ldr	r1, .L136
 2809 0096 0A40     		ands	r2, r1
 2810 0098 0C49     		ldr	r1, .L136+16
 2811 009a 0A43     		orrs	r2, r1
 2812 009c 2280     		strh	r2, [r4]
 2813              	.L133:
 2814              	.LBB33:
1029:Drivers/STM32F0xx_HAL_Driver/Src/stm32f0xx_hal_pcd.c ****   }
 2815              		.loc 1 1029 5 view .LVU656
1029:Drivers/STM32F0xx_HAL_Driver/Src/stm32f0xx_hal_pcd.c ****   }
 2816              		.loc 1 1029 5 view .LVU657
 2817 009e 0468     		ldr	r4, [r0]
 2818 00a0 1B78     		ldrb	r3, [r3]
 2819              	.LVL216:
1029:Drivers/STM32F0xx_HAL_Driver/Src/stm32f0xx_hal_pcd.c ****   }
 2820              		.loc 1 1029 5 is_stmt 0 view .LVU658
 2821 00a2 9B00     		lsls	r3, r3, #2
 2822 00a4 E15A     		ldrh	r1, [r4, r3]
 2823 00a6 0A4A     		ldr	r2, .L136+20
 2824 00a8 1140     		ands	r1, r2
 2825              	.LVL217:
1029:Drivers/STM32F0xx_HAL_Driver/Src/stm32f0xx_hal_pcd.c ****   }
 2826              		.loc 1 1029 5 is_stmt 1 view .LVU659
1029:Drivers/STM32F0xx_HAL_Driver/Src/stm32f0xx_hal_pcd.c ****   }
 2827              		.loc 1 1029 5 view .LVU660
1029:Drivers/STM32F0xx_HAL_Driver/Src/stm32f0xx_hal_pcd.c ****   }
 2828              		.loc 1 1029 5 view .LVU661
1029:Drivers/STM32F0xx_HAL_Driver/Src/stm32f0xx_hal_pcd.c ****   }
 2829              		.loc 1 1029 5 view .LVU662
 2830 00aa C022     		movs	r2, #192
 2831 00ac 9201     		lsls	r2, r2, #6
 2832 00ae 5140     		eors	r1, r2
 2833              	.LVL218:
1029:Drivers/STM32F0xx_HAL_Driver/Src/stm32f0xx_hal_pcd.c ****   }
 2834              		.loc 1 1029 5 view .LVU663
 2835 00b0 054A     		ldr	r2, .L136+12
 2836 00b2 0A43     		orrs	r2, r1
 2837 00b4 E252     		strh	r2, [r4, r3]
 2838 00b6 D8E7     		b	.L132
 2839              	.LVL219:
 2840              	.L134:
1029:Drivers/STM32F0xx_HAL_Driver/Src/stm32f0xx_hal_pcd.c ****   }
 2841              		.loc 1 1029 5 is_stmt 0 view .LVU664
 2842              	.LBE33:
1019:Drivers/STM32F0xx_HAL_Driver/Src/stm32f0xx_hal_pcd.c ****   
 2843              		.loc 1 1019 3 view .LVU665
 2844 00b8 0220     		movs	r0, #2
ARM GAS  /tmp/ccHm7VQo.s 			page 74


 2845              	.LVL220:
1019:Drivers/STM32F0xx_HAL_Driver/Src/stm32f0xx_hal_pcd.c ****   
 2846              		.loc 1 1019 3 view .LVU666
 2847 00ba DBE7     		b	.L129
 2848              	.L137:
 2849              		.align	2
 2850              	.L136:
 2851 00bc 0F0F0000 		.word	3855
 2852 00c0 C080FFFF 		.word	-32576
 2853 00c4 BF8FFFFF 		.word	-28737
 2854 00c8 8080FFFF 		.word	-32640
 2855 00cc 80C0FFFF 		.word	-16256
 2856 00d0 8FBFFFFF 		.word	-16497
 2857              		.cfi_endproc
 2858              	.LFE64:
 2860              		.section	.text.HAL_PCD_EP_Flush,"ax",%progbits
 2861              		.align	1
 2862              		.global	HAL_PCD_EP_Flush
 2863              		.syntax unified
 2864              		.code	16
 2865              		.thumb_func
 2866              		.fpu softvfp
 2868              	HAL_PCD_EP_Flush:
 2869              	.LVL221:
 2870              	.LFB65:
1035:Drivers/STM32F0xx_HAL_Driver/Src/stm32f0xx_hal_pcd.c **** 
1036:Drivers/STM32F0xx_HAL_Driver/Src/stm32f0xx_hal_pcd.c **** /**
1037:Drivers/STM32F0xx_HAL_Driver/Src/stm32f0xx_hal_pcd.c ****   * @brief  Flush an endpoint
1038:Drivers/STM32F0xx_HAL_Driver/Src/stm32f0xx_hal_pcd.c ****   * @param  hpcd PCD handle
1039:Drivers/STM32F0xx_HAL_Driver/Src/stm32f0xx_hal_pcd.c ****   * @param  ep_addr endpoint address
1040:Drivers/STM32F0xx_HAL_Driver/Src/stm32f0xx_hal_pcd.c ****   * @retval HAL status
1041:Drivers/STM32F0xx_HAL_Driver/Src/stm32f0xx_hal_pcd.c ****   */
1042:Drivers/STM32F0xx_HAL_Driver/Src/stm32f0xx_hal_pcd.c **** HAL_StatusTypeDef HAL_PCD_EP_Flush(PCD_HandleTypeDef *hpcd, uint8_t ep_addr)
1043:Drivers/STM32F0xx_HAL_Driver/Src/stm32f0xx_hal_pcd.c **** { 
 2871              		.loc 1 1043 1 is_stmt 1 view -0
 2872              		.cfi_startproc
 2873              		@ args = 0, pretend = 0, frame = 0
 2874              		@ frame_needed = 0, uses_anonymous_args = 0
 2875              		@ link register save eliminated.
1044:Drivers/STM32F0xx_HAL_Driver/Src/stm32f0xx_hal_pcd.c ****   return HAL_OK;
 2876              		.loc 1 1044 3 view .LVU668
1045:Drivers/STM32F0xx_HAL_Driver/Src/stm32f0xx_hal_pcd.c **** }
 2877              		.loc 1 1045 1 is_stmt 0 view .LVU669
 2878 0000 0020     		movs	r0, #0
 2879              	.LVL222:
 2880              		.loc 1 1045 1 view .LVU670
 2881              		@ sp needed
 2882 0002 7047     		bx	lr
 2883              		.cfi_endproc
 2884              	.LFE65:
 2886              		.section	.text.HAL_PCD_ActivateRemoteWakeup,"ax",%progbits
 2887              		.align	1
 2888              		.global	HAL_PCD_ActivateRemoteWakeup
 2889              		.syntax unified
 2890              		.code	16
 2891              		.thumb_func
 2892              		.fpu softvfp
ARM GAS  /tmp/ccHm7VQo.s 			page 75


 2894              	HAL_PCD_ActivateRemoteWakeup:
 2895              	.LVL223:
 2896              	.LFB66:
1046:Drivers/STM32F0xx_HAL_Driver/Src/stm32f0xx_hal_pcd.c **** 
1047:Drivers/STM32F0xx_HAL_Driver/Src/stm32f0xx_hal_pcd.c **** /**
1048:Drivers/STM32F0xx_HAL_Driver/Src/stm32f0xx_hal_pcd.c ****   * @brief  HAL_PCD_ActivateRemoteWakeup : active remote wakeup signalling
1049:Drivers/STM32F0xx_HAL_Driver/Src/stm32f0xx_hal_pcd.c **** * @param  hpcd PCD handle
1050:Drivers/STM32F0xx_HAL_Driver/Src/stm32f0xx_hal_pcd.c **** * @retval HAL status
1051:Drivers/STM32F0xx_HAL_Driver/Src/stm32f0xx_hal_pcd.c **** */
1052:Drivers/STM32F0xx_HAL_Driver/Src/stm32f0xx_hal_pcd.c **** HAL_StatusTypeDef HAL_PCD_ActivateRemoteWakeup(PCD_HandleTypeDef *hpcd)
1053:Drivers/STM32F0xx_HAL_Driver/Src/stm32f0xx_hal_pcd.c **** {
 2897              		.loc 1 1053 1 is_stmt 1 view -0
 2898              		.cfi_startproc
 2899              		@ args = 0, pretend = 0, frame = 0
 2900              		@ frame_needed = 0, uses_anonymous_args = 0
 2901              		@ link register save eliminated.
1054:Drivers/STM32F0xx_HAL_Driver/Src/stm32f0xx_hal_pcd.c ****   if (hpcd->Init.lpm_enable ==1)
 2902              		.loc 1 1054 3 view .LVU672
 2903              		.loc 1 1054 6 is_stmt 0 view .LVU673
 2904 0000 C369     		ldr	r3, [r0, #28]
 2905 0002 012B     		cmp	r3, #1
 2906 0004 07D0     		beq	.L142
1055:Drivers/STM32F0xx_HAL_Driver/Src/stm32f0xx_hal_pcd.c ****   {
1056:Drivers/STM32F0xx_HAL_Driver/Src/stm32f0xx_hal_pcd.c ****     /* Apply L1 Resume */
1057:Drivers/STM32F0xx_HAL_Driver/Src/stm32f0xx_hal_pcd.c ****     hpcd->Instance->CNTR |= USB_CNTR_L1RESUME;
1058:Drivers/STM32F0xx_HAL_Driver/Src/stm32f0xx_hal_pcd.c ****   }
1059:Drivers/STM32F0xx_HAL_Driver/Src/stm32f0xx_hal_pcd.c ****   else
1060:Drivers/STM32F0xx_HAL_Driver/Src/stm32f0xx_hal_pcd.c ****   {
1061:Drivers/STM32F0xx_HAL_Driver/Src/stm32f0xx_hal_pcd.c ****     /* Apply L2 Resume */
1062:Drivers/STM32F0xx_HAL_Driver/Src/stm32f0xx_hal_pcd.c ****     hpcd->Instance->CNTR |= USB_CNTR_RESUME;
 2907              		.loc 1 1062 5 is_stmt 1 view .LVU674
 2908              		.loc 1 1062 9 is_stmt 0 view .LVU675
 2909 0006 0168     		ldr	r1, [r0]
 2910              		.loc 1 1062 26 view .LVU676
 2911 0008 4022     		movs	r2, #64
 2912 000a 8B5A     		ldrh	r3, [r1, r2]
 2913 000c 1020     		movs	r0, #16
 2914              	.LVL224:
 2915              		.loc 1 1062 26 view .LVU677
 2916 000e 0343     		orrs	r3, r0
 2917 0010 8B52     		strh	r3, [r1, r2]
 2918              	.L141:
1063:Drivers/STM32F0xx_HAL_Driver/Src/stm32f0xx_hal_pcd.c ****   }
1064:Drivers/STM32F0xx_HAL_Driver/Src/stm32f0xx_hal_pcd.c ****   
1065:Drivers/STM32F0xx_HAL_Driver/Src/stm32f0xx_hal_pcd.c ****   return (HAL_OK);
 2919              		.loc 1 1065 3 is_stmt 1 view .LVU678
1066:Drivers/STM32F0xx_HAL_Driver/Src/stm32f0xx_hal_pcd.c **** }
 2920              		.loc 1 1066 1 is_stmt 0 view .LVU679
 2921 0012 0020     		movs	r0, #0
 2922              		@ sp needed
 2923 0014 7047     		bx	lr
 2924              	.LVL225:
 2925              	.L142:
1057:Drivers/STM32F0xx_HAL_Driver/Src/stm32f0xx_hal_pcd.c ****   }
 2926              		.loc 1 1057 5 is_stmt 1 view .LVU680
1057:Drivers/STM32F0xx_HAL_Driver/Src/stm32f0xx_hal_pcd.c ****   }
 2927              		.loc 1 1057 9 is_stmt 0 view .LVU681
ARM GAS  /tmp/ccHm7VQo.s 			page 76


 2928 0016 0168     		ldr	r1, [r0]
1057:Drivers/STM32F0xx_HAL_Driver/Src/stm32f0xx_hal_pcd.c ****   }
 2929              		.loc 1 1057 26 view .LVU682
 2930 0018 4022     		movs	r2, #64
 2931 001a 8B5A     		ldrh	r3, [r1, r2]
 2932 001c 2020     		movs	r0, #32
 2933              	.LVL226:
1057:Drivers/STM32F0xx_HAL_Driver/Src/stm32f0xx_hal_pcd.c ****   }
 2934              		.loc 1 1057 26 view .LVU683
 2935 001e 0343     		orrs	r3, r0
 2936 0020 8B52     		strh	r3, [r1, r2]
 2937 0022 F6E7     		b	.L141
 2938              		.cfi_endproc
 2939              	.LFE66:
 2941              		.section	.text.HAL_PCD_DeActivateRemoteWakeup,"ax",%progbits
 2942              		.align	1
 2943              		.global	HAL_PCD_DeActivateRemoteWakeup
 2944              		.syntax unified
 2945              		.code	16
 2946              		.thumb_func
 2947              		.fpu softvfp
 2949              	HAL_PCD_DeActivateRemoteWakeup:
 2950              	.LVL227:
 2951              	.LFB67:
1067:Drivers/STM32F0xx_HAL_Driver/Src/stm32f0xx_hal_pcd.c **** 
1068:Drivers/STM32F0xx_HAL_Driver/Src/stm32f0xx_hal_pcd.c **** /**
1069:Drivers/STM32F0xx_HAL_Driver/Src/stm32f0xx_hal_pcd.c **** * @brief  HAL_PCD_DeActivateRemoteWakeup : de-active remote wakeup signalling
1070:Drivers/STM32F0xx_HAL_Driver/Src/stm32f0xx_hal_pcd.c **** * @param  hpcd PCD handle
1071:Drivers/STM32F0xx_HAL_Driver/Src/stm32f0xx_hal_pcd.c **** * @retval HAL status
1072:Drivers/STM32F0xx_HAL_Driver/Src/stm32f0xx_hal_pcd.c **** */
1073:Drivers/STM32F0xx_HAL_Driver/Src/stm32f0xx_hal_pcd.c **** HAL_StatusTypeDef HAL_PCD_DeActivateRemoteWakeup(PCD_HandleTypeDef *hpcd)
1074:Drivers/STM32F0xx_HAL_Driver/Src/stm32f0xx_hal_pcd.c **** {
 2952              		.loc 1 1074 1 is_stmt 1 view -0
 2953              		.cfi_startproc
 2954              		@ args = 0, pretend = 0, frame = 0
 2955              		@ frame_needed = 0, uses_anonymous_args = 0
 2956              		@ link register save eliminated.
1075:Drivers/STM32F0xx_HAL_Driver/Src/stm32f0xx_hal_pcd.c ****   if (hpcd->Init.lpm_enable ==1)
 2957              		.loc 1 1075 3 view .LVU685
 2958              		.loc 1 1075 6 is_stmt 0 view .LVU686
 2959 0000 C369     		ldr	r3, [r0, #28]
 2960 0002 012B     		cmp	r3, #1
 2961 0004 07D0     		beq	.L146
1076:Drivers/STM32F0xx_HAL_Driver/Src/stm32f0xx_hal_pcd.c ****   {
1077:Drivers/STM32F0xx_HAL_Driver/Src/stm32f0xx_hal_pcd.c ****     /* Release L1 Resume */
1078:Drivers/STM32F0xx_HAL_Driver/Src/stm32f0xx_hal_pcd.c ****     hpcd->Instance->CNTR &= ((uint16_t)(~ USB_CNTR_L1RESUME));
1079:Drivers/STM32F0xx_HAL_Driver/Src/stm32f0xx_hal_pcd.c ****   }
1080:Drivers/STM32F0xx_HAL_Driver/Src/stm32f0xx_hal_pcd.c ****   else
1081:Drivers/STM32F0xx_HAL_Driver/Src/stm32f0xx_hal_pcd.c ****   {
1082:Drivers/STM32F0xx_HAL_Driver/Src/stm32f0xx_hal_pcd.c ****     /* Release L2 Resume */
1083:Drivers/STM32F0xx_HAL_Driver/Src/stm32f0xx_hal_pcd.c ****     hpcd->Instance->CNTR &= ((uint16_t)(~ USB_CNTR_RESUME)) ;
 2962              		.loc 1 1083 5 is_stmt 1 view .LVU687
 2963              		.loc 1 1083 9 is_stmt 0 view .LVU688
 2964 0006 0168     		ldr	r1, [r0]
 2965              		.loc 1 1083 26 view .LVU689
 2966 0008 4022     		movs	r2, #64
 2967 000a 8B5A     		ldrh	r3, [r1, r2]
ARM GAS  /tmp/ccHm7VQo.s 			page 77


 2968 000c 1020     		movs	r0, #16
 2969              	.LVL228:
 2970              		.loc 1 1083 26 view .LVU690
 2971 000e 8343     		bics	r3, r0
 2972 0010 8B52     		strh	r3, [r1, r2]
 2973              	.L145:
1084:Drivers/STM32F0xx_HAL_Driver/Src/stm32f0xx_hal_pcd.c ****   }
1085:Drivers/STM32F0xx_HAL_Driver/Src/stm32f0xx_hal_pcd.c ****   
1086:Drivers/STM32F0xx_HAL_Driver/Src/stm32f0xx_hal_pcd.c ****   return (HAL_OK);
 2974              		.loc 1 1086 3 is_stmt 1 view .LVU691
1087:Drivers/STM32F0xx_HAL_Driver/Src/stm32f0xx_hal_pcd.c **** }
 2975              		.loc 1 1087 1 is_stmt 0 view .LVU692
 2976 0012 0020     		movs	r0, #0
 2977              		@ sp needed
 2978 0014 7047     		bx	lr
 2979              	.LVL229:
 2980              	.L146:
1078:Drivers/STM32F0xx_HAL_Driver/Src/stm32f0xx_hal_pcd.c ****   }
 2981              		.loc 1 1078 5 is_stmt 1 view .LVU693
1078:Drivers/STM32F0xx_HAL_Driver/Src/stm32f0xx_hal_pcd.c ****   }
 2982              		.loc 1 1078 9 is_stmt 0 view .LVU694
 2983 0016 0168     		ldr	r1, [r0]
1078:Drivers/STM32F0xx_HAL_Driver/Src/stm32f0xx_hal_pcd.c ****   }
 2984              		.loc 1 1078 26 view .LVU695
 2985 0018 4022     		movs	r2, #64
 2986 001a 8B5A     		ldrh	r3, [r1, r2]
 2987 001c 2020     		movs	r0, #32
 2988              	.LVL230:
1078:Drivers/STM32F0xx_HAL_Driver/Src/stm32f0xx_hal_pcd.c ****   }
 2989              		.loc 1 1078 26 view .LVU696
 2990 001e 8343     		bics	r3, r0
 2991 0020 8B52     		strh	r3, [r1, r2]
 2992 0022 F6E7     		b	.L145
 2993              		.cfi_endproc
 2994              	.LFE67:
 2996              		.section	.text.HAL_PCD_GetState,"ax",%progbits
 2997              		.align	1
 2998              		.global	HAL_PCD_GetState
 2999              		.syntax unified
 3000              		.code	16
 3001              		.thumb_func
 3002              		.fpu softvfp
 3004              	HAL_PCD_GetState:
 3005              	.LVL231:
 3006              	.LFB68:
1088:Drivers/STM32F0xx_HAL_Driver/Src/stm32f0xx_hal_pcd.c **** /**
1089:Drivers/STM32F0xx_HAL_Driver/Src/stm32f0xx_hal_pcd.c ****   * @}
1090:Drivers/STM32F0xx_HAL_Driver/Src/stm32f0xx_hal_pcd.c ****   */
1091:Drivers/STM32F0xx_HAL_Driver/Src/stm32f0xx_hal_pcd.c **** 
1092:Drivers/STM32F0xx_HAL_Driver/Src/stm32f0xx_hal_pcd.c **** /** @defgroup PCD_Exported_Functions_Group4 Peripheral State functions 
1093:Drivers/STM32F0xx_HAL_Driver/Src/stm32f0xx_hal_pcd.c ****  *  @brief   Peripheral State functions 
1094:Drivers/STM32F0xx_HAL_Driver/Src/stm32f0xx_hal_pcd.c ****  *
1095:Drivers/STM32F0xx_HAL_Driver/Src/stm32f0xx_hal_pcd.c **** @verbatim   
1096:Drivers/STM32F0xx_HAL_Driver/Src/stm32f0xx_hal_pcd.c ****  ===============================================================================
1097:Drivers/STM32F0xx_HAL_Driver/Src/stm32f0xx_hal_pcd.c ****                       ##### Peripheral State functions #####
1098:Drivers/STM32F0xx_HAL_Driver/Src/stm32f0xx_hal_pcd.c ****  ===============================================================================  
1099:Drivers/STM32F0xx_HAL_Driver/Src/stm32f0xx_hal_pcd.c ****     [..]
ARM GAS  /tmp/ccHm7VQo.s 			page 78


1100:Drivers/STM32F0xx_HAL_Driver/Src/stm32f0xx_hal_pcd.c ****     This subsection permits to get in run-time the status of the peripheral 
1101:Drivers/STM32F0xx_HAL_Driver/Src/stm32f0xx_hal_pcd.c ****     and the data flow.
1102:Drivers/STM32F0xx_HAL_Driver/Src/stm32f0xx_hal_pcd.c **** 
1103:Drivers/STM32F0xx_HAL_Driver/Src/stm32f0xx_hal_pcd.c **** @endverbatim
1104:Drivers/STM32F0xx_HAL_Driver/Src/stm32f0xx_hal_pcd.c ****   * @{
1105:Drivers/STM32F0xx_HAL_Driver/Src/stm32f0xx_hal_pcd.c ****   */
1106:Drivers/STM32F0xx_HAL_Driver/Src/stm32f0xx_hal_pcd.c **** 
1107:Drivers/STM32F0xx_HAL_Driver/Src/stm32f0xx_hal_pcd.c **** /**
1108:Drivers/STM32F0xx_HAL_Driver/Src/stm32f0xx_hal_pcd.c ****   * @brief  Return the PCD state
1109:Drivers/STM32F0xx_HAL_Driver/Src/stm32f0xx_hal_pcd.c ****   * @param  hpcd PCD handle
1110:Drivers/STM32F0xx_HAL_Driver/Src/stm32f0xx_hal_pcd.c ****   * @retval HAL state
1111:Drivers/STM32F0xx_HAL_Driver/Src/stm32f0xx_hal_pcd.c ****   */
1112:Drivers/STM32F0xx_HAL_Driver/Src/stm32f0xx_hal_pcd.c **** PCD_StateTypeDef HAL_PCD_GetState(PCD_HandleTypeDef *hpcd)
1113:Drivers/STM32F0xx_HAL_Driver/Src/stm32f0xx_hal_pcd.c **** {
 3007              		.loc 1 1113 1 is_stmt 1 view -0
 3008              		.cfi_startproc
 3009              		@ args = 0, pretend = 0, frame = 0
 3010              		@ frame_needed = 0, uses_anonymous_args = 0
 3011              		@ link register save eliminated.
1114:Drivers/STM32F0xx_HAL_Driver/Src/stm32f0xx_hal_pcd.c ****   return hpcd->State;
 3012              		.loc 1 1114 3 view .LVU698
 3013              		.loc 1 1114 14 is_stmt 0 view .LVU699
 3014 0000 EA23     		movs	r3, #234
 3015 0002 FF33     		adds	r3, r3, #255
 3016 0004 C05C     		ldrb	r0, [r0, r3]
 3017              	.LVL232:
 3018              		.loc 1 1114 14 view .LVU700
 3019 0006 C0B2     		uxtb	r0, r0
1115:Drivers/STM32F0xx_HAL_Driver/Src/stm32f0xx_hal_pcd.c **** }
 3020              		.loc 1 1115 1 view .LVU701
 3021              		@ sp needed
 3022 0008 7047     		bx	lr
 3023              		.cfi_endproc
 3024              	.LFE68:
 3026              		.section	.text.PCD_WritePMA,"ax",%progbits
 3027              		.align	1
 3028              		.global	PCD_WritePMA
 3029              		.syntax unified
 3030              		.code	16
 3031              		.thumb_func
 3032              		.fpu softvfp
 3034              	PCD_WritePMA:
