ARM GAS  /tmp/ccHm7VQo.s 			page 1


   1              		.cpu cortex-m0
   2              		.eabi_attribute 20, 1
   3              		.eabi_attribute 21, 1
   4              		.eabi_attribute 23, 3
   5              		.eabi_attribute 24, 1
   6              		.eabi_attribute 25, 1
   7              		.eabi_attribute 26, 1
   8              		.eabi_attribute 30, 1
   9              		.eabi_attribute 34, 0
  10              		.eabi_attribute 18, 4
  11              		.file	"stm32f0xx_hal_pcd.c"
  12              		.text
  13              	.Ltext0:
  14              		.cfi_sections	.debug_frame
  15              		.section	.text.HAL_PCD_MspInit,"ax",%progbits
  16              		.align	1
  17              		.weak	HAL_PCD_MspInit
  18              		.arch armv6s-m
  19              		.syntax unified
  20              		.code	16
  21              		.thumb_func
  22              		.fpu softvfp
  24              	HAL_PCD_MspInit:
  25              	.LVL0:
  26              	.LFB39:
  27              		.file 1 "Drivers/STM32F0xx_HAL_Driver/Src/stm32f0xx_hal_pcd.c"
   1:Drivers/STM32F0xx_HAL_Driver/Src/stm32f0xx_hal_pcd.c **** /**
   2:Drivers/STM32F0xx_HAL_Driver/Src/stm32f0xx_hal_pcd.c ****   ******************************************************************************
   3:Drivers/STM32F0xx_HAL_Driver/Src/stm32f0xx_hal_pcd.c ****   * @file    stm32f0xx_hal_pcd.c
   4:Drivers/STM32F0xx_HAL_Driver/Src/stm32f0xx_hal_pcd.c ****   * @author  MCD Application Team
   5:Drivers/STM32F0xx_HAL_Driver/Src/stm32f0xx_hal_pcd.c ****   * @brief   PCD HAL module driver.
   6:Drivers/STM32F0xx_HAL_Driver/Src/stm32f0xx_hal_pcd.c ****   *          This file provides firmware functions to manage the following 
   7:Drivers/STM32F0xx_HAL_Driver/Src/stm32f0xx_hal_pcd.c ****   *          functionalities of the USB Peripheral Controller:
   8:Drivers/STM32F0xx_HAL_Driver/Src/stm32f0xx_hal_pcd.c ****   *           + Initialization and de-initialization functions
   9:Drivers/STM32F0xx_HAL_Driver/Src/stm32f0xx_hal_pcd.c ****   *           + IO operation functions
  10:Drivers/STM32F0xx_HAL_Driver/Src/stm32f0xx_hal_pcd.c ****   *           + Peripheral Control functions 
  11:Drivers/STM32F0xx_HAL_Driver/Src/stm32f0xx_hal_pcd.c ****   *           + Peripheral State functions
  12:Drivers/STM32F0xx_HAL_Driver/Src/stm32f0xx_hal_pcd.c ****   *         
  13:Drivers/STM32F0xx_HAL_Driver/Src/stm32f0xx_hal_pcd.c ****   @verbatim
  14:Drivers/STM32F0xx_HAL_Driver/Src/stm32f0xx_hal_pcd.c ****   ==============================================================================
  15:Drivers/STM32F0xx_HAL_Driver/Src/stm32f0xx_hal_pcd.c ****                     ##### How to use this driver #####
  16:Drivers/STM32F0xx_HAL_Driver/Src/stm32f0xx_hal_pcd.c ****   ==============================================================================
  17:Drivers/STM32F0xx_HAL_Driver/Src/stm32f0xx_hal_pcd.c ****     [..]
  18:Drivers/STM32F0xx_HAL_Driver/Src/stm32f0xx_hal_pcd.c ****       The PCD HAL driver can be used as follows:
  19:Drivers/STM32F0xx_HAL_Driver/Src/stm32f0xx_hal_pcd.c **** 
  20:Drivers/STM32F0xx_HAL_Driver/Src/stm32f0xx_hal_pcd.c ****      (#) Declare a PCD_HandleTypeDef handle structure, for example:
  21:Drivers/STM32F0xx_HAL_Driver/Src/stm32f0xx_hal_pcd.c ****          PCD_HandleTypeDef  hpcd;
  22:Drivers/STM32F0xx_HAL_Driver/Src/stm32f0xx_hal_pcd.c ****         
  23:Drivers/STM32F0xx_HAL_Driver/Src/stm32f0xx_hal_pcd.c ****      (#) Fill parameters of Init structure in HCD handle
  24:Drivers/STM32F0xx_HAL_Driver/Src/stm32f0xx_hal_pcd.c ****   
  25:Drivers/STM32F0xx_HAL_Driver/Src/stm32f0xx_hal_pcd.c ****      (#) Call HAL_PCD_Init() API to initialize the HCD peripheral (Core, Device core, ...) 
  26:Drivers/STM32F0xx_HAL_Driver/Src/stm32f0xx_hal_pcd.c **** 
  27:Drivers/STM32F0xx_HAL_Driver/Src/stm32f0xx_hal_pcd.c ****      (#) Initialize the PCD low level resources through the HAL_PCD_MspInit() API:
  28:Drivers/STM32F0xx_HAL_Driver/Src/stm32f0xx_hal_pcd.c ****          (##) Enable the PCD/USB Low Level interface clock using 
  29:Drivers/STM32F0xx_HAL_Driver/Src/stm32f0xx_hal_pcd.c ****               (+++) __HAL_RCC_USB_CLK_ENABLE);
  30:Drivers/STM32F0xx_HAL_Driver/Src/stm32f0xx_hal_pcd.c ****            
  31:Drivers/STM32F0xx_HAL_Driver/Src/stm32f0xx_hal_pcd.c ****          (##) Initialize the related GPIO clocks
ARM GAS  /tmp/ccHm7VQo.s 			page 2


  32:Drivers/STM32F0xx_HAL_Driver/Src/stm32f0xx_hal_pcd.c ****          (##) Configure PCD pin-out
  33:Drivers/STM32F0xx_HAL_Driver/Src/stm32f0xx_hal_pcd.c ****          (##) Configure PCD NVIC interrupt
  34:Drivers/STM32F0xx_HAL_Driver/Src/stm32f0xx_hal_pcd.c ****     
  35:Drivers/STM32F0xx_HAL_Driver/Src/stm32f0xx_hal_pcd.c ****      (#)Associate the Upper USB device stack to the HAL PCD Driver:
  36:Drivers/STM32F0xx_HAL_Driver/Src/stm32f0xx_hal_pcd.c ****          (##) hpcd.pData = pdev;
  37:Drivers/STM32F0xx_HAL_Driver/Src/stm32f0xx_hal_pcd.c **** 
  38:Drivers/STM32F0xx_HAL_Driver/Src/stm32f0xx_hal_pcd.c ****      (#)Enable HCD transmission and reception:
  39:Drivers/STM32F0xx_HAL_Driver/Src/stm32f0xx_hal_pcd.c ****          (##) HAL_PCD_Start();
  40:Drivers/STM32F0xx_HAL_Driver/Src/stm32f0xx_hal_pcd.c **** 
  41:Drivers/STM32F0xx_HAL_Driver/Src/stm32f0xx_hal_pcd.c ****   @endverbatim
  42:Drivers/STM32F0xx_HAL_Driver/Src/stm32f0xx_hal_pcd.c ****   ******************************************************************************
  43:Drivers/STM32F0xx_HAL_Driver/Src/stm32f0xx_hal_pcd.c ****   * @attention
  44:Drivers/STM32F0xx_HAL_Driver/Src/stm32f0xx_hal_pcd.c ****   *
  45:Drivers/STM32F0xx_HAL_Driver/Src/stm32f0xx_hal_pcd.c ****   * <h2><center>&copy; COPYRIGHT(c) 2016 STMicroelectronics</center></h2>
  46:Drivers/STM32F0xx_HAL_Driver/Src/stm32f0xx_hal_pcd.c ****   *
  47:Drivers/STM32F0xx_HAL_Driver/Src/stm32f0xx_hal_pcd.c ****   * Redistribution and use in source and binary forms, with or without modification,
  48:Drivers/STM32F0xx_HAL_Driver/Src/stm32f0xx_hal_pcd.c ****   * are permitted provided that the following conditions are met:
  49:Drivers/STM32F0xx_HAL_Driver/Src/stm32f0xx_hal_pcd.c ****   *   1. Redistributions of source code must retain the above copyright notice,
  50:Drivers/STM32F0xx_HAL_Driver/Src/stm32f0xx_hal_pcd.c ****   *      this list of conditions and the following disclaimer.
  51:Drivers/STM32F0xx_HAL_Driver/Src/stm32f0xx_hal_pcd.c ****   *   2. Redistributions in binary form must reproduce the above copyright notice,
  52:Drivers/STM32F0xx_HAL_Driver/Src/stm32f0xx_hal_pcd.c ****   *      this list of conditions and the following disclaimer in the documentation
  53:Drivers/STM32F0xx_HAL_Driver/Src/stm32f0xx_hal_pcd.c ****   *      and/or other materials provided with the distribution.
  54:Drivers/STM32F0xx_HAL_Driver/Src/stm32f0xx_hal_pcd.c ****   *   3. Neither the name of STMicroelectronics nor the names of its contributors
  55:Drivers/STM32F0xx_HAL_Driver/Src/stm32f0xx_hal_pcd.c ****   *      may be used to endorse or promote products derived from this software
  56:Drivers/STM32F0xx_HAL_Driver/Src/stm32f0xx_hal_pcd.c ****   *      without specific prior written permission.
  57:Drivers/STM32F0xx_HAL_Driver/Src/stm32f0xx_hal_pcd.c ****   *
  58:Drivers/STM32F0xx_HAL_Driver/Src/stm32f0xx_hal_pcd.c ****   * THIS SOFTWARE IS PROVIDED BY THE COPYRIGHT HOLDERS AND CONTRIBUTORS "AS IS"
  59:Drivers/STM32F0xx_HAL_Driver/Src/stm32f0xx_hal_pcd.c ****   * AND ANY EXPRESS OR IMPLIED WARRANTIES, INCLUDING, BUT NOT LIMITED TO, THE
  60:Drivers/STM32F0xx_HAL_Driver/Src/stm32f0xx_hal_pcd.c ****   * IMPLIED WARRANTIES OF MERCHANTABILITY AND FITNESS FOR A PARTICULAR PURPOSE ARE
  61:Drivers/STM32F0xx_HAL_Driver/Src/stm32f0xx_hal_pcd.c ****   * DISCLAIMED. IN NO EVENT SHALL THE COPYRIGHT HOLDER OR CONTRIBUTORS BE LIABLE
  62:Drivers/STM32F0xx_HAL_Driver/Src/stm32f0xx_hal_pcd.c ****   * FOR ANY DIRECT, INDIRECT, INCIDENTAL, SPECIAL, EXEMPLARY, OR CONSEQUENTIAL
  63:Drivers/STM32F0xx_HAL_Driver/Src/stm32f0xx_hal_pcd.c ****   * DAMAGES (INCLUDING, BUT NOT LIMITED TO, PROCUREMENT OF SUBSTITUTE GOODS OR
  64:Drivers/STM32F0xx_HAL_Driver/Src/stm32f0xx_hal_pcd.c ****   * SERVICES; LOSS OF USE, DATA, OR PROFITS; OR BUSINESS INTERRUPTION) HOWEVER
  65:Drivers/STM32F0xx_HAL_Driver/Src/stm32f0xx_hal_pcd.c ****   * CAUSED AND ON ANY THEORY OF LIABILITY, WHETHER IN CONTRACT, STRICT LIABILITY,
  66:Drivers/STM32F0xx_HAL_Driver/Src/stm32f0xx_hal_pcd.c ****   * OR TORT (INCLUDING NEGLIGENCE OR OTHERWISE) ARISING IN ANY WAY OUT OF THE USE
  67:Drivers/STM32F0xx_HAL_Driver/Src/stm32f0xx_hal_pcd.c ****   * OF THIS SOFTWARE, EVEN IF ADVISED OF THE POSSIBILITY OF SUCH DAMAGE.
  68:Drivers/STM32F0xx_HAL_Driver/Src/stm32f0xx_hal_pcd.c ****   *
  69:Drivers/STM32F0xx_HAL_Driver/Src/stm32f0xx_hal_pcd.c ****   ******************************************************************************
  70:Drivers/STM32F0xx_HAL_Driver/Src/stm32f0xx_hal_pcd.c ****   */
  71:Drivers/STM32F0xx_HAL_Driver/Src/stm32f0xx_hal_pcd.c **** 
  72:Drivers/STM32F0xx_HAL_Driver/Src/stm32f0xx_hal_pcd.c **** /* Includes ------------------------------------------------------------------*/
  73:Drivers/STM32F0xx_HAL_Driver/Src/stm32f0xx_hal_pcd.c **** #include "stm32f0xx_hal.h"
  74:Drivers/STM32F0xx_HAL_Driver/Src/stm32f0xx_hal_pcd.c **** 
  75:Drivers/STM32F0xx_HAL_Driver/Src/stm32f0xx_hal_pcd.c **** /** @addtogroup STM32F0xx_HAL_Driver
  76:Drivers/STM32F0xx_HAL_Driver/Src/stm32f0xx_hal_pcd.c ****   * @{
  77:Drivers/STM32F0xx_HAL_Driver/Src/stm32f0xx_hal_pcd.c ****   */
  78:Drivers/STM32F0xx_HAL_Driver/Src/stm32f0xx_hal_pcd.c **** 
  79:Drivers/STM32F0xx_HAL_Driver/Src/stm32f0xx_hal_pcd.c **** #ifdef HAL_PCD_MODULE_ENABLED
  80:Drivers/STM32F0xx_HAL_Driver/Src/stm32f0xx_hal_pcd.c **** 
  81:Drivers/STM32F0xx_HAL_Driver/Src/stm32f0xx_hal_pcd.c **** #if defined(STM32F042x6) || defined(STM32F048xx) || defined(STM32F072xB) || defined(STM32F078xx) ||
  82:Drivers/STM32F0xx_HAL_Driver/Src/stm32f0xx_hal_pcd.c **** 
  83:Drivers/STM32F0xx_HAL_Driver/Src/stm32f0xx_hal_pcd.c **** /** @defgroup PCD PCD
  84:Drivers/STM32F0xx_HAL_Driver/Src/stm32f0xx_hal_pcd.c ****   * @brief PCD HAL module driver
  85:Drivers/STM32F0xx_HAL_Driver/Src/stm32f0xx_hal_pcd.c ****   * @{
  86:Drivers/STM32F0xx_HAL_Driver/Src/stm32f0xx_hal_pcd.c ****   */
  87:Drivers/STM32F0xx_HAL_Driver/Src/stm32f0xx_hal_pcd.c **** 
  88:Drivers/STM32F0xx_HAL_Driver/Src/stm32f0xx_hal_pcd.c **** /* Private typedef -----------------------------------------------------------*/
ARM GAS  /tmp/ccHm7VQo.s 			page 3


  89:Drivers/STM32F0xx_HAL_Driver/Src/stm32f0xx_hal_pcd.c **** /* Private define ------------------------------------------------------------*/
  90:Drivers/STM32F0xx_HAL_Driver/Src/stm32f0xx_hal_pcd.c **** 
  91:Drivers/STM32F0xx_HAL_Driver/Src/stm32f0xx_hal_pcd.c **** /** @defgroup PCD_Private_Define PCD Private Define
  92:Drivers/STM32F0xx_HAL_Driver/Src/stm32f0xx_hal_pcd.c ****   * @{
  93:Drivers/STM32F0xx_HAL_Driver/Src/stm32f0xx_hal_pcd.c ****   */
  94:Drivers/STM32F0xx_HAL_Driver/Src/stm32f0xx_hal_pcd.c **** #define BTABLE_ADDRESS                  (0x000)  
  95:Drivers/STM32F0xx_HAL_Driver/Src/stm32f0xx_hal_pcd.c **** /**
  96:Drivers/STM32F0xx_HAL_Driver/Src/stm32f0xx_hal_pcd.c ****   * @}
  97:Drivers/STM32F0xx_HAL_Driver/Src/stm32f0xx_hal_pcd.c ****   */ 
  98:Drivers/STM32F0xx_HAL_Driver/Src/stm32f0xx_hal_pcd.c ****   
  99:Drivers/STM32F0xx_HAL_Driver/Src/stm32f0xx_hal_pcd.c **** /* Private macro -------------------------------------------------------------*/
 100:Drivers/STM32F0xx_HAL_Driver/Src/stm32f0xx_hal_pcd.c **** /* Private variables ---------------------------------------------------------*/
 101:Drivers/STM32F0xx_HAL_Driver/Src/stm32f0xx_hal_pcd.c **** /* Private function prototypes -----------------------------------------------*/
 102:Drivers/STM32F0xx_HAL_Driver/Src/stm32f0xx_hal_pcd.c **** /** @defgroup PCD_Private_Functions PCD Private Functions
 103:Drivers/STM32F0xx_HAL_Driver/Src/stm32f0xx_hal_pcd.c ****   * @{
 104:Drivers/STM32F0xx_HAL_Driver/Src/stm32f0xx_hal_pcd.c ****   */
 105:Drivers/STM32F0xx_HAL_Driver/Src/stm32f0xx_hal_pcd.c **** static HAL_StatusTypeDef PCD_EP_ISR_Handler(PCD_HandleTypeDef *hpcd);
 106:Drivers/STM32F0xx_HAL_Driver/Src/stm32f0xx_hal_pcd.c **** void PCD_WritePMA(USB_TypeDef  *USBx, uint8_t *pbUsrBuf, uint16_t wPMABufAddr, uint16_t wNBytes);
 107:Drivers/STM32F0xx_HAL_Driver/Src/stm32f0xx_hal_pcd.c **** void PCD_ReadPMA(USB_TypeDef  *USBx, uint8_t *pbUsrBuf, uint16_t wPMABufAddr, uint16_t wNBytes);
 108:Drivers/STM32F0xx_HAL_Driver/Src/stm32f0xx_hal_pcd.c **** /**
 109:Drivers/STM32F0xx_HAL_Driver/Src/stm32f0xx_hal_pcd.c ****   * @}
 110:Drivers/STM32F0xx_HAL_Driver/Src/stm32f0xx_hal_pcd.c ****   */ 
 111:Drivers/STM32F0xx_HAL_Driver/Src/stm32f0xx_hal_pcd.c **** 
 112:Drivers/STM32F0xx_HAL_Driver/Src/stm32f0xx_hal_pcd.c **** /* Exported functions --------------------------------------------------------*/
 113:Drivers/STM32F0xx_HAL_Driver/Src/stm32f0xx_hal_pcd.c **** /** @defgroup PCD_Exported_Functions PCD Exported Functions
 114:Drivers/STM32F0xx_HAL_Driver/Src/stm32f0xx_hal_pcd.c ****   * @{
 115:Drivers/STM32F0xx_HAL_Driver/Src/stm32f0xx_hal_pcd.c ****   */
 116:Drivers/STM32F0xx_HAL_Driver/Src/stm32f0xx_hal_pcd.c **** 
 117:Drivers/STM32F0xx_HAL_Driver/Src/stm32f0xx_hal_pcd.c **** /** @defgroup PCD_Exported_Functions_Group1 Initialization and de-initialization functions 
 118:Drivers/STM32F0xx_HAL_Driver/Src/stm32f0xx_hal_pcd.c ****  *  @brief    Initialization and Configuration functions 
 119:Drivers/STM32F0xx_HAL_Driver/Src/stm32f0xx_hal_pcd.c ****  *
 120:Drivers/STM32F0xx_HAL_Driver/Src/stm32f0xx_hal_pcd.c **** @verbatim
 121:Drivers/STM32F0xx_HAL_Driver/Src/stm32f0xx_hal_pcd.c ****  ===============================================================================
 122:Drivers/STM32F0xx_HAL_Driver/Src/stm32f0xx_hal_pcd.c ****             ##### Initialization and de-initialization functions #####
 123:Drivers/STM32F0xx_HAL_Driver/Src/stm32f0xx_hal_pcd.c ****  ===============================================================================
 124:Drivers/STM32F0xx_HAL_Driver/Src/stm32f0xx_hal_pcd.c ****     [..]  This section provides functions allowing to:
 125:Drivers/STM32F0xx_HAL_Driver/Src/stm32f0xx_hal_pcd.c ****  
 126:Drivers/STM32F0xx_HAL_Driver/Src/stm32f0xx_hal_pcd.c **** @endverbatim
 127:Drivers/STM32F0xx_HAL_Driver/Src/stm32f0xx_hal_pcd.c ****   * @{
 128:Drivers/STM32F0xx_HAL_Driver/Src/stm32f0xx_hal_pcd.c ****   */
 129:Drivers/STM32F0xx_HAL_Driver/Src/stm32f0xx_hal_pcd.c **** 
 130:Drivers/STM32F0xx_HAL_Driver/Src/stm32f0xx_hal_pcd.c **** /**
 131:Drivers/STM32F0xx_HAL_Driver/Src/stm32f0xx_hal_pcd.c ****   * @brief  Initializes the PCD according to the specified
 132:Drivers/STM32F0xx_HAL_Driver/Src/stm32f0xx_hal_pcd.c ****   *         parameters in the PCD_InitTypeDef and create the associated handle.
 133:Drivers/STM32F0xx_HAL_Driver/Src/stm32f0xx_hal_pcd.c ****   * @param  hpcd PCD handle
 134:Drivers/STM32F0xx_HAL_Driver/Src/stm32f0xx_hal_pcd.c ****   * @retval HAL status
 135:Drivers/STM32F0xx_HAL_Driver/Src/stm32f0xx_hal_pcd.c ****   */
 136:Drivers/STM32F0xx_HAL_Driver/Src/stm32f0xx_hal_pcd.c **** HAL_StatusTypeDef HAL_PCD_Init(PCD_HandleTypeDef *hpcd)
 137:Drivers/STM32F0xx_HAL_Driver/Src/stm32f0xx_hal_pcd.c **** { 
 138:Drivers/STM32F0xx_HAL_Driver/Src/stm32f0xx_hal_pcd.c ****   uint32_t i = 0U;
 139:Drivers/STM32F0xx_HAL_Driver/Src/stm32f0xx_hal_pcd.c **** 
 140:Drivers/STM32F0xx_HAL_Driver/Src/stm32f0xx_hal_pcd.c ****   uint32_t wInterrupt_Mask = 0U;
 141:Drivers/STM32F0xx_HAL_Driver/Src/stm32f0xx_hal_pcd.c ****   
 142:Drivers/STM32F0xx_HAL_Driver/Src/stm32f0xx_hal_pcd.c ****   /* Check the PCD handle allocation */
 143:Drivers/STM32F0xx_HAL_Driver/Src/stm32f0xx_hal_pcd.c ****   if(hpcd == NULL)
 144:Drivers/STM32F0xx_HAL_Driver/Src/stm32f0xx_hal_pcd.c ****   {
 145:Drivers/STM32F0xx_HAL_Driver/Src/stm32f0xx_hal_pcd.c ****     return HAL_ERROR;
ARM GAS  /tmp/ccHm7VQo.s 			page 4


 146:Drivers/STM32F0xx_HAL_Driver/Src/stm32f0xx_hal_pcd.c ****   }
 147:Drivers/STM32F0xx_HAL_Driver/Src/stm32f0xx_hal_pcd.c ****   
 148:Drivers/STM32F0xx_HAL_Driver/Src/stm32f0xx_hal_pcd.c ****   /* Check the parameters */
 149:Drivers/STM32F0xx_HAL_Driver/Src/stm32f0xx_hal_pcd.c ****   assert_param(IS_PCD_ALL_INSTANCE(hpcd->Instance));
 150:Drivers/STM32F0xx_HAL_Driver/Src/stm32f0xx_hal_pcd.c **** 
 151:Drivers/STM32F0xx_HAL_Driver/Src/stm32f0xx_hal_pcd.c ****   if(hpcd->State == HAL_PCD_STATE_RESET)
 152:Drivers/STM32F0xx_HAL_Driver/Src/stm32f0xx_hal_pcd.c ****   {  
 153:Drivers/STM32F0xx_HAL_Driver/Src/stm32f0xx_hal_pcd.c ****     /* Allocate lock resource and initialize it */
 154:Drivers/STM32F0xx_HAL_Driver/Src/stm32f0xx_hal_pcd.c ****     hpcd->Lock = HAL_UNLOCKED;
 155:Drivers/STM32F0xx_HAL_Driver/Src/stm32f0xx_hal_pcd.c ****   
 156:Drivers/STM32F0xx_HAL_Driver/Src/stm32f0xx_hal_pcd.c ****     /* Init the low level hardware : GPIO, CLOCK, NVIC... */
 157:Drivers/STM32F0xx_HAL_Driver/Src/stm32f0xx_hal_pcd.c ****     HAL_PCD_MspInit(hpcd);
 158:Drivers/STM32F0xx_HAL_Driver/Src/stm32f0xx_hal_pcd.c ****   }
 159:Drivers/STM32F0xx_HAL_Driver/Src/stm32f0xx_hal_pcd.c **** 
 160:Drivers/STM32F0xx_HAL_Driver/Src/stm32f0xx_hal_pcd.c ****   hpcd->State = HAL_PCD_STATE_BUSY;
 161:Drivers/STM32F0xx_HAL_Driver/Src/stm32f0xx_hal_pcd.c ****  
 162:Drivers/STM32F0xx_HAL_Driver/Src/stm32f0xx_hal_pcd.c ****  /* Init endpoints structures */
 163:Drivers/STM32F0xx_HAL_Driver/Src/stm32f0xx_hal_pcd.c ****  for (i = 0U; i < hpcd->Init.dev_endpoints ; i++)
 164:Drivers/STM32F0xx_HAL_Driver/Src/stm32f0xx_hal_pcd.c ****  {
 165:Drivers/STM32F0xx_HAL_Driver/Src/stm32f0xx_hal_pcd.c ****    /* Init ep structure */
 166:Drivers/STM32F0xx_HAL_Driver/Src/stm32f0xx_hal_pcd.c ****    hpcd->IN_ep[i].is_in = 1U;
 167:Drivers/STM32F0xx_HAL_Driver/Src/stm32f0xx_hal_pcd.c ****    hpcd->IN_ep[i].num = i;
 168:Drivers/STM32F0xx_HAL_Driver/Src/stm32f0xx_hal_pcd.c ****    /* Control until ep is actvated */
 169:Drivers/STM32F0xx_HAL_Driver/Src/stm32f0xx_hal_pcd.c ****    hpcd->IN_ep[i].type = PCD_EP_TYPE_CTRL;
 170:Drivers/STM32F0xx_HAL_Driver/Src/stm32f0xx_hal_pcd.c ****    hpcd->IN_ep[i].maxpacket =  0U;
 171:Drivers/STM32F0xx_HAL_Driver/Src/stm32f0xx_hal_pcd.c ****    hpcd->IN_ep[i].xfer_buff = 0U;
 172:Drivers/STM32F0xx_HAL_Driver/Src/stm32f0xx_hal_pcd.c ****    hpcd->IN_ep[i].xfer_len = 0U;
 173:Drivers/STM32F0xx_HAL_Driver/Src/stm32f0xx_hal_pcd.c ****  }
 174:Drivers/STM32F0xx_HAL_Driver/Src/stm32f0xx_hal_pcd.c ****  
 175:Drivers/STM32F0xx_HAL_Driver/Src/stm32f0xx_hal_pcd.c ****  for (i = 0U; i < hpcd->Init.dev_endpoints ; i++)
 176:Drivers/STM32F0xx_HAL_Driver/Src/stm32f0xx_hal_pcd.c ****  {
 177:Drivers/STM32F0xx_HAL_Driver/Src/stm32f0xx_hal_pcd.c ****    hpcd->OUT_ep[i].is_in = 0U;
 178:Drivers/STM32F0xx_HAL_Driver/Src/stm32f0xx_hal_pcd.c ****    hpcd->OUT_ep[i].num = i;
 179:Drivers/STM32F0xx_HAL_Driver/Src/stm32f0xx_hal_pcd.c ****    /* Control until ep is activated */
 180:Drivers/STM32F0xx_HAL_Driver/Src/stm32f0xx_hal_pcd.c ****    hpcd->OUT_ep[i].type = PCD_EP_TYPE_CTRL;
 181:Drivers/STM32F0xx_HAL_Driver/Src/stm32f0xx_hal_pcd.c ****    hpcd->OUT_ep[i].maxpacket = 0U;
 182:Drivers/STM32F0xx_HAL_Driver/Src/stm32f0xx_hal_pcd.c ****    hpcd->OUT_ep[i].xfer_buff = 0U;
 183:Drivers/STM32F0xx_HAL_Driver/Src/stm32f0xx_hal_pcd.c ****    hpcd->OUT_ep[i].xfer_len = 0U;
 184:Drivers/STM32F0xx_HAL_Driver/Src/stm32f0xx_hal_pcd.c ****  }
 185:Drivers/STM32F0xx_HAL_Driver/Src/stm32f0xx_hal_pcd.c ****   
 186:Drivers/STM32F0xx_HAL_Driver/Src/stm32f0xx_hal_pcd.c ****  /* Init Device */
 187:Drivers/STM32F0xx_HAL_Driver/Src/stm32f0xx_hal_pcd.c ****  /*CNTR_FRES = 1*/
 188:Drivers/STM32F0xx_HAL_Driver/Src/stm32f0xx_hal_pcd.c ****  hpcd->Instance->CNTR = USB_CNTR_FRES;
 189:Drivers/STM32F0xx_HAL_Driver/Src/stm32f0xx_hal_pcd.c ****  
 190:Drivers/STM32F0xx_HAL_Driver/Src/stm32f0xx_hal_pcd.c ****  /*CNTR_FRES = 0*/
 191:Drivers/STM32F0xx_HAL_Driver/Src/stm32f0xx_hal_pcd.c ****  hpcd->Instance->CNTR = 0;
 192:Drivers/STM32F0xx_HAL_Driver/Src/stm32f0xx_hal_pcd.c ****  
 193:Drivers/STM32F0xx_HAL_Driver/Src/stm32f0xx_hal_pcd.c ****  /*Clear pending interrupts*/
 194:Drivers/STM32F0xx_HAL_Driver/Src/stm32f0xx_hal_pcd.c ****  hpcd->Instance->ISTR = 0;
 195:Drivers/STM32F0xx_HAL_Driver/Src/stm32f0xx_hal_pcd.c ****  
 196:Drivers/STM32F0xx_HAL_Driver/Src/stm32f0xx_hal_pcd.c ****   /*Set Btable Adress*/
 197:Drivers/STM32F0xx_HAL_Driver/Src/stm32f0xx_hal_pcd.c ****  hpcd->Instance->BTABLE = BTABLE_ADDRESS;
 198:Drivers/STM32F0xx_HAL_Driver/Src/stm32f0xx_hal_pcd.c ****   
 199:Drivers/STM32F0xx_HAL_Driver/Src/stm32f0xx_hal_pcd.c ****   /*set wInterrupt_Mask global variable*/
 200:Drivers/STM32F0xx_HAL_Driver/Src/stm32f0xx_hal_pcd.c ****  wInterrupt_Mask = USB_CNTR_CTRM  | USB_CNTR_WKUPM | USB_CNTR_SUSPM | USB_CNTR_ERRM \
 201:Drivers/STM32F0xx_HAL_Driver/Src/stm32f0xx_hal_pcd.c ****    | USB_CNTR_SOFM | USB_CNTR_ESOFM | USB_CNTR_RESETM;
 202:Drivers/STM32F0xx_HAL_Driver/Src/stm32f0xx_hal_pcd.c ****   
ARM GAS  /tmp/ccHm7VQo.s 			page 5


 203:Drivers/STM32F0xx_HAL_Driver/Src/stm32f0xx_hal_pcd.c ****   /*Set interrupt mask*/
 204:Drivers/STM32F0xx_HAL_Driver/Src/stm32f0xx_hal_pcd.c ****   hpcd->Instance->CNTR = wInterrupt_Mask;
 205:Drivers/STM32F0xx_HAL_Driver/Src/stm32f0xx_hal_pcd.c ****   
 206:Drivers/STM32F0xx_HAL_Driver/Src/stm32f0xx_hal_pcd.c ****   hpcd->USB_Address = 0U;
 207:Drivers/STM32F0xx_HAL_Driver/Src/stm32f0xx_hal_pcd.c ****   hpcd->State= HAL_PCD_STATE_READY;
 208:Drivers/STM32F0xx_HAL_Driver/Src/stm32f0xx_hal_pcd.c **** 
 209:Drivers/STM32F0xx_HAL_Driver/Src/stm32f0xx_hal_pcd.c ****  return HAL_OK;
 210:Drivers/STM32F0xx_HAL_Driver/Src/stm32f0xx_hal_pcd.c **** }
 211:Drivers/STM32F0xx_HAL_Driver/Src/stm32f0xx_hal_pcd.c **** 
 212:Drivers/STM32F0xx_HAL_Driver/Src/stm32f0xx_hal_pcd.c **** /**
 213:Drivers/STM32F0xx_HAL_Driver/Src/stm32f0xx_hal_pcd.c ****   * @brief  DeInitializes the PCD peripheral 
 214:Drivers/STM32F0xx_HAL_Driver/Src/stm32f0xx_hal_pcd.c ****   * @param  hpcd PCD handle
 215:Drivers/STM32F0xx_HAL_Driver/Src/stm32f0xx_hal_pcd.c ****   * @retval HAL status
 216:Drivers/STM32F0xx_HAL_Driver/Src/stm32f0xx_hal_pcd.c ****   */
 217:Drivers/STM32F0xx_HAL_Driver/Src/stm32f0xx_hal_pcd.c **** HAL_StatusTypeDef HAL_PCD_DeInit(PCD_HandleTypeDef *hpcd)
 218:Drivers/STM32F0xx_HAL_Driver/Src/stm32f0xx_hal_pcd.c **** {
 219:Drivers/STM32F0xx_HAL_Driver/Src/stm32f0xx_hal_pcd.c ****   /* Check the PCD handle allocation */
 220:Drivers/STM32F0xx_HAL_Driver/Src/stm32f0xx_hal_pcd.c ****   if(hpcd == NULL)
 221:Drivers/STM32F0xx_HAL_Driver/Src/stm32f0xx_hal_pcd.c ****   {
 222:Drivers/STM32F0xx_HAL_Driver/Src/stm32f0xx_hal_pcd.c ****     return HAL_ERROR;
 223:Drivers/STM32F0xx_HAL_Driver/Src/stm32f0xx_hal_pcd.c ****   }
 224:Drivers/STM32F0xx_HAL_Driver/Src/stm32f0xx_hal_pcd.c **** 
 225:Drivers/STM32F0xx_HAL_Driver/Src/stm32f0xx_hal_pcd.c ****   hpcd->State = HAL_PCD_STATE_BUSY;
 226:Drivers/STM32F0xx_HAL_Driver/Src/stm32f0xx_hal_pcd.c ****   
 227:Drivers/STM32F0xx_HAL_Driver/Src/stm32f0xx_hal_pcd.c ****   /* Stop Device */
 228:Drivers/STM32F0xx_HAL_Driver/Src/stm32f0xx_hal_pcd.c ****   HAL_PCD_Stop(hpcd);
 229:Drivers/STM32F0xx_HAL_Driver/Src/stm32f0xx_hal_pcd.c ****     
 230:Drivers/STM32F0xx_HAL_Driver/Src/stm32f0xx_hal_pcd.c ****   /* DeInit the low level hardware */
 231:Drivers/STM32F0xx_HAL_Driver/Src/stm32f0xx_hal_pcd.c ****   HAL_PCD_MspDeInit(hpcd);
 232:Drivers/STM32F0xx_HAL_Driver/Src/stm32f0xx_hal_pcd.c ****   
 233:Drivers/STM32F0xx_HAL_Driver/Src/stm32f0xx_hal_pcd.c ****   hpcd->State = HAL_PCD_STATE_RESET; 
 234:Drivers/STM32F0xx_HAL_Driver/Src/stm32f0xx_hal_pcd.c ****   
 235:Drivers/STM32F0xx_HAL_Driver/Src/stm32f0xx_hal_pcd.c ****   return HAL_OK;
 236:Drivers/STM32F0xx_HAL_Driver/Src/stm32f0xx_hal_pcd.c **** }
 237:Drivers/STM32F0xx_HAL_Driver/Src/stm32f0xx_hal_pcd.c **** 
 238:Drivers/STM32F0xx_HAL_Driver/Src/stm32f0xx_hal_pcd.c **** /**
 239:Drivers/STM32F0xx_HAL_Driver/Src/stm32f0xx_hal_pcd.c ****   * @brief  Initializes the PCD MSP.
 240:Drivers/STM32F0xx_HAL_Driver/Src/stm32f0xx_hal_pcd.c ****   * @param  hpcd PCD handle
 241:Drivers/STM32F0xx_HAL_Driver/Src/stm32f0xx_hal_pcd.c ****   * @retval None
 242:Drivers/STM32F0xx_HAL_Driver/Src/stm32f0xx_hal_pcd.c ****   */
 243:Drivers/STM32F0xx_HAL_Driver/Src/stm32f0xx_hal_pcd.c **** __weak void HAL_PCD_MspInit(PCD_HandleTypeDef *hpcd)
 244:Drivers/STM32F0xx_HAL_Driver/Src/stm32f0xx_hal_pcd.c **** {
  28              		.loc 1 244 1 view -0
  29              		.cfi_startproc
  30              		@ args = 0, pretend = 0, frame = 0
  31              		@ frame_needed = 0, uses_anonymous_args = 0
  32              		@ link register save eliminated.
 245:Drivers/STM32F0xx_HAL_Driver/Src/stm32f0xx_hal_pcd.c ****   /* Prevent unused argument(s) compilation warning */
 246:Drivers/STM32F0xx_HAL_Driver/Src/stm32f0xx_hal_pcd.c ****   UNUSED(hpcd);
  33              		.loc 1 246 3 view .LVU1
 247:Drivers/STM32F0xx_HAL_Driver/Src/stm32f0xx_hal_pcd.c **** 
 248:Drivers/STM32F0xx_HAL_Driver/Src/stm32f0xx_hal_pcd.c ****   /* NOTE : This function Should not be modified, when the callback is needed,
 249:Drivers/STM32F0xx_HAL_Driver/Src/stm32f0xx_hal_pcd.c ****             the HAL_PCD_MspInit could be implemented in the user file
 250:Drivers/STM32F0xx_HAL_Driver/Src/stm32f0xx_hal_pcd.c ****    */
 251:Drivers/STM32F0xx_HAL_Driver/Src/stm32f0xx_hal_pcd.c **** }
  34              		.loc 1 251 1 is_stmt 0 view .LVU2
  35              		@ sp needed
ARM GAS  /tmp/ccHm7VQo.s 			page 6


  36 0000 7047     		bx	lr
  37              		.cfi_endproc
  38              	.LFE39:
  40              		.section	.text.HAL_PCD_Init,"ax",%progbits
  41              		.align	1
  42              		.global	HAL_PCD_Init
  43              		.syntax unified
  44              		.code	16
  45              		.thumb_func
  46              		.fpu softvfp
  48              	HAL_PCD_Init:
  49              	.LVL1:
  50              	.LFB37:
 137:Drivers/STM32F0xx_HAL_Driver/Src/stm32f0xx_hal_pcd.c ****   uint32_t i = 0U;
  51              		.loc 1 137 1 is_stmt 1 view -0
  52              		.cfi_startproc
  53              		@ args = 0, pretend = 0, frame = 0
  54              		@ frame_needed = 0, uses_anonymous_args = 0
 137:Drivers/STM32F0xx_HAL_Driver/Src/stm32f0xx_hal_pcd.c ****   uint32_t i = 0U;
  55              		.loc 1 137 1 is_stmt 0 view .LVU4
  56 0000 70B5     		push	{r4, r5, r6, lr}
  57              	.LCFI0:
  58              		.cfi_def_cfa_offset 16
  59              		.cfi_offset 4, -16
  60              		.cfi_offset 5, -12
  61              		.cfi_offset 6, -8
  62              		.cfi_offset 14, -4
  63 0002 041E     		subs	r4, r0, #0
 138:Drivers/STM32F0xx_HAL_Driver/Src/stm32f0xx_hal_pcd.c **** 
  64              		.loc 1 138 3 is_stmt 1 view .LVU5
  65              	.LVL2:
 140:Drivers/STM32F0xx_HAL_Driver/Src/stm32f0xx_hal_pcd.c ****   
  66              		.loc 1 140 3 view .LVU6
 143:Drivers/STM32F0xx_HAL_Driver/Src/stm32f0xx_hal_pcd.c ****   {
  67              		.loc 1 143 3 view .LVU7
 143:Drivers/STM32F0xx_HAL_Driver/Src/stm32f0xx_hal_pcd.c ****   {
  68              		.loc 1 143 5 is_stmt 0 view .LVU8
  69 0004 58D0     		beq	.L9
 149:Drivers/STM32F0xx_HAL_Driver/Src/stm32f0xx_hal_pcd.c **** 
  70              		.loc 1 149 3 is_stmt 1 view .LVU9
 151:Drivers/STM32F0xx_HAL_Driver/Src/stm32f0xx_hal_pcd.c ****   {  
  71              		.loc 1 151 3 view .LVU10
 151:Drivers/STM32F0xx_HAL_Driver/Src/stm32f0xx_hal_pcd.c ****   {  
  72              		.loc 1 151 10 is_stmt 0 view .LVU11
  73 0006 EA23     		movs	r3, #234
  74 0008 FF33     		adds	r3, r3, #255
  75 000a C35C     		ldrb	r3, [r0, r3]
 151:Drivers/STM32F0xx_HAL_Driver/Src/stm32f0xx_hal_pcd.c ****   {  
  76              		.loc 1 151 5 view .LVU12
  77 000c 002B     		cmp	r3, #0
  78 000e 1AD0     		beq	.L10
  79              	.LVL3:
  80              	.L4:
 160:Drivers/STM32F0xx_HAL_Driver/Src/stm32f0xx_hal_pcd.c ****  
  81              		.loc 1 160 3 is_stmt 1 view .LVU13
 160:Drivers/STM32F0xx_HAL_Driver/Src/stm32f0xx_hal_pcd.c ****  
  82              		.loc 1 160 15 is_stmt 0 view .LVU14
ARM GAS  /tmp/ccHm7VQo.s 			page 7


  83 0010 EA23     		movs	r3, #234
  84 0012 FF33     		adds	r3, r3, #255
  85 0014 0322     		movs	r2, #3
  86 0016 E254     		strb	r2, [r4, r3]
 163:Drivers/STM32F0xx_HAL_Driver/Src/stm32f0xx_hal_pcd.c ****  {
  87              		.loc 1 163 2 is_stmt 1 view .LVU15
 163:Drivers/STM32F0xx_HAL_Driver/Src/stm32f0xx_hal_pcd.c ****  {
  88              		.loc 1 163 9 is_stmt 0 view .LVU16
  89 0018 0022     		movs	r2, #0
  90              	.LVL4:
  91              	.L5:
 163:Drivers/STM32F0xx_HAL_Driver/Src/stm32f0xx_hal_pcd.c ****  {
  92              		.loc 1 163 29 discriminator 1 view .LVU17
  93 001a 6068     		ldr	r0, [r4, #4]
 163:Drivers/STM32F0xx_HAL_Driver/Src/stm32f0xx_hal_pcd.c ****  {
  94              		.loc 1 163 2 discriminator 1 view .LVU18
  95 001c 9042     		cmp	r0, r2
  96 001e 19D9     		bls	.L11
 166:Drivers/STM32F0xx_HAL_Driver/Src/stm32f0xx_hal_pcd.c ****    hpcd->IN_ep[i].num = i;
  97              		.loc 1 166 4 is_stmt 1 discriminator 3 view .LVU19
 166:Drivers/STM32F0xx_HAL_Driver/Src/stm32f0xx_hal_pcd.c ****    hpcd->IN_ep[i].num = i;
  98              		.loc 1 166 25 is_stmt 0 discriminator 3 view .LVU20
  99 0020 D300     		lsls	r3, r2, #3
 100 0022 9B1A     		subs	r3, r3, r2
 101 0024 9B00     		lsls	r3, r3, #2
 102 0026 E318     		adds	r3, r4, r3
 103 0028 1900     		movs	r1, r3
 104 002a 2931     		adds	r1, r1, #41
 105 002c 0120     		movs	r0, #1
 106 002e 0870     		strb	r0, [r1]
 167:Drivers/STM32F0xx_HAL_Driver/Src/stm32f0xx_hal_pcd.c ****    /* Control until ep is actvated */
 107              		.loc 1 167 4 is_stmt 1 discriminator 3 view .LVU21
 167:Drivers/STM32F0xx_HAL_Driver/Src/stm32f0xx_hal_pcd.c ****    /* Control until ep is actvated */
 108              		.loc 1 167 23 is_stmt 0 discriminator 3 view .LVU22
 109 0030 0139     		subs	r1, r1, #1
 110 0032 0A70     		strb	r2, [r1]
 169:Drivers/STM32F0xx_HAL_Driver/Src/stm32f0xx_hal_pcd.c ****    hpcd->IN_ep[i].maxpacket =  0U;
 111              		.loc 1 169 4 is_stmt 1 discriminator 3 view .LVU23
 169:Drivers/STM32F0xx_HAL_Driver/Src/stm32f0xx_hal_pcd.c ****    hpcd->IN_ep[i].maxpacket =  0U;
 112              		.loc 1 169 24 is_stmt 0 discriminator 3 view .LVU24
 113 0034 1800     		movs	r0, r3
 114 0036 2B30     		adds	r0, r0, #43
 115 0038 0021     		movs	r1, #0
 116 003a 0170     		strb	r1, [r0]
 170:Drivers/STM32F0xx_HAL_Driver/Src/stm32f0xx_hal_pcd.c ****    hpcd->IN_ep[i].xfer_buff = 0U;
 117              		.loc 1 170 4 is_stmt 1 discriminator 3 view .LVU25
 170:Drivers/STM32F0xx_HAL_Driver/Src/stm32f0xx_hal_pcd.c ****    hpcd->IN_ep[i].xfer_buff = 0U;
 118              		.loc 1 170 29 is_stmt 0 discriminator 3 view .LVU26
 119 003c 5963     		str	r1, [r3, #52]
 171:Drivers/STM32F0xx_HAL_Driver/Src/stm32f0xx_hal_pcd.c ****    hpcd->IN_ep[i].xfer_len = 0U;
 120              		.loc 1 171 4 is_stmt 1 discriminator 3 view .LVU27
 171:Drivers/STM32F0xx_HAL_Driver/Src/stm32f0xx_hal_pcd.c ****    hpcd->IN_ep[i].xfer_len = 0U;
 121              		.loc 1 171 29 is_stmt 0 discriminator 3 view .LVU28
 122 003e 9963     		str	r1, [r3, #56]
 172:Drivers/STM32F0xx_HAL_Driver/Src/stm32f0xx_hal_pcd.c ****  }
 123              		.loc 1 172 4 is_stmt 1 discriminator 3 view .LVU29
 172:Drivers/STM32F0xx_HAL_Driver/Src/stm32f0xx_hal_pcd.c ****  }
ARM GAS  /tmp/ccHm7VQo.s 			page 8


 124              		.loc 1 172 28 is_stmt 0 discriminator 3 view .LVU30
 125 0040 D963     		str	r1, [r3, #60]
 163:Drivers/STM32F0xx_HAL_Driver/Src/stm32f0xx_hal_pcd.c ****  {
 126              		.loc 1 163 47 discriminator 3 view .LVU31
 127 0042 0132     		adds	r2, r2, #1
 128              	.LVL5:
 163:Drivers/STM32F0xx_HAL_Driver/Src/stm32f0xx_hal_pcd.c ****  {
 129              		.loc 1 163 47 discriminator 3 view .LVU32
 130 0044 E9E7     		b	.L5
 131              	.LVL6:
 132              	.L10:
 154:Drivers/STM32F0xx_HAL_Driver/Src/stm32f0xx_hal_pcd.c ****   
 133              		.loc 1 154 5 is_stmt 1 view .LVU33
 154:Drivers/STM32F0xx_HAL_Driver/Src/stm32f0xx_hal_pcd.c ****   
 134              		.loc 1 154 16 is_stmt 0 view .LVU34
 135 0046 E933     		adds	r3, r3, #233
 136 0048 FF33     		adds	r3, r3, #255
 137 004a 0022     		movs	r2, #0
 138 004c C254     		strb	r2, [r0, r3]
 157:Drivers/STM32F0xx_HAL_Driver/Src/stm32f0xx_hal_pcd.c ****   }
 139              		.loc 1 157 5 is_stmt 1 view .LVU35
 140 004e FFF7FEFF 		bl	HAL_PCD_MspInit
 141              	.LVL7:
 157:Drivers/STM32F0xx_HAL_Driver/Src/stm32f0xx_hal_pcd.c ****   }
 142              		.loc 1 157 5 is_stmt 0 view .LVU36
 143 0052 DDE7     		b	.L4
 144              	.LVL8:
 145              	.L11:
 175:Drivers/STM32F0xx_HAL_Driver/Src/stm32f0xx_hal_pcd.c ****  {
 146              		.loc 1 175 9 view .LVU37
 147 0054 0022     		movs	r2, #0
 148              	.LVL9:
 175:Drivers/STM32F0xx_HAL_Driver/Src/stm32f0xx_hal_pcd.c ****  {
 149              		.loc 1 175 9 view .LVU38
 150 0056 14E0     		b	.L7
 151              	.LVL10:
 152              	.L8:
 177:Drivers/STM32F0xx_HAL_Driver/Src/stm32f0xx_hal_pcd.c ****    hpcd->OUT_ep[i].num = i;
 153              		.loc 1 177 4 is_stmt 1 discriminator 3 view .LVU39
 177:Drivers/STM32F0xx_HAL_Driver/Src/stm32f0xx_hal_pcd.c ****    hpcd->OUT_ep[i].num = i;
 154              		.loc 1 177 26 is_stmt 0 discriminator 3 view .LVU40
 155 0058 D300     		lsls	r3, r2, #3
 156 005a 9B1A     		subs	r3, r3, r2
 157 005c 9B00     		lsls	r3, r3, #2
 158 005e E318     		adds	r3, r4, r3
 159 0060 1D00     		movs	r5, r3
 160 0062 0A35     		adds	r5, r5, #10
 161 0064 FF35     		adds	r5, r5, #255
 162 0066 0021     		movs	r1, #0
 163 0068 2970     		strb	r1, [r5]
 178:Drivers/STM32F0xx_HAL_Driver/Src/stm32f0xx_hal_pcd.c ****    /* Control until ep is activated */
 164              		.loc 1 178 4 is_stmt 1 discriminator 3 view .LVU41
 178:Drivers/STM32F0xx_HAL_Driver/Src/stm32f0xx_hal_pcd.c ****    /* Control until ep is activated */
 165              		.loc 1 178 24 is_stmt 0 discriminator 3 view .LVU42
 166 006a 013D     		subs	r5, r5, #1
 167 006c 2A70     		strb	r2, [r5]
 180:Drivers/STM32F0xx_HAL_Driver/Src/stm32f0xx_hal_pcd.c ****    hpcd->OUT_ep[i].maxpacket = 0U;
ARM GAS  /tmp/ccHm7VQo.s 			page 9


 168              		.loc 1 180 4 is_stmt 1 discriminator 3 view .LVU43
 180:Drivers/STM32F0xx_HAL_Driver/Src/stm32f0xx_hal_pcd.c ****    hpcd->OUT_ep[i].maxpacket = 0U;
 169              		.loc 1 180 25 is_stmt 0 discriminator 3 view .LVU44
 170 006e 0335     		adds	r5, r5, #3
 171 0070 2970     		strb	r1, [r5]
 181:Drivers/STM32F0xx_HAL_Driver/Src/stm32f0xx_hal_pcd.c ****    hpcd->OUT_ep[i].xfer_buff = 0U;
 172              		.loc 1 181 4 is_stmt 1 discriminator 3 view .LVU45
 181:Drivers/STM32F0xx_HAL_Driver/Src/stm32f0xx_hal_pcd.c ****    hpcd->OUT_ep[i].xfer_buff = 0U;
 173              		.loc 1 181 30 is_stmt 0 discriminator 3 view .LVU46
 174 0072 0935     		adds	r5, r5, #9
 175 0074 2960     		str	r1, [r5]
 182:Drivers/STM32F0xx_HAL_Driver/Src/stm32f0xx_hal_pcd.c ****    hpcd->OUT_ep[i].xfer_len = 0U;
 176              		.loc 1 182 4 is_stmt 1 discriminator 3 view .LVU47
 182:Drivers/STM32F0xx_HAL_Driver/Src/stm32f0xx_hal_pcd.c ****    hpcd->OUT_ep[i].xfer_len = 0U;
 177              		.loc 1 182 30 is_stmt 0 discriminator 3 view .LVU48
 178 0076 0435     		adds	r5, r5, #4
 179 0078 2960     		str	r1, [r5]
 183:Drivers/STM32F0xx_HAL_Driver/Src/stm32f0xx_hal_pcd.c ****  }
 180              		.loc 1 183 4 is_stmt 1 discriminator 3 view .LVU49
 183:Drivers/STM32F0xx_HAL_Driver/Src/stm32f0xx_hal_pcd.c ****  }
 181              		.loc 1 183 29 is_stmt 0 discriminator 3 view .LVU50
 182 007a 1D33     		adds	r3, r3, #29
 183 007c FF33     		adds	r3, r3, #255
 184 007e 1960     		str	r1, [r3]
 175:Drivers/STM32F0xx_HAL_Driver/Src/stm32f0xx_hal_pcd.c ****  {
 185              		.loc 1 175 47 discriminator 3 view .LVU51
 186 0080 0132     		adds	r2, r2, #1
 187              	.LVL11:
 188              	.L7:
 175:Drivers/STM32F0xx_HAL_Driver/Src/stm32f0xx_hal_pcd.c ****  {
 189              		.loc 1 175 2 discriminator 1 view .LVU52
 190 0082 9042     		cmp	r0, r2
 191 0084 E8D8     		bhi	.L8
 188:Drivers/STM32F0xx_HAL_Driver/Src/stm32f0xx_hal_pcd.c ****  
 192              		.loc 1 188 2 is_stmt 1 view .LVU53
 188:Drivers/STM32F0xx_HAL_Driver/Src/stm32f0xx_hal_pcd.c ****  
 193              		.loc 1 188 23 is_stmt 0 view .LVU54
 194 0086 4023     		movs	r3, #64
 195 0088 0122     		movs	r2, #1
 196              	.LVL12:
 188:Drivers/STM32F0xx_HAL_Driver/Src/stm32f0xx_hal_pcd.c ****  
 197              		.loc 1 188 23 view .LVU55
 198 008a 2168     		ldr	r1, [r4]
 199 008c CA52     		strh	r2, [r1, r3]
 191:Drivers/STM32F0xx_HAL_Driver/Src/stm32f0xx_hal_pcd.c ****  
 200              		.loc 1 191 2 is_stmt 1 view .LVU56
 191:Drivers/STM32F0xx_HAL_Driver/Src/stm32f0xx_hal_pcd.c ****  
 201              		.loc 1 191 23 is_stmt 0 view .LVU57
 202 008e 0022     		movs	r2, #0
 203 0090 2168     		ldr	r1, [r4]
 204 0092 CA52     		strh	r2, [r1, r3]
 194:Drivers/STM32F0xx_HAL_Driver/Src/stm32f0xx_hal_pcd.c ****  
 205              		.loc 1 194 2 is_stmt 1 view .LVU58
 194:Drivers/STM32F0xx_HAL_Driver/Src/stm32f0xx_hal_pcd.c ****  
 206              		.loc 1 194 23 is_stmt 0 view .LVU59
 207 0094 4421     		movs	r1, #68
 208 0096 2068     		ldr	r0, [r4]
ARM GAS  /tmp/ccHm7VQo.s 			page 10


 209 0098 4252     		strh	r2, [r0, r1]
 197:Drivers/STM32F0xx_HAL_Driver/Src/stm32f0xx_hal_pcd.c ****   
 210              		.loc 1 197 2 is_stmt 1 view .LVU60
 197:Drivers/STM32F0xx_HAL_Driver/Src/stm32f0xx_hal_pcd.c ****   
 211              		.loc 1 197 25 is_stmt 0 view .LVU61
 212 009a 0C31     		adds	r1, r1, #12
 213 009c 2068     		ldr	r0, [r4]
 214 009e 4252     		strh	r2, [r0, r1]
 200:Drivers/STM32F0xx_HAL_Driver/Src/stm32f0xx_hal_pcd.c ****    | USB_CNTR_SOFM | USB_CNTR_ESOFM | USB_CNTR_RESETM;
 215              		.loc 1 200 2 is_stmt 1 view .LVU62
 216              	.LVL13:
 204:Drivers/STM32F0xx_HAL_Driver/Src/stm32f0xx_hal_pcd.c ****   
 217              		.loc 1 204 3 view .LVU63
 204:Drivers/STM32F0xx_HAL_Driver/Src/stm32f0xx_hal_pcd.c ****   
 218              		.loc 1 204 24 is_stmt 0 view .LVU64
 219 00a0 064A     		ldr	r2, .L12
 220 00a2 2168     		ldr	r1, [r4]
 221 00a4 CA52     		strh	r2, [r1, r3]
 206:Drivers/STM32F0xx_HAL_Driver/Src/stm32f0xx_hal_pcd.c ****   hpcd->State= HAL_PCD_STATE_READY;
 222              		.loc 1 206 3 is_stmt 1 view .LVU65
 206:Drivers/STM32F0xx_HAL_Driver/Src/stm32f0xx_hal_pcd.c ****   hpcd->State= HAL_PCD_STATE_READY;
 223              		.loc 1 206 21 is_stmt 0 view .LVU66
 224 00a6 0022     		movs	r2, #0
 225 00a8 1C3B     		subs	r3, r3, #28
 226 00aa E254     		strb	r2, [r4, r3]
 207:Drivers/STM32F0xx_HAL_Driver/Src/stm32f0xx_hal_pcd.c **** 
 227              		.loc 1 207 3 is_stmt 1 view .LVU67
 207:Drivers/STM32F0xx_HAL_Driver/Src/stm32f0xx_hal_pcd.c **** 
 228              		.loc 1 207 14 is_stmt 0 view .LVU68
 229 00ac 0122     		movs	r2, #1
 230 00ae EA23     		movs	r3, #234
 231 00b0 FF33     		adds	r3, r3, #255
 232 00b2 E254     		strb	r2, [r4, r3]
 209:Drivers/STM32F0xx_HAL_Driver/Src/stm32f0xx_hal_pcd.c **** }
 233              		.loc 1 209 2 is_stmt 1 view .LVU69
 209:Drivers/STM32F0xx_HAL_Driver/Src/stm32f0xx_hal_pcd.c **** }
 234              		.loc 1 209 9 is_stmt 0 view .LVU70
 235 00b4 0020     		movs	r0, #0
 236              	.LVL14:
 237              	.L3:
 210:Drivers/STM32F0xx_HAL_Driver/Src/stm32f0xx_hal_pcd.c **** 
 238              		.loc 1 210 1 view .LVU71
 239              		@ sp needed
 240              	.LVL15:
 210:Drivers/STM32F0xx_HAL_Driver/Src/stm32f0xx_hal_pcd.c **** 
 241              		.loc 1 210 1 view .LVU72
 242 00b6 70BD     		pop	{r4, r5, r6, pc}
 243              	.LVL16:
 244              	.L9:
 145:Drivers/STM32F0xx_HAL_Driver/Src/stm32f0xx_hal_pcd.c ****   }
 245              		.loc 1 145 12 view .LVU73
 246 00b8 0120     		movs	r0, #1
 247              	.LVL17:
 145:Drivers/STM32F0xx_HAL_Driver/Src/stm32f0xx_hal_pcd.c ****   }
 248              		.loc 1 145 12 view .LVU74
 249 00ba FCE7     		b	.L3
 250              	.L13:
ARM GAS  /tmp/ccHm7VQo.s 			page 11


 251              		.align	2
 252              	.L12:
 253 00bc 00BFFFFF 		.word	-16640
 254              		.cfi_endproc
 255              	.LFE37:
 257              		.section	.text.HAL_PCD_MspDeInit,"ax",%progbits
 258              		.align	1
 259              		.weak	HAL_PCD_MspDeInit
 260              		.syntax unified
 261              		.code	16
 262              		.thumb_func
 263              		.fpu softvfp
 265              	HAL_PCD_MspDeInit:
 266              	.LVL18:
 267              	.LFB40:
 252:Drivers/STM32F0xx_HAL_Driver/Src/stm32f0xx_hal_pcd.c **** 
 253:Drivers/STM32F0xx_HAL_Driver/Src/stm32f0xx_hal_pcd.c **** /**
 254:Drivers/STM32F0xx_HAL_Driver/Src/stm32f0xx_hal_pcd.c ****   * @brief  DeInitializes PCD MSP.
 255:Drivers/STM32F0xx_HAL_Driver/Src/stm32f0xx_hal_pcd.c ****   * @param  hpcd PCD handle
 256:Drivers/STM32F0xx_HAL_Driver/Src/stm32f0xx_hal_pcd.c ****   * @retval None
 257:Drivers/STM32F0xx_HAL_Driver/Src/stm32f0xx_hal_pcd.c ****   */
 258:Drivers/STM32F0xx_HAL_Driver/Src/stm32f0xx_hal_pcd.c **** __weak void HAL_PCD_MspDeInit(PCD_HandleTypeDef *hpcd)
 259:Drivers/STM32F0xx_HAL_Driver/Src/stm32f0xx_hal_pcd.c **** {
 268              		.loc 1 259 1 is_stmt 1 view -0
 269              		.cfi_startproc
 270              		@ args = 0, pretend = 0, frame = 0
 271              		@ frame_needed = 0, uses_anonymous_args = 0
 272              		@ link register save eliminated.
 260:Drivers/STM32F0xx_HAL_Driver/Src/stm32f0xx_hal_pcd.c ****   /* Prevent unused argument(s) compilation warning */
 261:Drivers/STM32F0xx_HAL_Driver/Src/stm32f0xx_hal_pcd.c ****   UNUSED(hpcd);
 273              		.loc 1 261 3 view .LVU76
 262:Drivers/STM32F0xx_HAL_Driver/Src/stm32f0xx_hal_pcd.c **** 
 263:Drivers/STM32F0xx_HAL_Driver/Src/stm32f0xx_hal_pcd.c ****   /* NOTE : This function Should not be modified, when the callback is needed,
 264:Drivers/STM32F0xx_HAL_Driver/Src/stm32f0xx_hal_pcd.c ****             the HAL_PCD_MspDeInit could be implemented in the user file
 265:Drivers/STM32F0xx_HAL_Driver/Src/stm32f0xx_hal_pcd.c ****    */
 266:Drivers/STM32F0xx_HAL_Driver/Src/stm32f0xx_hal_pcd.c **** }
 274              		.loc 1 266 1 is_stmt 0 view .LVU77
 275              		@ sp needed
 276 0000 7047     		bx	lr
 277              		.cfi_endproc
 278              	.LFE40:
 280              		.section	.text.HAL_PCD_Start,"ax",%progbits
 281              		.align	1
 282              		.global	HAL_PCD_Start
 283              		.syntax unified
 284              		.code	16
 285              		.thumb_func
 286              		.fpu softvfp
 288              	HAL_PCD_Start:
 289              	.LVL19:
 290              	.LFB41:
 267:Drivers/STM32F0xx_HAL_Driver/Src/stm32f0xx_hal_pcd.c **** 
 268:Drivers/STM32F0xx_HAL_Driver/Src/stm32f0xx_hal_pcd.c **** /**
 269:Drivers/STM32F0xx_HAL_Driver/Src/stm32f0xx_hal_pcd.c ****   * @}
 270:Drivers/STM32F0xx_HAL_Driver/Src/stm32f0xx_hal_pcd.c ****   */
 271:Drivers/STM32F0xx_HAL_Driver/Src/stm32f0xx_hal_pcd.c **** 
 272:Drivers/STM32F0xx_HAL_Driver/Src/stm32f0xx_hal_pcd.c **** /** @defgroup PCD_Exported_Functions_Group2 IO operation functions 
ARM GAS  /tmp/ccHm7VQo.s 			page 12


 273:Drivers/STM32F0xx_HAL_Driver/Src/stm32f0xx_hal_pcd.c ****  *  @brief   Data transfers functions 
 274:Drivers/STM32F0xx_HAL_Driver/Src/stm32f0xx_hal_pcd.c ****  *
 275:Drivers/STM32F0xx_HAL_Driver/Src/stm32f0xx_hal_pcd.c **** @verbatim   
 276:Drivers/STM32F0xx_HAL_Driver/Src/stm32f0xx_hal_pcd.c ****  ===============================================================================
 277:Drivers/STM32F0xx_HAL_Driver/Src/stm32f0xx_hal_pcd.c ****                       ##### IO operation functions #####
 278:Drivers/STM32F0xx_HAL_Driver/Src/stm32f0xx_hal_pcd.c ****  ===============================================================================  
 279:Drivers/STM32F0xx_HAL_Driver/Src/stm32f0xx_hal_pcd.c ****     [..]
 280:Drivers/STM32F0xx_HAL_Driver/Src/stm32f0xx_hal_pcd.c ****     This subsection provides a set of functions allowing to manage the PCD data 
 281:Drivers/STM32F0xx_HAL_Driver/Src/stm32f0xx_hal_pcd.c ****     transfers.
 282:Drivers/STM32F0xx_HAL_Driver/Src/stm32f0xx_hal_pcd.c **** 
 283:Drivers/STM32F0xx_HAL_Driver/Src/stm32f0xx_hal_pcd.c **** @endverbatim
 284:Drivers/STM32F0xx_HAL_Driver/Src/stm32f0xx_hal_pcd.c ****   * @{
 285:Drivers/STM32F0xx_HAL_Driver/Src/stm32f0xx_hal_pcd.c ****   */
 286:Drivers/STM32F0xx_HAL_Driver/Src/stm32f0xx_hal_pcd.c ****   
 287:Drivers/STM32F0xx_HAL_Driver/Src/stm32f0xx_hal_pcd.c **** /**
 288:Drivers/STM32F0xx_HAL_Driver/Src/stm32f0xx_hal_pcd.c ****   * @brief  Start the USB device.
 289:Drivers/STM32F0xx_HAL_Driver/Src/stm32f0xx_hal_pcd.c ****   * @param  hpcd PCD handle
 290:Drivers/STM32F0xx_HAL_Driver/Src/stm32f0xx_hal_pcd.c ****   * @retval HAL status
 291:Drivers/STM32F0xx_HAL_Driver/Src/stm32f0xx_hal_pcd.c ****   */
 292:Drivers/STM32F0xx_HAL_Driver/Src/stm32f0xx_hal_pcd.c **** HAL_StatusTypeDef HAL_PCD_Start(PCD_HandleTypeDef *hpcd)
 293:Drivers/STM32F0xx_HAL_Driver/Src/stm32f0xx_hal_pcd.c **** { 
 291              		.loc 1 293 1 is_stmt 1 view -0
 292              		.cfi_startproc
 293              		@ args = 0, pretend = 0, frame = 0
 294              		@ frame_needed = 0, uses_anonymous_args = 0
 295              		@ link register save eliminated.
 294:Drivers/STM32F0xx_HAL_Driver/Src/stm32f0xx_hal_pcd.c ****   /* Enabling DP Pull-Down bit to Connect internal pull-up on USB DP line */
 295:Drivers/STM32F0xx_HAL_Driver/Src/stm32f0xx_hal_pcd.c ****   hpcd->Instance->BCDR |= USB_BCDR_DPPU;
 296              		.loc 1 295 3 view .LVU79
 297              		.loc 1 295 7 is_stmt 0 view .LVU80
 298 0000 0168     		ldr	r1, [r0]
 299              		.loc 1 295 24 view .LVU81
 300 0002 5822     		movs	r2, #88
 301 0004 8B5A     		ldrh	r3, [r1, r2]
 302 0006 0348     		ldr	r0, .L16
 303              	.LVL20:
 304              		.loc 1 295 24 view .LVU82
 305 0008 0343     		orrs	r3, r0
 306 000a 9BB2     		uxth	r3, r3
 307 000c 8B52     		strh	r3, [r1, r2]
 296:Drivers/STM32F0xx_HAL_Driver/Src/stm32f0xx_hal_pcd.c ****   
 297:Drivers/STM32F0xx_HAL_Driver/Src/stm32f0xx_hal_pcd.c ****   return HAL_OK;
 308              		.loc 1 297 3 is_stmt 1 view .LVU83
 298:Drivers/STM32F0xx_HAL_Driver/Src/stm32f0xx_hal_pcd.c **** }
 309              		.loc 1 298 1 is_stmt 0 view .LVU84
 310 000e 0020     		movs	r0, #0
 311              		@ sp needed
 312 0010 7047     		bx	lr
 313              	.L17:
 314 0012 C046     		.align	2
 315              	.L16:
 316 0014 0080FFFF 		.word	-32768
 317              		.cfi_endproc
 318              	.LFE41:
 320              		.section	.text.HAL_PCD_Stop,"ax",%progbits
 321              		.align	1
 322              		.global	HAL_PCD_Stop
ARM GAS  /tmp/ccHm7VQo.s 			page 13


 323              		.syntax unified
 324              		.code	16
 325              		.thumb_func
 326              		.fpu softvfp
 328              	HAL_PCD_Stop:
 329              	.LVL21:
 330              	.LFB42:
 299:Drivers/STM32F0xx_HAL_Driver/Src/stm32f0xx_hal_pcd.c **** 
 300:Drivers/STM32F0xx_HAL_Driver/Src/stm32f0xx_hal_pcd.c **** /**
 301:Drivers/STM32F0xx_HAL_Driver/Src/stm32f0xx_hal_pcd.c ****   * @brief  Stop the USB device.
 302:Drivers/STM32F0xx_HAL_Driver/Src/stm32f0xx_hal_pcd.c ****   * @param  hpcd PCD handle
 303:Drivers/STM32F0xx_HAL_Driver/Src/stm32f0xx_hal_pcd.c ****   * @retval HAL status
 304:Drivers/STM32F0xx_HAL_Driver/Src/stm32f0xx_hal_pcd.c ****   */
 305:Drivers/STM32F0xx_HAL_Driver/Src/stm32f0xx_hal_pcd.c **** HAL_StatusTypeDef HAL_PCD_Stop(PCD_HandleTypeDef *hpcd)
 306:Drivers/STM32F0xx_HAL_Driver/Src/stm32f0xx_hal_pcd.c **** { 
 331              		.loc 1 306 1 is_stmt 1 view -0
 332              		.cfi_startproc
 333              		@ args = 0, pretend = 0, frame = 0
 334              		@ frame_needed = 0, uses_anonymous_args = 0
 335              		.loc 1 306 1 is_stmt 0 view .LVU86
 336 0000 10B5     		push	{r4, lr}
 337              	.LCFI1:
 338              		.cfi_def_cfa_offset 8
 339              		.cfi_offset 4, -8
 340              		.cfi_offset 14, -4
 307:Drivers/STM32F0xx_HAL_Driver/Src/stm32f0xx_hal_pcd.c ****   __HAL_LOCK(hpcd); 
 341              		.loc 1 307 3 is_stmt 1 view .LVU87
 342              		.loc 1 307 3 view .LVU88
 343 0002 F423     		movs	r3, #244
 344 0004 5B00     		lsls	r3, r3, #1
 345 0006 C35C     		ldrb	r3, [r0, r3]
 346 0008 012B     		cmp	r3, #1
 347 000a 10D0     		beq	.L20
 348              		.loc 1 307 3 discriminator 2 view .LVU89
 308:Drivers/STM32F0xx_HAL_Driver/Src/stm32f0xx_hal_pcd.c ****   
 309:Drivers/STM32F0xx_HAL_Driver/Src/stm32f0xx_hal_pcd.c ****     /* disable all interrupts and force USB reset */
 310:Drivers/STM32F0xx_HAL_Driver/Src/stm32f0xx_hal_pcd.c ****   hpcd->Instance->CNTR = USB_CNTR_FRES;
 349              		.loc 1 310 3 discriminator 2 view .LVU90
 350              		.loc 1 310 24 is_stmt 0 discriminator 2 view .LVU91
 351 000c 4023     		movs	r3, #64
 352 000e 0122     		movs	r2, #1
 353 0010 0168     		ldr	r1, [r0]
 354 0012 CA52     		strh	r2, [r1, r3]
 311:Drivers/STM32F0xx_HAL_Driver/Src/stm32f0xx_hal_pcd.c ****   
 312:Drivers/STM32F0xx_HAL_Driver/Src/stm32f0xx_hal_pcd.c ****   /* clear interrupt status register */
 313:Drivers/STM32F0xx_HAL_Driver/Src/stm32f0xx_hal_pcd.c ****   hpcd->Instance->ISTR = 0;
 355              		.loc 1 313 3 is_stmt 1 discriminator 2 view .LVU92
 356              		.loc 1 313 24 is_stmt 0 discriminator 2 view .LVU93
 357 0014 4332     		adds	r2, r2, #67
 358 0016 0021     		movs	r1, #0
 359 0018 0468     		ldr	r4, [r0]
 360 001a A152     		strh	r1, [r4, r2]
 314:Drivers/STM32F0xx_HAL_Driver/Src/stm32f0xx_hal_pcd.c ****   
 315:Drivers/STM32F0xx_HAL_Driver/Src/stm32f0xx_hal_pcd.c ****   /* switch-off device */
 316:Drivers/STM32F0xx_HAL_Driver/Src/stm32f0xx_hal_pcd.c ****   hpcd->Instance->CNTR = (USB_CNTR_FRES | USB_CNTR_PDWN);
 361              		.loc 1 316 3 is_stmt 1 discriminator 2 view .LVU94
 362              		.loc 1 316 24 is_stmt 0 discriminator 2 view .LVU95
ARM GAS  /tmp/ccHm7VQo.s 			page 14


 363 001c 413A     		subs	r2, r2, #65
 364 001e 0168     		ldr	r1, [r0]
 365 0020 CA52     		strh	r2, [r1, r3]
 317:Drivers/STM32F0xx_HAL_Driver/Src/stm32f0xx_hal_pcd.c ****   
 318:Drivers/STM32F0xx_HAL_Driver/Src/stm32f0xx_hal_pcd.c ****   __HAL_UNLOCK(hpcd); 
 366              		.loc 1 318 3 is_stmt 1 discriminator 2 view .LVU96
 367              		.loc 1 318 3 discriminator 2 view .LVU97
 368 0022 0022     		movs	r2, #0
 369 0024 A933     		adds	r3, r3, #169
 370 0026 FF33     		adds	r3, r3, #255
 371 0028 C254     		strb	r2, [r0, r3]
 319:Drivers/STM32F0xx_HAL_Driver/Src/stm32f0xx_hal_pcd.c ****   return HAL_OK;
 372              		.loc 1 319 3 discriminator 2 view .LVU98
 373              		.loc 1 319 10 is_stmt 0 discriminator 2 view .LVU99
 374 002a 0020     		movs	r0, #0
 375              	.LVL22:
 376              	.L19:
 320:Drivers/STM32F0xx_HAL_Driver/Src/stm32f0xx_hal_pcd.c **** }
 377              		.loc 1 320 1 view .LVU100
 378              		@ sp needed
 379 002c 10BD     		pop	{r4, pc}
 380              	.LVL23:
 381              	.L20:
 307:Drivers/STM32F0xx_HAL_Driver/Src/stm32f0xx_hal_pcd.c ****   
 382              		.loc 1 307 3 view .LVU101
 383 002e 0220     		movs	r0, #2
 384              	.LVL24:
 307:Drivers/STM32F0xx_HAL_Driver/Src/stm32f0xx_hal_pcd.c ****   
 385              		.loc 1 307 3 view .LVU102
 386 0030 FCE7     		b	.L19
 387              		.cfi_endproc
 388              	.LFE42:
 390              		.section	.text.HAL_PCD_DeInit,"ax",%progbits
 391              		.align	1
 392              		.global	HAL_PCD_DeInit
 393              		.syntax unified
 394              		.code	16
 395              		.thumb_func
 396              		.fpu softvfp
 398              	HAL_PCD_DeInit:
 399              	.LVL25:
 400              	.LFB38:
 218:Drivers/STM32F0xx_HAL_Driver/Src/stm32f0xx_hal_pcd.c ****   /* Check the PCD handle allocation */
 401              		.loc 1 218 1 is_stmt 1 view -0
 402              		.cfi_startproc
 403              		@ args = 0, pretend = 0, frame = 0
 404              		@ frame_needed = 0, uses_anonymous_args = 0
 218:Drivers/STM32F0xx_HAL_Driver/Src/stm32f0xx_hal_pcd.c ****   /* Check the PCD handle allocation */
 405              		.loc 1 218 1 is_stmt 0 view .LVU104
 406 0000 70B5     		push	{r4, r5, r6, lr}
 407              	.LCFI2:
 408              		.cfi_def_cfa_offset 16
 409              		.cfi_offset 4, -16
 410              		.cfi_offset 5, -12
 411              		.cfi_offset 6, -8
 412              		.cfi_offset 14, -4
 413 0002 041E     		subs	r4, r0, #0
ARM GAS  /tmp/ccHm7VQo.s 			page 15


 220:Drivers/STM32F0xx_HAL_Driver/Src/stm32f0xx_hal_pcd.c ****   {
 414              		.loc 1 220 3 is_stmt 1 view .LVU105
 220:Drivers/STM32F0xx_HAL_Driver/Src/stm32f0xx_hal_pcd.c ****   {
 415              		.loc 1 220 5 is_stmt 0 view .LVU106
 416 0004 0CD0     		beq	.L23
 225:Drivers/STM32F0xx_HAL_Driver/Src/stm32f0xx_hal_pcd.c ****   
 417              		.loc 1 225 3 is_stmt 1 view .LVU107
 225:Drivers/STM32F0xx_HAL_Driver/Src/stm32f0xx_hal_pcd.c ****   
 418              		.loc 1 225 15 is_stmt 0 view .LVU108
 419 0006 EA25     		movs	r5, #234
 420 0008 FF35     		adds	r5, r5, #255
 421 000a 0323     		movs	r3, #3
 422 000c 4355     		strb	r3, [r0, r5]
 228:Drivers/STM32F0xx_HAL_Driver/Src/stm32f0xx_hal_pcd.c ****     
 423              		.loc 1 228 3 is_stmt 1 view .LVU109
 424 000e FFF7FEFF 		bl	HAL_PCD_Stop
 425              	.LVL26:
 231:Drivers/STM32F0xx_HAL_Driver/Src/stm32f0xx_hal_pcd.c ****   
 426              		.loc 1 231 3 view .LVU110
 427 0012 2000     		movs	r0, r4
 428 0014 FFF7FEFF 		bl	HAL_PCD_MspDeInit
 429              	.LVL27:
 233:Drivers/STM32F0xx_HAL_Driver/Src/stm32f0xx_hal_pcd.c ****   
 430              		.loc 1 233 3 view .LVU111
 233:Drivers/STM32F0xx_HAL_Driver/Src/stm32f0xx_hal_pcd.c ****   
 431              		.loc 1 233 15 is_stmt 0 view .LVU112
 432 0018 0023     		movs	r3, #0
 433 001a 6355     		strb	r3, [r4, r5]
 235:Drivers/STM32F0xx_HAL_Driver/Src/stm32f0xx_hal_pcd.c **** }
 434              		.loc 1 235 3 is_stmt 1 view .LVU113
 235:Drivers/STM32F0xx_HAL_Driver/Src/stm32f0xx_hal_pcd.c **** }
 435              		.loc 1 235 10 is_stmt 0 view .LVU114
 436 001c 0020     		movs	r0, #0
 437              	.L22:
 236:Drivers/STM32F0xx_HAL_Driver/Src/stm32f0xx_hal_pcd.c **** 
 438              		.loc 1 236 1 view .LVU115
 439              		@ sp needed
 440              	.LVL28:
 236:Drivers/STM32F0xx_HAL_Driver/Src/stm32f0xx_hal_pcd.c **** 
 441              		.loc 1 236 1 view .LVU116
 442 001e 70BD     		pop	{r4, r5, r6, pc}
 443              	.LVL29:
 444              	.L23:
 222:Drivers/STM32F0xx_HAL_Driver/Src/stm32f0xx_hal_pcd.c ****   }
 445              		.loc 1 222 12 view .LVU117
 446 0020 0120     		movs	r0, #1
 447              	.LVL30:
 222:Drivers/STM32F0xx_HAL_Driver/Src/stm32f0xx_hal_pcd.c ****   }
 448              		.loc 1 222 12 view .LVU118
 449 0022 FCE7     		b	.L22
 450              		.cfi_endproc
 451              	.LFE38:
 453              		.section	.text.HAL_PCD_DataOutStageCallback,"ax",%progbits
 454              		.align	1
 455              		.weak	HAL_PCD_DataOutStageCallback
 456              		.syntax unified
 457              		.code	16
ARM GAS  /tmp/ccHm7VQo.s 			page 16


 458              		.thumb_func
 459              		.fpu softvfp
 461              	HAL_PCD_DataOutStageCallback:
 462              	.LVL31:
 463              	.LFB44:
 321:Drivers/STM32F0xx_HAL_Driver/Src/stm32f0xx_hal_pcd.c **** 
 322:Drivers/STM32F0xx_HAL_Driver/Src/stm32f0xx_hal_pcd.c **** /**
 323:Drivers/STM32F0xx_HAL_Driver/Src/stm32f0xx_hal_pcd.c ****   * @brief  This function handles PCD interrupt request.
 324:Drivers/STM32F0xx_HAL_Driver/Src/stm32f0xx_hal_pcd.c ****   * @param  hpcd PCD handle
 325:Drivers/STM32F0xx_HAL_Driver/Src/stm32f0xx_hal_pcd.c ****   * @retval HAL status
 326:Drivers/STM32F0xx_HAL_Driver/Src/stm32f0xx_hal_pcd.c ****   */
 327:Drivers/STM32F0xx_HAL_Driver/Src/stm32f0xx_hal_pcd.c **** void HAL_PCD_IRQHandler(PCD_HandleTypeDef *hpcd)
 328:Drivers/STM32F0xx_HAL_Driver/Src/stm32f0xx_hal_pcd.c **** {
 329:Drivers/STM32F0xx_HAL_Driver/Src/stm32f0xx_hal_pcd.c ****   uint32_t wInterrupt_Mask = 0U;
 330:Drivers/STM32F0xx_HAL_Driver/Src/stm32f0xx_hal_pcd.c ****   
 331:Drivers/STM32F0xx_HAL_Driver/Src/stm32f0xx_hal_pcd.c ****   if (__HAL_PCD_GET_FLAG (hpcd, USB_ISTR_CTR))
 332:Drivers/STM32F0xx_HAL_Driver/Src/stm32f0xx_hal_pcd.c ****   {
 333:Drivers/STM32F0xx_HAL_Driver/Src/stm32f0xx_hal_pcd.c ****     /* servicing of the endpoint correct transfer interrupt */
 334:Drivers/STM32F0xx_HAL_Driver/Src/stm32f0xx_hal_pcd.c ****     /* clear of the CTR flag into the sub */
 335:Drivers/STM32F0xx_HAL_Driver/Src/stm32f0xx_hal_pcd.c ****     PCD_EP_ISR_Handler(hpcd);
 336:Drivers/STM32F0xx_HAL_Driver/Src/stm32f0xx_hal_pcd.c ****   }
 337:Drivers/STM32F0xx_HAL_Driver/Src/stm32f0xx_hal_pcd.c **** 
 338:Drivers/STM32F0xx_HAL_Driver/Src/stm32f0xx_hal_pcd.c ****   if (__HAL_PCD_GET_FLAG (hpcd, USB_ISTR_RESET))
 339:Drivers/STM32F0xx_HAL_Driver/Src/stm32f0xx_hal_pcd.c ****   {
 340:Drivers/STM32F0xx_HAL_Driver/Src/stm32f0xx_hal_pcd.c ****     __HAL_PCD_CLEAR_FLAG(hpcd, USB_ISTR_RESET);
 341:Drivers/STM32F0xx_HAL_Driver/Src/stm32f0xx_hal_pcd.c ****     HAL_PCD_ResetCallback(hpcd);
 342:Drivers/STM32F0xx_HAL_Driver/Src/stm32f0xx_hal_pcd.c ****     HAL_PCD_SetAddress(hpcd, 0U);
 343:Drivers/STM32F0xx_HAL_Driver/Src/stm32f0xx_hal_pcd.c ****   }
 344:Drivers/STM32F0xx_HAL_Driver/Src/stm32f0xx_hal_pcd.c **** 
 345:Drivers/STM32F0xx_HAL_Driver/Src/stm32f0xx_hal_pcd.c ****   if (__HAL_PCD_GET_FLAG (hpcd, USB_ISTR_PMAOVR))
 346:Drivers/STM32F0xx_HAL_Driver/Src/stm32f0xx_hal_pcd.c ****   {
 347:Drivers/STM32F0xx_HAL_Driver/Src/stm32f0xx_hal_pcd.c ****     __HAL_PCD_CLEAR_FLAG(hpcd, USB_ISTR_PMAOVR);    
 348:Drivers/STM32F0xx_HAL_Driver/Src/stm32f0xx_hal_pcd.c ****   }
 349:Drivers/STM32F0xx_HAL_Driver/Src/stm32f0xx_hal_pcd.c **** 
 350:Drivers/STM32F0xx_HAL_Driver/Src/stm32f0xx_hal_pcd.c ****   if (__HAL_PCD_GET_FLAG (hpcd, USB_ISTR_ERR))
 351:Drivers/STM32F0xx_HAL_Driver/Src/stm32f0xx_hal_pcd.c ****   {
 352:Drivers/STM32F0xx_HAL_Driver/Src/stm32f0xx_hal_pcd.c ****     __HAL_PCD_CLEAR_FLAG(hpcd, USB_ISTR_ERR); 
 353:Drivers/STM32F0xx_HAL_Driver/Src/stm32f0xx_hal_pcd.c ****   }
 354:Drivers/STM32F0xx_HAL_Driver/Src/stm32f0xx_hal_pcd.c **** 
 355:Drivers/STM32F0xx_HAL_Driver/Src/stm32f0xx_hal_pcd.c ****   if (__HAL_PCD_GET_FLAG (hpcd, USB_ISTR_WKUP))
 356:Drivers/STM32F0xx_HAL_Driver/Src/stm32f0xx_hal_pcd.c ****   {
 357:Drivers/STM32F0xx_HAL_Driver/Src/stm32f0xx_hal_pcd.c ****     
 358:Drivers/STM32F0xx_HAL_Driver/Src/stm32f0xx_hal_pcd.c ****     hpcd->Instance->CNTR &= (uint16_t)(~(USB_CNTR_LPMODE));
 359:Drivers/STM32F0xx_HAL_Driver/Src/stm32f0xx_hal_pcd.c **** 
 360:Drivers/STM32F0xx_HAL_Driver/Src/stm32f0xx_hal_pcd.c ****     /*set wInterrupt_Mask global variable*/
 361:Drivers/STM32F0xx_HAL_Driver/Src/stm32f0xx_hal_pcd.c ****     wInterrupt_Mask = USB_CNTR_CTRM  | USB_CNTR_WKUPM | USB_CNTR_SUSPM | USB_CNTR_ERRM \
 362:Drivers/STM32F0xx_HAL_Driver/Src/stm32f0xx_hal_pcd.c ****       | USB_CNTR_ESOFM | USB_CNTR_RESETM;
 363:Drivers/STM32F0xx_HAL_Driver/Src/stm32f0xx_hal_pcd.c ****     
 364:Drivers/STM32F0xx_HAL_Driver/Src/stm32f0xx_hal_pcd.c ****     /*Set interrupt mask*/
 365:Drivers/STM32F0xx_HAL_Driver/Src/stm32f0xx_hal_pcd.c ****     hpcd->Instance->CNTR = wInterrupt_Mask;
 366:Drivers/STM32F0xx_HAL_Driver/Src/stm32f0xx_hal_pcd.c ****     
 367:Drivers/STM32F0xx_HAL_Driver/Src/stm32f0xx_hal_pcd.c ****     HAL_PCD_ResumeCallback(hpcd);
 368:Drivers/STM32F0xx_HAL_Driver/Src/stm32f0xx_hal_pcd.c ****     
 369:Drivers/STM32F0xx_HAL_Driver/Src/stm32f0xx_hal_pcd.c ****     __HAL_PCD_CLEAR_FLAG(hpcd, USB_ISTR_WKUP);     
 370:Drivers/STM32F0xx_HAL_Driver/Src/stm32f0xx_hal_pcd.c ****   }
 371:Drivers/STM32F0xx_HAL_Driver/Src/stm32f0xx_hal_pcd.c **** 
 372:Drivers/STM32F0xx_HAL_Driver/Src/stm32f0xx_hal_pcd.c ****   if (__HAL_PCD_GET_FLAG (hpcd, USB_ISTR_SUSP))
ARM GAS  /tmp/ccHm7VQo.s 			page 17


 373:Drivers/STM32F0xx_HAL_Driver/Src/stm32f0xx_hal_pcd.c ****   {    
 374:Drivers/STM32F0xx_HAL_Driver/Src/stm32f0xx_hal_pcd.c ****     /* clear of the ISTR bit must be done after setting of CNTR_FSUSP */
 375:Drivers/STM32F0xx_HAL_Driver/Src/stm32f0xx_hal_pcd.c ****     __HAL_PCD_CLEAR_FLAG(hpcd, USB_ISTR_SUSP);  
 376:Drivers/STM32F0xx_HAL_Driver/Src/stm32f0xx_hal_pcd.c ****     
 377:Drivers/STM32F0xx_HAL_Driver/Src/stm32f0xx_hal_pcd.c ****     /* Force low-power mode in the macrocell */
 378:Drivers/STM32F0xx_HAL_Driver/Src/stm32f0xx_hal_pcd.c ****     hpcd->Instance->CNTR |= USB_CNTR_FSUSP;
 379:Drivers/STM32F0xx_HAL_Driver/Src/stm32f0xx_hal_pcd.c ****     hpcd->Instance->CNTR |= USB_CNTR_LPMODE;
 380:Drivers/STM32F0xx_HAL_Driver/Src/stm32f0xx_hal_pcd.c **** 
 381:Drivers/STM32F0xx_HAL_Driver/Src/stm32f0xx_hal_pcd.c ****     if (__HAL_PCD_GET_FLAG (hpcd, USB_ISTR_WKUP) == 0)
 382:Drivers/STM32F0xx_HAL_Driver/Src/stm32f0xx_hal_pcd.c ****     {
 383:Drivers/STM32F0xx_HAL_Driver/Src/stm32f0xx_hal_pcd.c ****       HAL_PCD_SuspendCallback(hpcd);
 384:Drivers/STM32F0xx_HAL_Driver/Src/stm32f0xx_hal_pcd.c ****     }
 385:Drivers/STM32F0xx_HAL_Driver/Src/stm32f0xx_hal_pcd.c ****   }
 386:Drivers/STM32F0xx_HAL_Driver/Src/stm32f0xx_hal_pcd.c **** 
 387:Drivers/STM32F0xx_HAL_Driver/Src/stm32f0xx_hal_pcd.c ****   if (__HAL_PCD_GET_FLAG (hpcd, USB_ISTR_SOF))
 388:Drivers/STM32F0xx_HAL_Driver/Src/stm32f0xx_hal_pcd.c ****   {
 389:Drivers/STM32F0xx_HAL_Driver/Src/stm32f0xx_hal_pcd.c ****     __HAL_PCD_CLEAR_FLAG(hpcd, USB_ISTR_SOF); 
 390:Drivers/STM32F0xx_HAL_Driver/Src/stm32f0xx_hal_pcd.c ****     HAL_PCD_SOFCallback(hpcd);
 391:Drivers/STM32F0xx_HAL_Driver/Src/stm32f0xx_hal_pcd.c ****   }
 392:Drivers/STM32F0xx_HAL_Driver/Src/stm32f0xx_hal_pcd.c **** 
 393:Drivers/STM32F0xx_HAL_Driver/Src/stm32f0xx_hal_pcd.c ****   if (__HAL_PCD_GET_FLAG (hpcd, USB_ISTR_ESOF))
 394:Drivers/STM32F0xx_HAL_Driver/Src/stm32f0xx_hal_pcd.c ****   {
 395:Drivers/STM32F0xx_HAL_Driver/Src/stm32f0xx_hal_pcd.c ****     /* clear ESOF flag in ISTR */
 396:Drivers/STM32F0xx_HAL_Driver/Src/stm32f0xx_hal_pcd.c ****     __HAL_PCD_CLEAR_FLAG(hpcd, USB_ISTR_ESOF); 
 397:Drivers/STM32F0xx_HAL_Driver/Src/stm32f0xx_hal_pcd.c ****   }
 398:Drivers/STM32F0xx_HAL_Driver/Src/stm32f0xx_hal_pcd.c **** }
 399:Drivers/STM32F0xx_HAL_Driver/Src/stm32f0xx_hal_pcd.c **** 
 400:Drivers/STM32F0xx_HAL_Driver/Src/stm32f0xx_hal_pcd.c **** /**
 401:Drivers/STM32F0xx_HAL_Driver/Src/stm32f0xx_hal_pcd.c ****   * @brief  Data out stage callbacks
 402:Drivers/STM32F0xx_HAL_Driver/Src/stm32f0xx_hal_pcd.c ****   * @param  hpcd PCD handle
 403:Drivers/STM32F0xx_HAL_Driver/Src/stm32f0xx_hal_pcd.c ****   * @param  epnum endpoint number
 404:Drivers/STM32F0xx_HAL_Driver/Src/stm32f0xx_hal_pcd.c ****   * @retval None
 405:Drivers/STM32F0xx_HAL_Driver/Src/stm32f0xx_hal_pcd.c ****   */
 406:Drivers/STM32F0xx_HAL_Driver/Src/stm32f0xx_hal_pcd.c ****  __weak void HAL_PCD_DataOutStageCallback(PCD_HandleTypeDef *hpcd, uint8_t epnum)
 407:Drivers/STM32F0xx_HAL_Driver/Src/stm32f0xx_hal_pcd.c **** {
 464              		.loc 1 407 1 is_stmt 1 view -0
 465              		.cfi_startproc
 466              		@ args = 0, pretend = 0, frame = 0
 467              		@ frame_needed = 0, uses_anonymous_args = 0
 468              		@ link register save eliminated.
 408:Drivers/STM32F0xx_HAL_Driver/Src/stm32f0xx_hal_pcd.c ****   /* Prevent unused argument(s) compilation warning */
 409:Drivers/STM32F0xx_HAL_Driver/Src/stm32f0xx_hal_pcd.c ****   UNUSED(hpcd);
 469              		.loc 1 409 3 view .LVU120
 410:Drivers/STM32F0xx_HAL_Driver/Src/stm32f0xx_hal_pcd.c ****   UNUSED(epnum);
 470              		.loc 1 410 3 view .LVU121
 411:Drivers/STM32F0xx_HAL_Driver/Src/stm32f0xx_hal_pcd.c **** 
 412:Drivers/STM32F0xx_HAL_Driver/Src/stm32f0xx_hal_pcd.c ****   /* NOTE : This function Should not be modified, when the callback is needed,
 413:Drivers/STM32F0xx_HAL_Driver/Src/stm32f0xx_hal_pcd.c ****             the HAL_PCD_DataOutStageCallback could be implemented in the user file
 414:Drivers/STM32F0xx_HAL_Driver/Src/stm32f0xx_hal_pcd.c ****    */ 
 415:Drivers/STM32F0xx_HAL_Driver/Src/stm32f0xx_hal_pcd.c **** }
 471              		.loc 1 415 1 is_stmt 0 view .LVU122
 472              		@ sp needed
 473 0000 7047     		bx	lr
 474              		.cfi_endproc
 475              	.LFE44:
 477              		.section	.text.HAL_PCD_DataInStageCallback,"ax",%progbits
 478              		.align	1
ARM GAS  /tmp/ccHm7VQo.s 			page 18


 479              		.weak	HAL_PCD_DataInStageCallback
 480              		.syntax unified
 481              		.code	16
 482              		.thumb_func
 483              		.fpu softvfp
 485              	HAL_PCD_DataInStageCallback:
 486              	.LVL32:
 487              	.LFB45:
 416:Drivers/STM32F0xx_HAL_Driver/Src/stm32f0xx_hal_pcd.c **** 
 417:Drivers/STM32F0xx_HAL_Driver/Src/stm32f0xx_hal_pcd.c **** /**
 418:Drivers/STM32F0xx_HAL_Driver/Src/stm32f0xx_hal_pcd.c ****   * @brief  Data IN stage callbacks
 419:Drivers/STM32F0xx_HAL_Driver/Src/stm32f0xx_hal_pcd.c ****   * @param  hpcd PCD handle
 420:Drivers/STM32F0xx_HAL_Driver/Src/stm32f0xx_hal_pcd.c ****   * @param  epnum endpoint number
 421:Drivers/STM32F0xx_HAL_Driver/Src/stm32f0xx_hal_pcd.c ****   * @retval None
 422:Drivers/STM32F0xx_HAL_Driver/Src/stm32f0xx_hal_pcd.c ****   */
 423:Drivers/STM32F0xx_HAL_Driver/Src/stm32f0xx_hal_pcd.c ****  __weak void HAL_PCD_DataInStageCallback(PCD_HandleTypeDef *hpcd, uint8_t epnum)
 424:Drivers/STM32F0xx_HAL_Driver/Src/stm32f0xx_hal_pcd.c **** {
 488              		.loc 1 424 1 is_stmt 1 view -0
 489              		.cfi_startproc
 490              		@ args = 0, pretend = 0, frame = 0
 491              		@ frame_needed = 0, uses_anonymous_args = 0
 492              		@ link register save eliminated.
 425:Drivers/STM32F0xx_HAL_Driver/Src/stm32f0xx_hal_pcd.c ****   /* Prevent unused argument(s) compilation warning */
 426:Drivers/STM32F0xx_HAL_Driver/Src/stm32f0xx_hal_pcd.c ****   UNUSED(hpcd);
 493              		.loc 1 426 3 view .LVU124
 427:Drivers/STM32F0xx_HAL_Driver/Src/stm32f0xx_hal_pcd.c ****   UNUSED(epnum);
 494              		.loc 1 427 3 view .LVU125
 428:Drivers/STM32F0xx_HAL_Driver/Src/stm32f0xx_hal_pcd.c **** 
 429:Drivers/STM32F0xx_HAL_Driver/Src/stm32f0xx_hal_pcd.c ****   /* NOTE : This function Should not be modified, when the callback is needed,
 430:Drivers/STM32F0xx_HAL_Driver/Src/stm32f0xx_hal_pcd.c ****             the HAL_PCD_DataInStageCallback could be implemented in the user file
 431:Drivers/STM32F0xx_HAL_Driver/Src/stm32f0xx_hal_pcd.c ****    */ 
 432:Drivers/STM32F0xx_HAL_Driver/Src/stm32f0xx_hal_pcd.c **** }
 495              		.loc 1 432 1 is_stmt 0 view .LVU126
 496              		@ sp needed
 497 0000 7047     		bx	lr
 498              		.cfi_endproc
 499              	.LFE45:
 501              		.section	.text.HAL_PCD_SetupStageCallback,"ax",%progbits
 502              		.align	1
 503              		.weak	HAL_PCD_SetupStageCallback
 504              		.syntax unified
 505              		.code	16
 506              		.thumb_func
 507              		.fpu softvfp
 509              	HAL_PCD_SetupStageCallback:
 510              	.LVL33:
 511              	.LFB46:
 433:Drivers/STM32F0xx_HAL_Driver/Src/stm32f0xx_hal_pcd.c **** /**
 434:Drivers/STM32F0xx_HAL_Driver/Src/stm32f0xx_hal_pcd.c ****   * @brief  Setup stage callback
 435:Drivers/STM32F0xx_HAL_Driver/Src/stm32f0xx_hal_pcd.c ****   * @param  hpcd PCD handle
 436:Drivers/STM32F0xx_HAL_Driver/Src/stm32f0xx_hal_pcd.c ****   * @retval None
 437:Drivers/STM32F0xx_HAL_Driver/Src/stm32f0xx_hal_pcd.c ****   */
 438:Drivers/STM32F0xx_HAL_Driver/Src/stm32f0xx_hal_pcd.c ****  __weak void HAL_PCD_SetupStageCallback(PCD_HandleTypeDef *hpcd)
 439:Drivers/STM32F0xx_HAL_Driver/Src/stm32f0xx_hal_pcd.c **** {
 512              		.loc 1 439 1 is_stmt 1 view -0
 513              		.cfi_startproc
 514              		@ args = 0, pretend = 0, frame = 0
ARM GAS  /tmp/ccHm7VQo.s 			page 19


 515              		@ frame_needed = 0, uses_anonymous_args = 0
 516              		@ link register save eliminated.
 440:Drivers/STM32F0xx_HAL_Driver/Src/stm32f0xx_hal_pcd.c ****   /* Prevent unused argument(s) compilation warning */
 441:Drivers/STM32F0xx_HAL_Driver/Src/stm32f0xx_hal_pcd.c ****   UNUSED(hpcd);
 517              		.loc 1 441 3 view .LVU128
 442:Drivers/STM32F0xx_HAL_Driver/Src/stm32f0xx_hal_pcd.c **** 
 443:Drivers/STM32F0xx_HAL_Driver/Src/stm32f0xx_hal_pcd.c ****   /* NOTE : This function Should not be modified, when the callback is needed,
 444:Drivers/STM32F0xx_HAL_Driver/Src/stm32f0xx_hal_pcd.c ****             the HAL_PCD_SetupStageCallback could be implemented in the user file
 445:Drivers/STM32F0xx_HAL_Driver/Src/stm32f0xx_hal_pcd.c ****    */ 
 446:Drivers/STM32F0xx_HAL_Driver/Src/stm32f0xx_hal_pcd.c **** }
 518              		.loc 1 446 1 is_stmt 0 view .LVU129
 519              		@ sp needed
 520 0000 7047     		bx	lr
 521              		.cfi_endproc
 522              	.LFE46:
 524              		.section	.text.HAL_PCD_SOFCallback,"ax",%progbits
 525              		.align	1
 526              		.weak	HAL_PCD_SOFCallback
 527              		.syntax unified
 528              		.code	16
 529              		.thumb_func
 530              		.fpu softvfp
 532              	HAL_PCD_SOFCallback:
 533              	.LVL34:
 534              	.LFB47:
 447:Drivers/STM32F0xx_HAL_Driver/Src/stm32f0xx_hal_pcd.c **** 
 448:Drivers/STM32F0xx_HAL_Driver/Src/stm32f0xx_hal_pcd.c **** /**
 449:Drivers/STM32F0xx_HAL_Driver/Src/stm32f0xx_hal_pcd.c ****   * @brief  USB Start Of Frame callbacks
 450:Drivers/STM32F0xx_HAL_Driver/Src/stm32f0xx_hal_pcd.c ****   * @param  hpcd PCD handle
 451:Drivers/STM32F0xx_HAL_Driver/Src/stm32f0xx_hal_pcd.c ****   * @retval None
 452:Drivers/STM32F0xx_HAL_Driver/Src/stm32f0xx_hal_pcd.c ****   */
 453:Drivers/STM32F0xx_HAL_Driver/Src/stm32f0xx_hal_pcd.c ****  __weak void HAL_PCD_SOFCallback(PCD_HandleTypeDef *hpcd)
 454:Drivers/STM32F0xx_HAL_Driver/Src/stm32f0xx_hal_pcd.c **** {
 535              		.loc 1 454 1 is_stmt 1 view -0
 536              		.cfi_startproc
 537              		@ args = 0, pretend = 0, frame = 0
 538              		@ frame_needed = 0, uses_anonymous_args = 0
 539              		@ link register save eliminated.
 455:Drivers/STM32F0xx_HAL_Driver/Src/stm32f0xx_hal_pcd.c ****   /* Prevent unused argument(s) compilation warning */
 456:Drivers/STM32F0xx_HAL_Driver/Src/stm32f0xx_hal_pcd.c ****   UNUSED(hpcd);
 540              		.loc 1 456 3 view .LVU131
 457:Drivers/STM32F0xx_HAL_Driver/Src/stm32f0xx_hal_pcd.c **** 
 458:Drivers/STM32F0xx_HAL_Driver/Src/stm32f0xx_hal_pcd.c ****   /* NOTE : This function Should not be modified, when the callback is needed,
 459:Drivers/STM32F0xx_HAL_Driver/Src/stm32f0xx_hal_pcd.c ****             the HAL_PCD_SOFCallback could be implemented in the user file
 460:Drivers/STM32F0xx_HAL_Driver/Src/stm32f0xx_hal_pcd.c ****    */ 
 461:Drivers/STM32F0xx_HAL_Driver/Src/stm32f0xx_hal_pcd.c **** }
 541              		.loc 1 461 1 is_stmt 0 view .LVU132
 542              		@ sp needed
 543 0000 7047     		bx	lr
 544              		.cfi_endproc
 545              	.LFE47:
 547              		.section	.text.HAL_PCD_ResetCallback,"ax",%progbits
 548              		.align	1
 549              		.weak	HAL_PCD_ResetCallback
 550              		.syntax unified
 551              		.code	16
 552              		.thumb_func
ARM GAS  /tmp/ccHm7VQo.s 			page 20


 553              		.fpu softvfp
 555              	HAL_PCD_ResetCallback:
 556              	.LVL35:
 557              	.LFB48:
 462:Drivers/STM32F0xx_HAL_Driver/Src/stm32f0xx_hal_pcd.c **** 
 463:Drivers/STM32F0xx_HAL_Driver/Src/stm32f0xx_hal_pcd.c **** /**
 464:Drivers/STM32F0xx_HAL_Driver/Src/stm32f0xx_hal_pcd.c ****   * @brief  USB Reset callbacks
 465:Drivers/STM32F0xx_HAL_Driver/Src/stm32f0xx_hal_pcd.c ****   * @param  hpcd PCD handle
 466:Drivers/STM32F0xx_HAL_Driver/Src/stm32f0xx_hal_pcd.c ****   * @retval None
 467:Drivers/STM32F0xx_HAL_Driver/Src/stm32f0xx_hal_pcd.c ****   */
 468:Drivers/STM32F0xx_HAL_Driver/Src/stm32f0xx_hal_pcd.c ****  __weak void HAL_PCD_ResetCallback(PCD_HandleTypeDef *hpcd)
 469:Drivers/STM32F0xx_HAL_Driver/Src/stm32f0xx_hal_pcd.c **** {
 558              		.loc 1 469 1 is_stmt 1 view -0
 559              		.cfi_startproc
 560              		@ args = 0, pretend = 0, frame = 0
 561              		@ frame_needed = 0, uses_anonymous_args = 0
 562              		@ link register save eliminated.
 470:Drivers/STM32F0xx_HAL_Driver/Src/stm32f0xx_hal_pcd.c ****   /* Prevent unused argument(s) compilation warning */
 471:Drivers/STM32F0xx_HAL_Driver/Src/stm32f0xx_hal_pcd.c ****   UNUSED(hpcd);
 563              		.loc 1 471 3 view .LVU134
 472:Drivers/STM32F0xx_HAL_Driver/Src/stm32f0xx_hal_pcd.c **** 
 473:Drivers/STM32F0xx_HAL_Driver/Src/stm32f0xx_hal_pcd.c ****   /* NOTE : This function Should not be modified, when the callback is needed,
 474:Drivers/STM32F0xx_HAL_Driver/Src/stm32f0xx_hal_pcd.c ****             the HAL_PCD_ResetCallback could be implemented in the user file
 475:Drivers/STM32F0xx_HAL_Driver/Src/stm32f0xx_hal_pcd.c ****    */ 
 476:Drivers/STM32F0xx_HAL_Driver/Src/stm32f0xx_hal_pcd.c **** }
 564              		.loc 1 476 1 is_stmt 0 view .LVU135
 565              		@ sp needed
 566 0000 7047     		bx	lr
 567              		.cfi_endproc
 568              	.LFE48:
 570              		.section	.text.HAL_PCD_SuspendCallback,"ax",%progbits
 571              		.align	1
 572              		.weak	HAL_PCD_SuspendCallback
 573              		.syntax unified
 574              		.code	16
 575              		.thumb_func
 576              		.fpu softvfp
 578              	HAL_PCD_SuspendCallback:
 579              	.LVL36:
 580              	.LFB49:
 477:Drivers/STM32F0xx_HAL_Driver/Src/stm32f0xx_hal_pcd.c **** 
 478:Drivers/STM32F0xx_HAL_Driver/Src/stm32f0xx_hal_pcd.c **** /**
 479:Drivers/STM32F0xx_HAL_Driver/Src/stm32f0xx_hal_pcd.c ****   * @brief  Suspend event callbacks
 480:Drivers/STM32F0xx_HAL_Driver/Src/stm32f0xx_hal_pcd.c ****   * @param  hpcd PCD handle
 481:Drivers/STM32F0xx_HAL_Driver/Src/stm32f0xx_hal_pcd.c ****   * @retval None
 482:Drivers/STM32F0xx_HAL_Driver/Src/stm32f0xx_hal_pcd.c ****   */
 483:Drivers/STM32F0xx_HAL_Driver/Src/stm32f0xx_hal_pcd.c ****  __weak void HAL_PCD_SuspendCallback(PCD_HandleTypeDef *hpcd)
 484:Drivers/STM32F0xx_HAL_Driver/Src/stm32f0xx_hal_pcd.c **** {
 581              		.loc 1 484 1 is_stmt 1 view -0
 582              		.cfi_startproc
 583              		@ args = 0, pretend = 0, frame = 0
 584              		@ frame_needed = 0, uses_anonymous_args = 0
 585              		@ link register save eliminated.
 485:Drivers/STM32F0xx_HAL_Driver/Src/stm32f0xx_hal_pcd.c ****   /* Prevent unused argument(s) compilation warning */
 486:Drivers/STM32F0xx_HAL_Driver/Src/stm32f0xx_hal_pcd.c ****   UNUSED(hpcd);
 586              		.loc 1 486 3 view .LVU137
 487:Drivers/STM32F0xx_HAL_Driver/Src/stm32f0xx_hal_pcd.c **** 
ARM GAS  /tmp/ccHm7VQo.s 			page 21


 488:Drivers/STM32F0xx_HAL_Driver/Src/stm32f0xx_hal_pcd.c ****   /* NOTE : This function Should not be modified, when the callback is needed,
 489:Drivers/STM32F0xx_HAL_Driver/Src/stm32f0xx_hal_pcd.c ****             the HAL_PCD_SuspendCallback could be implemented in the user file
 490:Drivers/STM32F0xx_HAL_Driver/Src/stm32f0xx_hal_pcd.c ****    */ 
 491:Drivers/STM32F0xx_HAL_Driver/Src/stm32f0xx_hal_pcd.c **** }
 587              		.loc 1 491 1 is_stmt 0 view .LVU138
 588              		@ sp needed
 589 0000 7047     		bx	lr
 590              		.cfi_endproc
 591              	.LFE49:
 593              		.section	.text.HAL_PCD_ResumeCallback,"ax",%progbits
 594              		.align	1
 595              		.weak	HAL_PCD_ResumeCallback
 596              		.syntax unified
 597              		.code	16
 598              		.thumb_func
 599              		.fpu softvfp
 601              	HAL_PCD_ResumeCallback:
 602              	.LVL37:
 603              	.LFB50:
 492:Drivers/STM32F0xx_HAL_Driver/Src/stm32f0xx_hal_pcd.c **** 
 493:Drivers/STM32F0xx_HAL_Driver/Src/stm32f0xx_hal_pcd.c **** /**
 494:Drivers/STM32F0xx_HAL_Driver/Src/stm32f0xx_hal_pcd.c ****   * @brief  Resume event callbacks
 495:Drivers/STM32F0xx_HAL_Driver/Src/stm32f0xx_hal_pcd.c ****   * @param  hpcd PCD handle
 496:Drivers/STM32F0xx_HAL_Driver/Src/stm32f0xx_hal_pcd.c ****   * @retval None
 497:Drivers/STM32F0xx_HAL_Driver/Src/stm32f0xx_hal_pcd.c ****   */
 498:Drivers/STM32F0xx_HAL_Driver/Src/stm32f0xx_hal_pcd.c ****  __weak void HAL_PCD_ResumeCallback(PCD_HandleTypeDef *hpcd)
 499:Drivers/STM32F0xx_HAL_Driver/Src/stm32f0xx_hal_pcd.c **** {
 604              		.loc 1 499 1 is_stmt 1 view -0
 605              		.cfi_startproc
 606              		@ args = 0, pretend = 0, frame = 0
 607              		@ frame_needed = 0, uses_anonymous_args = 0
 608              		@ link register save eliminated.
 500:Drivers/STM32F0xx_HAL_Driver/Src/stm32f0xx_hal_pcd.c ****   /* Prevent unused argument(s) compilation warning */
 501:Drivers/STM32F0xx_HAL_Driver/Src/stm32f0xx_hal_pcd.c ****   UNUSED(hpcd);
 609              		.loc 1 501 3 view .LVU140
 502:Drivers/STM32F0xx_HAL_Driver/Src/stm32f0xx_hal_pcd.c **** 
 503:Drivers/STM32F0xx_HAL_Driver/Src/stm32f0xx_hal_pcd.c ****   /* NOTE : This function Should not be modified, when the callback is needed,
 504:Drivers/STM32F0xx_HAL_Driver/Src/stm32f0xx_hal_pcd.c ****             the HAL_PCD_ResumeCallback could be implemented in the user file
 505:Drivers/STM32F0xx_HAL_Driver/Src/stm32f0xx_hal_pcd.c ****    */ 
 506:Drivers/STM32F0xx_HAL_Driver/Src/stm32f0xx_hal_pcd.c **** }
 610              		.loc 1 506 1 is_stmt 0 view .LVU141
 611              		@ sp needed
 612 0000 7047     		bx	lr
 613              		.cfi_endproc
 614              	.LFE50:
 616              		.section	.text.HAL_PCD_ISOOUTIncompleteCallback,"ax",%progbits
 617              		.align	1
 618              		.weak	HAL_PCD_ISOOUTIncompleteCallback
 619              		.syntax unified
 620              		.code	16
 621              		.thumb_func
 622              		.fpu softvfp
 624              	HAL_PCD_ISOOUTIncompleteCallback:
 625              	.LVL38:
 626              	.LFB51:
 507:Drivers/STM32F0xx_HAL_Driver/Src/stm32f0xx_hal_pcd.c **** 
 508:Drivers/STM32F0xx_HAL_Driver/Src/stm32f0xx_hal_pcd.c **** /**
ARM GAS  /tmp/ccHm7VQo.s 			page 22


 509:Drivers/STM32F0xx_HAL_Driver/Src/stm32f0xx_hal_pcd.c ****   * @brief  Incomplete ISO OUT callbacks
 510:Drivers/STM32F0xx_HAL_Driver/Src/stm32f0xx_hal_pcd.c ****   * @param  hpcd PCD handle
 511:Drivers/STM32F0xx_HAL_Driver/Src/stm32f0xx_hal_pcd.c ****   * @param  epnum endpoint number
 512:Drivers/STM32F0xx_HAL_Driver/Src/stm32f0xx_hal_pcd.c ****   * @retval None
 513:Drivers/STM32F0xx_HAL_Driver/Src/stm32f0xx_hal_pcd.c ****   */
 514:Drivers/STM32F0xx_HAL_Driver/Src/stm32f0xx_hal_pcd.c ****  __weak void HAL_PCD_ISOOUTIncompleteCallback(PCD_HandleTypeDef *hpcd, uint8_t epnum)
 515:Drivers/STM32F0xx_HAL_Driver/Src/stm32f0xx_hal_pcd.c **** {
 627              		.loc 1 515 1 is_stmt 1 view -0
 628              		.cfi_startproc
 629              		@ args = 0, pretend = 0, frame = 0
 630              		@ frame_needed = 0, uses_anonymous_args = 0
 631              		@ link register save eliminated.
 516:Drivers/STM32F0xx_HAL_Driver/Src/stm32f0xx_hal_pcd.c ****   /* Prevent unused argument(s) compilation warning */
 517:Drivers/STM32F0xx_HAL_Driver/Src/stm32f0xx_hal_pcd.c ****   UNUSED(hpcd);
 632              		.loc 1 517 3 view .LVU143
 518:Drivers/STM32F0xx_HAL_Driver/Src/stm32f0xx_hal_pcd.c ****   UNUSED(epnum);
 633              		.loc 1 518 3 view .LVU144
 519:Drivers/STM32F0xx_HAL_Driver/Src/stm32f0xx_hal_pcd.c **** 
 520:Drivers/STM32F0xx_HAL_Driver/Src/stm32f0xx_hal_pcd.c ****   /* NOTE : This function Should not be modified, when the callback is needed,
 521:Drivers/STM32F0xx_HAL_Driver/Src/stm32f0xx_hal_pcd.c ****             the HAL_PCD_ISOOUTIncompleteCallback could be implemented in the user file
 522:Drivers/STM32F0xx_HAL_Driver/Src/stm32f0xx_hal_pcd.c ****    */ 
 523:Drivers/STM32F0xx_HAL_Driver/Src/stm32f0xx_hal_pcd.c **** }
 634              		.loc 1 523 1 is_stmt 0 view .LVU145
 635              		@ sp needed
 636 0000 7047     		bx	lr
 637              		.cfi_endproc
 638              	.LFE51:
 640              		.section	.text.HAL_PCD_ISOINIncompleteCallback,"ax",%progbits
 641              		.align	1
 642              		.weak	HAL_PCD_ISOINIncompleteCallback
 643              		.syntax unified
 644              		.code	16
 645              		.thumb_func
 646              		.fpu softvfp
 648              	HAL_PCD_ISOINIncompleteCallback:
 649              	.LVL39:
 650              	.LFB52:
 524:Drivers/STM32F0xx_HAL_Driver/Src/stm32f0xx_hal_pcd.c **** 
 525:Drivers/STM32F0xx_HAL_Driver/Src/stm32f0xx_hal_pcd.c **** /**
 526:Drivers/STM32F0xx_HAL_Driver/Src/stm32f0xx_hal_pcd.c ****   * @brief  Incomplete ISO IN  callbacks
 527:Drivers/STM32F0xx_HAL_Driver/Src/stm32f0xx_hal_pcd.c ****   * @param  hpcd PCD handle
 528:Drivers/STM32F0xx_HAL_Driver/Src/stm32f0xx_hal_pcd.c ****   * @param  epnum endpoint number
 529:Drivers/STM32F0xx_HAL_Driver/Src/stm32f0xx_hal_pcd.c ****   * @retval None
 530:Drivers/STM32F0xx_HAL_Driver/Src/stm32f0xx_hal_pcd.c ****   */
 531:Drivers/STM32F0xx_HAL_Driver/Src/stm32f0xx_hal_pcd.c ****  __weak void HAL_PCD_ISOINIncompleteCallback(PCD_HandleTypeDef *hpcd, uint8_t epnum)
 532:Drivers/STM32F0xx_HAL_Driver/Src/stm32f0xx_hal_pcd.c **** {
 651              		.loc 1 532 1 is_stmt 1 view -0
 652              		.cfi_startproc
 653              		@ args = 0, pretend = 0, frame = 0
 654              		@ frame_needed = 0, uses_anonymous_args = 0
 655              		@ link register save eliminated.
 533:Drivers/STM32F0xx_HAL_Driver/Src/stm32f0xx_hal_pcd.c ****   /* Prevent unused argument(s) compilation warning */
 534:Drivers/STM32F0xx_HAL_Driver/Src/stm32f0xx_hal_pcd.c ****   UNUSED(hpcd);
 656              		.loc 1 534 3 view .LVU147
 535:Drivers/STM32F0xx_HAL_Driver/Src/stm32f0xx_hal_pcd.c ****   UNUSED(epnum);
 657              		.loc 1 535 3 view .LVU148
 536:Drivers/STM32F0xx_HAL_Driver/Src/stm32f0xx_hal_pcd.c **** 
ARM GAS  /tmp/ccHm7VQo.s 			page 23


 537:Drivers/STM32F0xx_HAL_Driver/Src/stm32f0xx_hal_pcd.c ****   /* NOTE : This function Should not be modified, when the callback is needed,
 538:Drivers/STM32F0xx_HAL_Driver/Src/stm32f0xx_hal_pcd.c ****             the HAL_PCD_ISOINIncompleteCallback could be implemented in the user file
 539:Drivers/STM32F0xx_HAL_Driver/Src/stm32f0xx_hal_pcd.c ****    */ 
 540:Drivers/STM32F0xx_HAL_Driver/Src/stm32f0xx_hal_pcd.c **** }
 658              		.loc 1 540 1 is_stmt 0 view .LVU149
 659              		@ sp needed
 660 0000 7047     		bx	lr
 661              		.cfi_endproc
 662              	.LFE52:
 664              		.section	.text.HAL_PCD_ConnectCallback,"ax",%progbits
 665              		.align	1
 666              		.weak	HAL_PCD_ConnectCallback
 667              		.syntax unified
 668              		.code	16
 669              		.thumb_func
 670              		.fpu softvfp
 672              	HAL_PCD_ConnectCallback:
 673              	.LVL40:
 674              	.LFB53:
 541:Drivers/STM32F0xx_HAL_Driver/Src/stm32f0xx_hal_pcd.c **** 
 542:Drivers/STM32F0xx_HAL_Driver/Src/stm32f0xx_hal_pcd.c **** /**
 543:Drivers/STM32F0xx_HAL_Driver/Src/stm32f0xx_hal_pcd.c ****   * @brief  Connection event callbacks
 544:Drivers/STM32F0xx_HAL_Driver/Src/stm32f0xx_hal_pcd.c ****   * @param  hpcd PCD handle
 545:Drivers/STM32F0xx_HAL_Driver/Src/stm32f0xx_hal_pcd.c ****   * @retval None
 546:Drivers/STM32F0xx_HAL_Driver/Src/stm32f0xx_hal_pcd.c ****   */
 547:Drivers/STM32F0xx_HAL_Driver/Src/stm32f0xx_hal_pcd.c ****  __weak void HAL_PCD_ConnectCallback(PCD_HandleTypeDef *hpcd)
 548:Drivers/STM32F0xx_HAL_Driver/Src/stm32f0xx_hal_pcd.c **** {
 675              		.loc 1 548 1 is_stmt 1 view -0
 676              		.cfi_startproc
 677              		@ args = 0, pretend = 0, frame = 0
 678              		@ frame_needed = 0, uses_anonymous_args = 0
 679              		@ link register save eliminated.
 549:Drivers/STM32F0xx_HAL_Driver/Src/stm32f0xx_hal_pcd.c ****   /* Prevent unused argument(s) compilation warning */
 550:Drivers/STM32F0xx_HAL_Driver/Src/stm32f0xx_hal_pcd.c ****   UNUSED(hpcd);
 680              		.loc 1 550 3 view .LVU151
 551:Drivers/STM32F0xx_HAL_Driver/Src/stm32f0xx_hal_pcd.c **** 
 552:Drivers/STM32F0xx_HAL_Driver/Src/stm32f0xx_hal_pcd.c ****   /* NOTE : This function Should not be modified, when the callback is needed,
 553:Drivers/STM32F0xx_HAL_Driver/Src/stm32f0xx_hal_pcd.c ****             the HAL_PCD_ConnectCallback could be implemented in the user file
 554:Drivers/STM32F0xx_HAL_Driver/Src/stm32f0xx_hal_pcd.c ****    */ 
 555:Drivers/STM32F0xx_HAL_Driver/Src/stm32f0xx_hal_pcd.c **** }
 681              		.loc 1 555 1 is_stmt 0 view .LVU152
 682              		@ sp needed
 683 0000 7047     		bx	lr
 684              		.cfi_endproc
 685              	.LFE53:
 687              		.section	.text.HAL_PCD_DisconnectCallback,"ax",%progbits
 688              		.align	1
 689              		.weak	HAL_PCD_DisconnectCallback
 690              		.syntax unified
 691              		.code	16
 692              		.thumb_func
 693              		.fpu softvfp
 695              	HAL_PCD_DisconnectCallback:
 696              	.LVL41:
 697              	.LFB54:
 556:Drivers/STM32F0xx_HAL_Driver/Src/stm32f0xx_hal_pcd.c **** 
 557:Drivers/STM32F0xx_HAL_Driver/Src/stm32f0xx_hal_pcd.c **** /**
ARM GAS  /tmp/ccHm7VQo.s 			page 24


 558:Drivers/STM32F0xx_HAL_Driver/Src/stm32f0xx_hal_pcd.c ****   * @brief  Disconnection event callbacks
 559:Drivers/STM32F0xx_HAL_Driver/Src/stm32f0xx_hal_pcd.c ****   * @param  hpcd PCD handle
 560:Drivers/STM32F0xx_HAL_Driver/Src/stm32f0xx_hal_pcd.c ****   * @retval None
 561:Drivers/STM32F0xx_HAL_Driver/Src/stm32f0xx_hal_pcd.c ****   */
 562:Drivers/STM32F0xx_HAL_Driver/Src/stm32f0xx_hal_pcd.c ****  __weak void HAL_PCD_DisconnectCallback(PCD_HandleTypeDef *hpcd)
 563:Drivers/STM32F0xx_HAL_Driver/Src/stm32f0xx_hal_pcd.c **** {
 698              		.loc 1 563 1 is_stmt 1 view -0
 699              		.cfi_startproc
 700              		@ args = 0, pretend = 0, frame = 0
 701              		@ frame_needed = 0, uses_anonymous_args = 0
 702              		@ link register save eliminated.
 564:Drivers/STM32F0xx_HAL_Driver/Src/stm32f0xx_hal_pcd.c ****   /* Prevent unused argument(s) compilation warning */
 565:Drivers/STM32F0xx_HAL_Driver/Src/stm32f0xx_hal_pcd.c ****   UNUSED(hpcd);
 703              		.loc 1 565 3 view .LVU154
 566:Drivers/STM32F0xx_HAL_Driver/Src/stm32f0xx_hal_pcd.c **** 
 567:Drivers/STM32F0xx_HAL_Driver/Src/stm32f0xx_hal_pcd.c ****   /* NOTE : This function Should not be modified, when the callback is needed,
 568:Drivers/STM32F0xx_HAL_Driver/Src/stm32f0xx_hal_pcd.c ****             the HAL_PCD_DisconnectCallback could be implemented in the user file
 569:Drivers/STM32F0xx_HAL_Driver/Src/stm32f0xx_hal_pcd.c ****    */ 
 570:Drivers/STM32F0xx_HAL_Driver/Src/stm32f0xx_hal_pcd.c **** }
 704              		.loc 1 570 1 is_stmt 0 view .LVU155
 705              		@ sp needed
 706 0000 7047     		bx	lr
 707              		.cfi_endproc
 708              	.LFE54:
 710              		.section	.text.HAL_PCD_DevConnect,"ax",%progbits
 711              		.align	1
 712              		.global	HAL_PCD_DevConnect
 713              		.syntax unified
 714              		.code	16
 715              		.thumb_func
 716              		.fpu softvfp
 718              	HAL_PCD_DevConnect:
 719              	.LVL42:
 720              	.LFB55:
 571:Drivers/STM32F0xx_HAL_Driver/Src/stm32f0xx_hal_pcd.c **** /**
 572:Drivers/STM32F0xx_HAL_Driver/Src/stm32f0xx_hal_pcd.c ****   * @}
 573:Drivers/STM32F0xx_HAL_Driver/Src/stm32f0xx_hal_pcd.c ****   */
 574:Drivers/STM32F0xx_HAL_Driver/Src/stm32f0xx_hal_pcd.c ****     
 575:Drivers/STM32F0xx_HAL_Driver/Src/stm32f0xx_hal_pcd.c **** /** @defgroup PCD_Exported_Functions_Group3 Peripheral Control functions 
 576:Drivers/STM32F0xx_HAL_Driver/Src/stm32f0xx_hal_pcd.c ****  *  @brief   management functions 
 577:Drivers/STM32F0xx_HAL_Driver/Src/stm32f0xx_hal_pcd.c ****  *
 578:Drivers/STM32F0xx_HAL_Driver/Src/stm32f0xx_hal_pcd.c **** @verbatim   
 579:Drivers/STM32F0xx_HAL_Driver/Src/stm32f0xx_hal_pcd.c ****  ===============================================================================
 580:Drivers/STM32F0xx_HAL_Driver/Src/stm32f0xx_hal_pcd.c ****                       ##### Peripheral Control functions #####
 581:Drivers/STM32F0xx_HAL_Driver/Src/stm32f0xx_hal_pcd.c ****  ===============================================================================  
 582:Drivers/STM32F0xx_HAL_Driver/Src/stm32f0xx_hal_pcd.c ****     [..]
 583:Drivers/STM32F0xx_HAL_Driver/Src/stm32f0xx_hal_pcd.c ****     This subsection provides a set of functions allowing to control the PCD data 
 584:Drivers/STM32F0xx_HAL_Driver/Src/stm32f0xx_hal_pcd.c ****     transfers.
 585:Drivers/STM32F0xx_HAL_Driver/Src/stm32f0xx_hal_pcd.c **** 
 586:Drivers/STM32F0xx_HAL_Driver/Src/stm32f0xx_hal_pcd.c **** @endverbatim
 587:Drivers/STM32F0xx_HAL_Driver/Src/stm32f0xx_hal_pcd.c ****   * @{
 588:Drivers/STM32F0xx_HAL_Driver/Src/stm32f0xx_hal_pcd.c ****   */
 589:Drivers/STM32F0xx_HAL_Driver/Src/stm32f0xx_hal_pcd.c **** 
 590:Drivers/STM32F0xx_HAL_Driver/Src/stm32f0xx_hal_pcd.c **** /**
 591:Drivers/STM32F0xx_HAL_Driver/Src/stm32f0xx_hal_pcd.c ****   * @brief  Connect the USB device 
 592:Drivers/STM32F0xx_HAL_Driver/Src/stm32f0xx_hal_pcd.c ****   * @param  hpcd PCD handle
 593:Drivers/STM32F0xx_HAL_Driver/Src/stm32f0xx_hal_pcd.c ****   * @retval HAL status
ARM GAS  /tmp/ccHm7VQo.s 			page 25


 594:Drivers/STM32F0xx_HAL_Driver/Src/stm32f0xx_hal_pcd.c ****   */
 595:Drivers/STM32F0xx_HAL_Driver/Src/stm32f0xx_hal_pcd.c **** HAL_StatusTypeDef HAL_PCD_DevConnect(PCD_HandleTypeDef *hpcd)
 596:Drivers/STM32F0xx_HAL_Driver/Src/stm32f0xx_hal_pcd.c **** {
 721              		.loc 1 596 1 is_stmt 1 view -0
 722              		.cfi_startproc
 723              		@ args = 0, pretend = 0, frame = 0
 724              		@ frame_needed = 0, uses_anonymous_args = 0
 725              		.loc 1 596 1 is_stmt 0 view .LVU157
 726 0000 30B5     		push	{r4, r5, lr}
 727              	.LCFI3:
 728              		.cfi_def_cfa_offset 12
 729              		.cfi_offset 4, -12
 730              		.cfi_offset 5, -8
 731              		.cfi_offset 14, -4
 597:Drivers/STM32F0xx_HAL_Driver/Src/stm32f0xx_hal_pcd.c ****   __HAL_LOCK(hpcd); 
 732              		.loc 1 597 3 is_stmt 1 view .LVU158
 733              		.loc 1 597 3 view .LVU159
 734 0002 F423     		movs	r3, #244
 735 0004 5B00     		lsls	r3, r3, #1
 736 0006 C35C     		ldrb	r3, [r0, r3]
 737 0008 012B     		cmp	r3, #1
 738 000a 0ED0     		beq	.L37
 739              		.loc 1 597 3 discriminator 2 view .LVU160
 740 000c F422     		movs	r2, #244
 741 000e 5200     		lsls	r2, r2, #1
 742 0010 0123     		movs	r3, #1
 743 0012 8354     		strb	r3, [r0, r2]
 598:Drivers/STM32F0xx_HAL_Driver/Src/stm32f0xx_hal_pcd.c ****   
 599:Drivers/STM32F0xx_HAL_Driver/Src/stm32f0xx_hal_pcd.c ****   /* Enabling DP Pull-Down bit to Connect internal pull-up on USB DP line */
 600:Drivers/STM32F0xx_HAL_Driver/Src/stm32f0xx_hal_pcd.c ****   hpcd->Instance->BCDR |= USB_BCDR_DPPU;
 744              		.loc 1 600 3 discriminator 2 view .LVU161
 745              		.loc 1 600 7 is_stmt 0 discriminator 2 view .LVU162
 746 0014 0468     		ldr	r4, [r0]
 747              		.loc 1 600 24 discriminator 2 view .LVU163
 748 0016 5821     		movs	r1, #88
 749 0018 635A     		ldrh	r3, [r4, r1]
 750 001a 054D     		ldr	r5, .L38
 751 001c 2B43     		orrs	r3, r5
 752 001e 9BB2     		uxth	r3, r3
 753 0020 6352     		strh	r3, [r4, r1]
 601:Drivers/STM32F0xx_HAL_Driver/Src/stm32f0xx_hal_pcd.c ****   
 602:Drivers/STM32F0xx_HAL_Driver/Src/stm32f0xx_hal_pcd.c ****   __HAL_UNLOCK(hpcd); 
 754              		.loc 1 602 3 is_stmt 1 discriminator 2 view .LVU164
 755              		.loc 1 602 3 discriminator 2 view .LVU165
 756 0022 0023     		movs	r3, #0
 757 0024 8354     		strb	r3, [r0, r2]
 603:Drivers/STM32F0xx_HAL_Driver/Src/stm32f0xx_hal_pcd.c ****   return HAL_OK;
 758              		.loc 1 603 3 discriminator 2 view .LVU166
 759              		.loc 1 603 10 is_stmt 0 discriminator 2 view .LVU167
 760 0026 0020     		movs	r0, #0
 761              	.LVL43:
 762              	.L36:
 604:Drivers/STM32F0xx_HAL_Driver/Src/stm32f0xx_hal_pcd.c **** }
 763              		.loc 1 604 1 view .LVU168
 764              		@ sp needed
 765 0028 30BD     		pop	{r4, r5, pc}
 766              	.LVL44:
ARM GAS  /tmp/ccHm7VQo.s 			page 26


 767              	.L37:
 597:Drivers/STM32F0xx_HAL_Driver/Src/stm32f0xx_hal_pcd.c ****   
 768              		.loc 1 597 3 view .LVU169
 769 002a 0220     		movs	r0, #2
 770              	.LVL45:
 597:Drivers/STM32F0xx_HAL_Driver/Src/stm32f0xx_hal_pcd.c ****   
 771              		.loc 1 597 3 view .LVU170
 772 002c FCE7     		b	.L36
 773              	.L39:
 774 002e C046     		.align	2
 775              	.L38:
 776 0030 0080FFFF 		.word	-32768
 777              		.cfi_endproc
 778              	.LFE55:
 780              		.section	.text.HAL_PCD_DevDisconnect,"ax",%progbits
 781              		.align	1
 782              		.global	HAL_PCD_DevDisconnect
 783              		.syntax unified
 784              		.code	16
 785              		.thumb_func
 786              		.fpu softvfp
 788              	HAL_PCD_DevDisconnect:
 789              	.LVL46:
 790              	.LFB56:
 605:Drivers/STM32F0xx_HAL_Driver/Src/stm32f0xx_hal_pcd.c **** 
 606:Drivers/STM32F0xx_HAL_Driver/Src/stm32f0xx_hal_pcd.c **** /**
 607:Drivers/STM32F0xx_HAL_Driver/Src/stm32f0xx_hal_pcd.c ****   * @brief  Disconnect the USB device 
 608:Drivers/STM32F0xx_HAL_Driver/Src/stm32f0xx_hal_pcd.c ****   * @param  hpcd PCD handle
 609:Drivers/STM32F0xx_HAL_Driver/Src/stm32f0xx_hal_pcd.c ****   * @retval HAL status
 610:Drivers/STM32F0xx_HAL_Driver/Src/stm32f0xx_hal_pcd.c ****   */
 611:Drivers/STM32F0xx_HAL_Driver/Src/stm32f0xx_hal_pcd.c **** HAL_StatusTypeDef HAL_PCD_DevDisconnect(PCD_HandleTypeDef *hpcd)
 612:Drivers/STM32F0xx_HAL_Driver/Src/stm32f0xx_hal_pcd.c **** {
 791              		.loc 1 612 1 is_stmt 1 view -0
 792              		.cfi_startproc
 793              		@ args = 0, pretend = 0, frame = 0
 794              		@ frame_needed = 0, uses_anonymous_args = 0
 795              		.loc 1 612 1 is_stmt 0 view .LVU172
 796 0000 10B5     		push	{r4, lr}
 797              	.LCFI4:
 798              		.cfi_def_cfa_offset 8
 799              		.cfi_offset 4, -8
 800              		.cfi_offset 14, -4
 613:Drivers/STM32F0xx_HAL_Driver/Src/stm32f0xx_hal_pcd.c ****   __HAL_LOCK(hpcd); 
 801              		.loc 1 613 3 is_stmt 1 view .LVU173
 802              		.loc 1 613 3 view .LVU174
 803 0002 F423     		movs	r3, #244
 804 0004 5B00     		lsls	r3, r3, #1
 805 0006 C35C     		ldrb	r3, [r0, r3]
 806 0008 012B     		cmp	r3, #1
 807 000a 0DD0     		beq	.L42
 808              		.loc 1 613 3 discriminator 2 view .LVU175
 809 000c F422     		movs	r2, #244
 810 000e 5200     		lsls	r2, r2, #1
 811 0010 0123     		movs	r3, #1
 812 0012 8354     		strb	r3, [r0, r2]
 614:Drivers/STM32F0xx_HAL_Driver/Src/stm32f0xx_hal_pcd.c ****   
 615:Drivers/STM32F0xx_HAL_Driver/Src/stm32f0xx_hal_pcd.c ****   /* Disable DP Pull-Down bit*/
ARM GAS  /tmp/ccHm7VQo.s 			page 27


 616:Drivers/STM32F0xx_HAL_Driver/Src/stm32f0xx_hal_pcd.c ****    hpcd->Instance->BCDR &= (uint16_t)(~(USB_BCDR_DPPU));
 813              		.loc 1 616 4 discriminator 2 view .LVU176
 814              		.loc 1 616 8 is_stmt 0 discriminator 2 view .LVU177
 815 0014 0468     		ldr	r4, [r0]
 816              		.loc 1 616 25 discriminator 2 view .LVU178
 817 0016 5821     		movs	r1, #88
 818 0018 635A     		ldrh	r3, [r4, r1]
 819 001a 5B04     		lsls	r3, r3, #17
 820 001c 5B0C     		lsrs	r3, r3, #17
 821 001e 6352     		strh	r3, [r4, r1]
 617:Drivers/STM32F0xx_HAL_Driver/Src/stm32f0xx_hal_pcd.c ****   
 618:Drivers/STM32F0xx_HAL_Driver/Src/stm32f0xx_hal_pcd.c ****   __HAL_UNLOCK(hpcd); 
 822              		.loc 1 618 3 is_stmt 1 discriminator 2 view .LVU179
 823              		.loc 1 618 3 discriminator 2 view .LVU180
 824 0020 0023     		movs	r3, #0
 825 0022 8354     		strb	r3, [r0, r2]
 619:Drivers/STM32F0xx_HAL_Driver/Src/stm32f0xx_hal_pcd.c ****   return HAL_OK;
 826              		.loc 1 619 3 discriminator 2 view .LVU181
 827              		.loc 1 619 10 is_stmt 0 discriminator 2 view .LVU182
 828 0024 0020     		movs	r0, #0
 829              	.LVL47:
 830              	.L41:
 620:Drivers/STM32F0xx_HAL_Driver/Src/stm32f0xx_hal_pcd.c **** }
 831              		.loc 1 620 1 view .LVU183
 832              		@ sp needed
 833 0026 10BD     		pop	{r4, pc}
 834              	.LVL48:
 835              	.L42:
 613:Drivers/STM32F0xx_HAL_Driver/Src/stm32f0xx_hal_pcd.c ****   
 836              		.loc 1 613 3 view .LVU184
 837 0028 0220     		movs	r0, #2
 838              	.LVL49:
 613:Drivers/STM32F0xx_HAL_Driver/Src/stm32f0xx_hal_pcd.c ****   
 839              		.loc 1 613 3 view .LVU185
 840 002a FCE7     		b	.L41
 841              		.cfi_endproc
 842              	.LFE56:
 844              		.section	.text.HAL_PCD_SetAddress,"ax",%progbits
 845              		.align	1
 846              		.global	HAL_PCD_SetAddress
 847              		.syntax unified
 848              		.code	16
 849              		.thumb_func
 850              		.fpu softvfp
 852              	HAL_PCD_SetAddress:
 853              	.LVL50:
 854              	.LFB57:
 621:Drivers/STM32F0xx_HAL_Driver/Src/stm32f0xx_hal_pcd.c **** 
 622:Drivers/STM32F0xx_HAL_Driver/Src/stm32f0xx_hal_pcd.c **** /**
 623:Drivers/STM32F0xx_HAL_Driver/Src/stm32f0xx_hal_pcd.c ****   * @brief  Set the USB Device address 
 624:Drivers/STM32F0xx_HAL_Driver/Src/stm32f0xx_hal_pcd.c ****   * @param  hpcd PCD handle
 625:Drivers/STM32F0xx_HAL_Driver/Src/stm32f0xx_hal_pcd.c ****   * @param  address new device address
 626:Drivers/STM32F0xx_HAL_Driver/Src/stm32f0xx_hal_pcd.c ****   * @retval HAL status
 627:Drivers/STM32F0xx_HAL_Driver/Src/stm32f0xx_hal_pcd.c ****   */
 628:Drivers/STM32F0xx_HAL_Driver/Src/stm32f0xx_hal_pcd.c **** HAL_StatusTypeDef HAL_PCD_SetAddress(PCD_HandleTypeDef *hpcd, uint8_t address)
 629:Drivers/STM32F0xx_HAL_Driver/Src/stm32f0xx_hal_pcd.c **** {
 855              		.loc 1 629 1 is_stmt 1 view -0
ARM GAS  /tmp/ccHm7VQo.s 			page 28


 856              		.cfi_startproc
 857              		@ args = 0, pretend = 0, frame = 0
 858              		@ frame_needed = 0, uses_anonymous_args = 0
 859              		@ link register save eliminated.
 630:Drivers/STM32F0xx_HAL_Driver/Src/stm32f0xx_hal_pcd.c ****    __HAL_LOCK(hpcd); 
 860              		.loc 1 630 4 view .LVU187
 861              		.loc 1 630 4 view .LVU188
 862 0000 F423     		movs	r3, #244
 863 0002 5B00     		lsls	r3, r3, #1
 864 0004 C35C     		ldrb	r3, [r0, r3]
 865 0006 012B     		cmp	r3, #1
 866 0008 13D0     		beq	.L47
 867              		.loc 1 630 4 discriminator 2 view .LVU189
 868 000a F423     		movs	r3, #244
 869 000c 5B00     		lsls	r3, r3, #1
 870 000e 0122     		movs	r2, #1
 871 0010 C254     		strb	r2, [r0, r3]
 631:Drivers/STM32F0xx_HAL_Driver/Src/stm32f0xx_hal_pcd.c **** 
 632:Drivers/STM32F0xx_HAL_Driver/Src/stm32f0xx_hal_pcd.c ****    if(address == 0U) 
 872              		.loc 1 632 4 discriminator 2 view .LVU190
 873              		.loc 1 632 6 is_stmt 0 discriminator 2 view .LVU191
 874 0012 0029     		cmp	r1, #0
 875 0014 0AD1     		bne	.L45
 633:Drivers/STM32F0xx_HAL_Driver/Src/stm32f0xx_hal_pcd.c ****    {
 634:Drivers/STM32F0xx_HAL_Driver/Src/stm32f0xx_hal_pcd.c ****      /* set device address and enable function */
 635:Drivers/STM32F0xx_HAL_Driver/Src/stm32f0xx_hal_pcd.c ****      hpcd->Instance->DADDR = USB_DADDR_EF;
 876              		.loc 1 635 6 is_stmt 1 view .LVU192
 877              		.loc 1 635 28 is_stmt 0 view .LVU193
 878 0016 9D3B     		subs	r3, r3, #157
 879 0018 FF3B     		subs	r3, r3, #255
 880 001a 7F32     		adds	r2, r2, #127
 881 001c 0168     		ldr	r1, [r0]
 882              	.LVL51:
 883              		.loc 1 635 28 view .LVU194
 884 001e CA52     		strh	r2, [r1, r3]
 885              	.L46:
 636:Drivers/STM32F0xx_HAL_Driver/Src/stm32f0xx_hal_pcd.c ****    }
 637:Drivers/STM32F0xx_HAL_Driver/Src/stm32f0xx_hal_pcd.c ****    else /* USB Address will be applied later */
 638:Drivers/STM32F0xx_HAL_Driver/Src/stm32f0xx_hal_pcd.c ****    {
 639:Drivers/STM32F0xx_HAL_Driver/Src/stm32f0xx_hal_pcd.c ****      hpcd->USB_Address = address;
 640:Drivers/STM32F0xx_HAL_Driver/Src/stm32f0xx_hal_pcd.c ****    }
 641:Drivers/STM32F0xx_HAL_Driver/Src/stm32f0xx_hal_pcd.c **** 
 642:Drivers/STM32F0xx_HAL_Driver/Src/stm32f0xx_hal_pcd.c ****   __HAL_UNLOCK(hpcd);   
 886              		.loc 1 642 3 is_stmt 1 view .LVU195
 887              		.loc 1 642 3 view .LVU196
 888 0020 F423     		movs	r3, #244
 889 0022 5B00     		lsls	r3, r3, #1
 890 0024 0022     		movs	r2, #0
 891 0026 C254     		strb	r2, [r0, r3]
 643:Drivers/STM32F0xx_HAL_Driver/Src/stm32f0xx_hal_pcd.c ****   return HAL_OK;
 892              		.loc 1 643 3 view .LVU197
 893              		.loc 1 643 10 is_stmt 0 view .LVU198
 894 0028 0020     		movs	r0, #0
 895              	.LVL52:
 896              	.L44:
 644:Drivers/STM32F0xx_HAL_Driver/Src/stm32f0xx_hal_pcd.c **** }
 897              		.loc 1 644 1 view .LVU199
ARM GAS  /tmp/ccHm7VQo.s 			page 29


 898              		@ sp needed
 899 002a 7047     		bx	lr
 900              	.LVL53:
 901              	.L45:
 639:Drivers/STM32F0xx_HAL_Driver/Src/stm32f0xx_hal_pcd.c ****    }
 902              		.loc 1 639 6 is_stmt 1 view .LVU200
 639:Drivers/STM32F0xx_HAL_Driver/Src/stm32f0xx_hal_pcd.c ****    }
 903              		.loc 1 639 24 is_stmt 0 view .LVU201
 904 002c 2423     		movs	r3, #36
 905 002e C154     		strb	r1, [r0, r3]
 906 0030 F6E7     		b	.L46
 907              	.L47:
 630:Drivers/STM32F0xx_HAL_Driver/Src/stm32f0xx_hal_pcd.c **** 
 908              		.loc 1 630 4 view .LVU202
 909 0032 0220     		movs	r0, #2
 910              	.LVL54:
 630:Drivers/STM32F0xx_HAL_Driver/Src/stm32f0xx_hal_pcd.c **** 
 911              		.loc 1 630 4 view .LVU203
 912 0034 F9E7     		b	.L44
 913              		.cfi_endproc
 914              	.LFE57:
 916              		.section	.text.HAL_PCD_EP_Open,"ax",%progbits
 917              		.align	1
 918              		.global	HAL_PCD_EP_Open
 919              		.syntax unified
 920              		.code	16
 921              		.thumb_func
 922              		.fpu softvfp
 924              	HAL_PCD_EP_Open:
 925              	.LVL55:
 926              	.LFB58:
 645:Drivers/STM32F0xx_HAL_Driver/Src/stm32f0xx_hal_pcd.c **** /**
 646:Drivers/STM32F0xx_HAL_Driver/Src/stm32f0xx_hal_pcd.c ****   * @brief  Open and configure an endpoint
 647:Drivers/STM32F0xx_HAL_Driver/Src/stm32f0xx_hal_pcd.c ****   * @param  hpcd PCD handle
 648:Drivers/STM32F0xx_HAL_Driver/Src/stm32f0xx_hal_pcd.c ****   * @param  ep_addr endpoint address
 649:Drivers/STM32F0xx_HAL_Driver/Src/stm32f0xx_hal_pcd.c ****   * @param  ep_mps endpoint max packert size
 650:Drivers/STM32F0xx_HAL_Driver/Src/stm32f0xx_hal_pcd.c ****   * @param  ep_type endpoint type   
 651:Drivers/STM32F0xx_HAL_Driver/Src/stm32f0xx_hal_pcd.c ****   * @retval HAL status
 652:Drivers/STM32F0xx_HAL_Driver/Src/stm32f0xx_hal_pcd.c ****   */
 653:Drivers/STM32F0xx_HAL_Driver/Src/stm32f0xx_hal_pcd.c **** HAL_StatusTypeDef HAL_PCD_EP_Open(PCD_HandleTypeDef *hpcd, uint8_t ep_addr, uint16_t ep_mps, uint8_
 654:Drivers/STM32F0xx_HAL_Driver/Src/stm32f0xx_hal_pcd.c **** {
 927              		.loc 1 654 1 is_stmt 1 view -0
 928              		.cfi_startproc
 929              		@ args = 0, pretend = 0, frame = 0
 930              		@ frame_needed = 0, uses_anonymous_args = 0
 931              		.loc 1 654 1 is_stmt 0 view .LVU205
 932 0000 F0B5     		push	{r4, r5, r6, r7, lr}
 933              	.LCFI5:
 934              		.cfi_def_cfa_offset 20
 935              		.cfi_offset 4, -20
 936              		.cfi_offset 5, -16
 937              		.cfi_offset 6, -12
 938              		.cfi_offset 7, -8
 939              		.cfi_offset 14, -4
 655:Drivers/STM32F0xx_HAL_Driver/Src/stm32f0xx_hal_pcd.c ****   HAL_StatusTypeDef  ret = HAL_OK;
 940              		.loc 1 655 3 is_stmt 1 view .LVU206
 941              	.LVL56:
ARM GAS  /tmp/ccHm7VQo.s 			page 30


 656:Drivers/STM32F0xx_HAL_Driver/Src/stm32f0xx_hal_pcd.c ****   PCD_EPTypeDef *ep;
 942              		.loc 1 656 3 view .LVU207
 657:Drivers/STM32F0xx_HAL_Driver/Src/stm32f0xx_hal_pcd.c ****   
 658:Drivers/STM32F0xx_HAL_Driver/Src/stm32f0xx_hal_pcd.c ****   if ((ep_addr & 0x80U) == 0x80U)
 943              		.loc 1 658 3 view .LVU208
 944              		.loc 1 658 25 is_stmt 0 view .LVU209
 945 0002 4DB2     		sxtb	r5, r1
 946              		.loc 1 658 6 view .LVU210
 947 0004 002D     		cmp	r5, #0
 948 0006 2BDB     		blt	.L73
 659:Drivers/STM32F0xx_HAL_Driver/Src/stm32f0xx_hal_pcd.c ****   {
 660:Drivers/STM32F0xx_HAL_Driver/Src/stm32f0xx_hal_pcd.c ****     ep = &hpcd->IN_ep[ep_addr & 0x7FU];
 661:Drivers/STM32F0xx_HAL_Driver/Src/stm32f0xx_hal_pcd.c ****   }
 662:Drivers/STM32F0xx_HAL_Driver/Src/stm32f0xx_hal_pcd.c ****   else
 663:Drivers/STM32F0xx_HAL_Driver/Src/stm32f0xx_hal_pcd.c ****   {
 664:Drivers/STM32F0xx_HAL_Driver/Src/stm32f0xx_hal_pcd.c ****     ep = &hpcd->OUT_ep[ep_addr & 0x7FU];
 949              		.loc 1 664 5 is_stmt 1 view .LVU211
 950              		.loc 1 664 32 is_stmt 0 view .LVU212
 951 0008 7F26     		movs	r6, #127
 952 000a 0E40     		ands	r6, r1
 953              		.loc 1 664 8 view .LVU213
 954 000c F400     		lsls	r4, r6, #3
 955 000e A41B     		subs	r4, r4, r6
 956 0010 A400     		lsls	r4, r4, #2
 957 0012 0934     		adds	r4, r4, #9
 958 0014 FF34     		adds	r4, r4, #255
 959 0016 0419     		adds	r4, r0, r4
 960              	.LVL57:
 961              	.L50:
 665:Drivers/STM32F0xx_HAL_Driver/Src/stm32f0xx_hal_pcd.c ****   }
 666:Drivers/STM32F0xx_HAL_Driver/Src/stm32f0xx_hal_pcd.c ****   ep->num   = ep_addr & 0x7FU;
 962              		.loc 1 666 3 is_stmt 1 view .LVU214
 963              		.loc 1 666 23 is_stmt 0 view .LVU215
 964 0018 7F26     		movs	r6, #127
 965 001a 3140     		ands	r1, r6
 966              	.LVL58:
 967              		.loc 1 666 13 view .LVU216
 968 001c 2170     		strb	r1, [r4]
 667:Drivers/STM32F0xx_HAL_Driver/Src/stm32f0xx_hal_pcd.c ****   
 668:Drivers/STM32F0xx_HAL_Driver/Src/stm32f0xx_hal_pcd.c ****   ep->is_in = (0x80U & ep_addr) != 0U;
 969              		.loc 1 668 3 is_stmt 1 view .LVU217
 970              		.loc 1 668 33 is_stmt 0 view .LVU218
 971 001e ED0F     		lsrs	r5, r5, #31
 972              	.LVL59:
 973              		.loc 1 668 13 view .LVU219
 974 0020 6570     		strb	r5, [r4, #1]
 669:Drivers/STM32F0xx_HAL_Driver/Src/stm32f0xx_hal_pcd.c ****   ep->maxpacket = ep_mps;
 975              		.loc 1 669 3 is_stmt 1 view .LVU220
 976              		.loc 1 669 17 is_stmt 0 view .LVU221
 977 0022 E260     		str	r2, [r4, #12]
 670:Drivers/STM32F0xx_HAL_Driver/Src/stm32f0xx_hal_pcd.c ****   ep->type = ep_type;
 978              		.loc 1 670 3 is_stmt 1 view .LVU222
 979              		.loc 1 670 12 is_stmt 0 view .LVU223
 980 0024 E370     		strb	r3, [r4, #3]
 671:Drivers/STM32F0xx_HAL_Driver/Src/stm32f0xx_hal_pcd.c ****   
 672:Drivers/STM32F0xx_HAL_Driver/Src/stm32f0xx_hal_pcd.c ****   __HAL_LOCK(hpcd); 
 981              		.loc 1 672 3 is_stmt 1 view .LVU224
ARM GAS  /tmp/ccHm7VQo.s 			page 31


 982              		.loc 1 672 3 view .LVU225
 983 0026 F423     		movs	r3, #244
 984              	.LVL60:
 985              		.loc 1 672 3 is_stmt 0 view .LVU226
 986 0028 5B00     		lsls	r3, r3, #1
 987 002a C35C     		ldrb	r3, [r0, r3]
 988 002c 012B     		cmp	r3, #1
 989 002e 00D1     		bne	.LCB755
 990 0030 50E1     		b	.L72	@long jump
 991              	.LCB755:
 992              		.loc 1 672 3 is_stmt 1 discriminator 2 view .LVU227
 993 0032 F423     		movs	r3, #244
 994 0034 5B00     		lsls	r3, r3, #1
 995 0036 0122     		movs	r2, #1
 996              	.LVL61:
 997              		.loc 1 672 3 is_stmt 0 discriminator 2 view .LVU228
 998 0038 C254     		strb	r2, [r0, r3]
 999              	.LVL62:
 673:Drivers/STM32F0xx_HAL_Driver/Src/stm32f0xx_hal_pcd.c **** 
 674:Drivers/STM32F0xx_HAL_Driver/Src/stm32f0xx_hal_pcd.c ****   /* initialize Endpoint */
 675:Drivers/STM32F0xx_HAL_Driver/Src/stm32f0xx_hal_pcd.c ****   switch (ep->type)
 1000              		.loc 1 675 3 is_stmt 1 discriminator 2 view .LVU229
 1001              		.loc 1 675 13 is_stmt 0 discriminator 2 view .LVU230
 1002 003a E378     		ldrb	r3, [r4, #3]
 1003              		.loc 1 675 3 discriminator 2 view .LVU231
 1004 003c 022B     		cmp	r3, #2
 1005 003e 00D1     		bne	.LCB768
 1006 0040 67E0     		b	.L52	@long jump
 1007              	.LCB768:
 1008              		.loc 1 675 3 view .LVU232
 1009 0042 15D8     		bhi	.L53
 1010 0044 002B     		cmp	r3, #0
 1011 0046 1FD0     		beq	.L54
 1012 0048 012B     		cmp	r3, #1
 1013 004a 26D1     		bne	.L56
 676:Drivers/STM32F0xx_HAL_Driver/Src/stm32f0xx_hal_pcd.c ****   {
 677:Drivers/STM32F0xx_HAL_Driver/Src/stm32f0xx_hal_pcd.c ****   case PCD_EP_TYPE_CTRL:
 678:Drivers/STM32F0xx_HAL_Driver/Src/stm32f0xx_hal_pcd.c ****     PCD_SET_EPTYPE(hpcd->Instance, ep->num, USB_EP_CONTROL);
 679:Drivers/STM32F0xx_HAL_Driver/Src/stm32f0xx_hal_pcd.c ****     break;
 680:Drivers/STM32F0xx_HAL_Driver/Src/stm32f0xx_hal_pcd.c ****   case PCD_EP_TYPE_BULK:
 681:Drivers/STM32F0xx_HAL_Driver/Src/stm32f0xx_hal_pcd.c ****     PCD_SET_EPTYPE(hpcd->Instance, ep->num, USB_EP_BULK);
 682:Drivers/STM32F0xx_HAL_Driver/Src/stm32f0xx_hal_pcd.c ****     break;
 683:Drivers/STM32F0xx_HAL_Driver/Src/stm32f0xx_hal_pcd.c ****   case PCD_EP_TYPE_INTR:
 684:Drivers/STM32F0xx_HAL_Driver/Src/stm32f0xx_hal_pcd.c ****     PCD_SET_EPTYPE(hpcd->Instance, ep->num, USB_EP_INTERRUPT);
 685:Drivers/STM32F0xx_HAL_Driver/Src/stm32f0xx_hal_pcd.c ****     break;
 686:Drivers/STM32F0xx_HAL_Driver/Src/stm32f0xx_hal_pcd.c ****   case PCD_EP_TYPE_ISOC:
 687:Drivers/STM32F0xx_HAL_Driver/Src/stm32f0xx_hal_pcd.c ****     PCD_SET_EPTYPE(hpcd->Instance, ep->num, USB_EP_ISOCHRONOUS);
 1014              		.loc 1 687 5 is_stmt 1 view .LVU233
 1015 004c 0568     		ldr	r5, [r0]
 1016 004e 2378     		ldrb	r3, [r4]
 1017 0050 9B00     		lsls	r3, r3, #2
 1018 0052 EA5A     		ldrh	r2, [r5, r3]
 1019 0054 A049     		ldr	r1, .L74
 1020 0056 1140     		ands	r1, r2
 1021 0058 A04A     		ldr	r2, .L74+4
 1022 005a 0A43     		orrs	r2, r1
 1023 005c EA52     		strh	r2, [r5, r3]
ARM GAS  /tmp/ccHm7VQo.s 			page 32


 688:Drivers/STM32F0xx_HAL_Driver/Src/stm32f0xx_hal_pcd.c ****     break;
 1024              		.loc 1 688 5 view .LVU234
 1025 005e 1CE0     		b	.L56
 1026              	.LVL63:
 1027              	.L73:
 660:Drivers/STM32F0xx_HAL_Driver/Src/stm32f0xx_hal_pcd.c ****   }
 1028              		.loc 1 660 5 view .LVU235
 660:Drivers/STM32F0xx_HAL_Driver/Src/stm32f0xx_hal_pcd.c ****   }
 1029              		.loc 1 660 31 is_stmt 0 view .LVU236
 1030 0060 7F26     		movs	r6, #127
 1031 0062 0E40     		ands	r6, r1
 660:Drivers/STM32F0xx_HAL_Driver/Src/stm32f0xx_hal_pcd.c ****   }
 1032              		.loc 1 660 8 view .LVU237
 1033 0064 F400     		lsls	r4, r6, #3
 1034 0066 A41B     		subs	r4, r4, r6
 1035 0068 A400     		lsls	r4, r4, #2
 1036 006a 2834     		adds	r4, r4, #40
 1037 006c 0419     		adds	r4, r0, r4
 1038              	.LVL64:
 660:Drivers/STM32F0xx_HAL_Driver/Src/stm32f0xx_hal_pcd.c ****   }
 1039              		.loc 1 660 8 view .LVU238
 1040 006e D3E7     		b	.L50
 1041              	.LVL65:
 1042              	.L53:
 675:Drivers/STM32F0xx_HAL_Driver/Src/stm32f0xx_hal_pcd.c ****   {
 1043              		.loc 1 675 3 view .LVU239
 1044 0070 032B     		cmp	r3, #3
 1045 0072 12D1     		bne	.L56
 684:Drivers/STM32F0xx_HAL_Driver/Src/stm32f0xx_hal_pcd.c ****     break;
 1046              		.loc 1 684 5 is_stmt 1 view .LVU240
 1047 0074 0568     		ldr	r5, [r0]
 1048 0076 2378     		ldrb	r3, [r4]
 1049 0078 9B00     		lsls	r3, r3, #2
 1050 007a EA5A     		ldrh	r2, [r5, r3]
 1051 007c 9649     		ldr	r1, .L74
 1052 007e 1140     		ands	r1, r2
 1053 0080 974A     		ldr	r2, .L74+8
 1054 0082 0A43     		orrs	r2, r1
 1055 0084 EA52     		strh	r2, [r5, r3]
 685:Drivers/STM32F0xx_HAL_Driver/Src/stm32f0xx_hal_pcd.c ****   case PCD_EP_TYPE_ISOC:
 1056              		.loc 1 685 5 view .LVU241
 1057 0086 08E0     		b	.L56
 1058              	.L54:
 678:Drivers/STM32F0xx_HAL_Driver/Src/stm32f0xx_hal_pcd.c ****     break;
 1059              		.loc 1 678 5 view .LVU242
 1060 0088 0568     		ldr	r5, [r0]
 1061 008a 2378     		ldrb	r3, [r4]
 1062 008c 9B00     		lsls	r3, r3, #2
 1063 008e EA5A     		ldrh	r2, [r5, r3]
 1064 0090 9149     		ldr	r1, .L74
 1065 0092 1140     		ands	r1, r2
 1066 0094 934A     		ldr	r2, .L74+12
 1067 0096 0A43     		orrs	r2, r1
 1068 0098 EA52     		strh	r2, [r5, r3]
 679:Drivers/STM32F0xx_HAL_Driver/Src/stm32f0xx_hal_pcd.c ****   case PCD_EP_TYPE_BULK:
 1069              		.loc 1 679 5 view .LVU243
 1070              	.L56:
ARM GAS  /tmp/ccHm7VQo.s 			page 33


 689:Drivers/STM32F0xx_HAL_Driver/Src/stm32f0xx_hal_pcd.c ****   default:
 690:Drivers/STM32F0xx_HAL_Driver/Src/stm32f0xx_hal_pcd.c ****     break;
 691:Drivers/STM32F0xx_HAL_Driver/Src/stm32f0xx_hal_pcd.c ****   } 
 692:Drivers/STM32F0xx_HAL_Driver/Src/stm32f0xx_hal_pcd.c ****   
 693:Drivers/STM32F0xx_HAL_Driver/Src/stm32f0xx_hal_pcd.c ****   PCD_SET_EP_ADDRESS(hpcd->Instance, ep->num, ep->num);
 1071              		.loc 1 693 3 view .LVU244
 1072 009a 0168     		ldr	r1, [r0]
 1073 009c 2378     		ldrb	r3, [r4]
 1074 009e 9D00     		lsls	r5, r3, #2
 1075 00a0 4A5B     		ldrh	r2, [r1, r5]
 1076 00a2 914E     		ldr	r6, .L74+16
 1077 00a4 3240     		ands	r2, r6
 1078 00a6 1343     		orrs	r3, r2
 1079 00a8 904A     		ldr	r2, .L74+20
 1080 00aa 1343     		orrs	r3, r2
 1081 00ac 4B53     		strh	r3, [r1, r5]
 694:Drivers/STM32F0xx_HAL_Driver/Src/stm32f0xx_hal_pcd.c ****   
 695:Drivers/STM32F0xx_HAL_Driver/Src/stm32f0xx_hal_pcd.c ****   if (ep->doublebuffer == 0U) 
 1082              		.loc 1 695 3 view .LVU245
 1083              		.loc 1 695 9 is_stmt 0 view .LVU246
 1084 00ae A37A     		ldrb	r3, [r4, #10]
 1085              		.loc 1 695 6 view .LVU247
 1086 00b0 002B     		cmp	r3, #0
 1087 00b2 00D0     		beq	.LCB876
 1088 00b4 7EE0     		b	.L58	@long jump
 1089              	.LCB876:
 696:Drivers/STM32F0xx_HAL_Driver/Src/stm32f0xx_hal_pcd.c ****   {
 697:Drivers/STM32F0xx_HAL_Driver/Src/stm32f0xx_hal_pcd.c ****     if (ep->is_in)
 1090              		.loc 1 697 5 is_stmt 1 view .LVU248
 1091              		.loc 1 697 11 is_stmt 0 view .LVU249
 1092 00b6 6378     		ldrb	r3, [r4, #1]
 1093              		.loc 1 697 8 view .LVU250
 1094 00b8 002B     		cmp	r3, #0
 1095 00ba 34D0     		beq	.L59
 698:Drivers/STM32F0xx_HAL_Driver/Src/stm32f0xx_hal_pcd.c ****     {
 699:Drivers/STM32F0xx_HAL_Driver/Src/stm32f0xx_hal_pcd.c ****       /*Set the endpoint Transmit buffer address */
 700:Drivers/STM32F0xx_HAL_Driver/Src/stm32f0xx_hal_pcd.c ****       PCD_SET_EP_TX_ADDRESS(hpcd->Instance, ep->num, ep->pmaadress);
 1096              		.loc 1 700 7 is_stmt 1 view .LVU251
 1097 00bc A288     		ldrh	r2, [r4, #4]
 1098 00be 0568     		ldr	r5, [r0]
 1099 00c0 5023     		movs	r3, #80
 1100 00c2 EB5A     		ldrh	r3, [r5, r3]
 1101 00c4 2178     		ldrb	r1, [r4]
 1102 00c6 C900     		lsls	r1, r1, #3
 1103 00c8 5B18     		adds	r3, r3, r1
 1104 00ca 5B19     		adds	r3, r3, r5
 1105 00cc 8021     		movs	r1, #128
 1106 00ce C900     		lsls	r1, r1, #3
 1107 00d0 8C46     		mov	ip, r1
 1108 00d2 6344     		add	r3, r3, ip
 1109 00d4 0121     		movs	r1, #1
 1110 00d6 8A43     		bics	r2, r1
 1111 00d8 1A80     		strh	r2, [r3]
 701:Drivers/STM32F0xx_HAL_Driver/Src/stm32f0xx_hal_pcd.c ****       PCD_CLEAR_TX_DTOG(hpcd->Instance, ep->num)
 1112              		.loc 1 701 7 view .LVU252
 1113 00da 0268     		ldr	r2, [r0]
 1114 00dc 2378     		ldrb	r3, [r4]
ARM GAS  /tmp/ccHm7VQo.s 			page 34


 1115 00de 9B00     		lsls	r3, r3, #2
 1116 00e0 D118     		adds	r1, r2, r3
 1117 00e2 D35A     		ldrh	r3, [r2, r3]
 1118 00e4 5A06     		lsls	r2, r3, #25
 1119 00e6 03D5     		bpl	.L60
 1120              		.loc 1 701 7 discriminator 1 view .LVU253
 1121 00e8 3340     		ands	r3, r6
 1122 00ea 814A     		ldr	r2, .L74+24
 1123 00ec 1343     		orrs	r3, r2
 1124 00ee 0B80     		strh	r3, [r1]
 1125              	.L60:
 1126              	.LBB2:
 702:Drivers/STM32F0xx_HAL_Driver/Src/stm32f0xx_hal_pcd.c ****       /* Configure NAK status for the Endpoint*/
 703:Drivers/STM32F0xx_HAL_Driver/Src/stm32f0xx_hal_pcd.c ****       PCD_SET_EP_TX_STATUS(hpcd->Instance, ep->num, USB_EP_TX_NAK) 
 1127              		.loc 1 703 7 view .LVU254
 1128              		.loc 1 703 7 view .LVU255
 1129 00f0 0168     		ldr	r1, [r0]
 1130 00f2 2278     		ldrb	r2, [r4]
 1131 00f4 9200     		lsls	r2, r2, #2
 1132 00f6 8B5A     		ldrh	r3, [r1, r2]
 1133 00f8 7E4C     		ldr	r4, .L74+28
 1134              	.LVL66:
 1135              		.loc 1 703 7 is_stmt 0 view .LVU256
 1136 00fa 2340     		ands	r3, r4
 1137              	.LVL67:
 1138              		.loc 1 703 7 is_stmt 1 view .LVU257
 1139              		.loc 1 703 7 view .LVU258
 1140              		.loc 1 703 7 view .LVU259
 1141 00fc 2024     		movs	r4, #32
 1142 00fe 6340     		eors	r3, r4
 1143              	.LVL68:
 1144              		.loc 1 703 7 view .LVU260
 1145 0100 7A4C     		ldr	r4, .L74+20
 1146 0102 2343     		orrs	r3, r4
 1147              	.LVL69:
 1148              		.loc 1 703 7 is_stmt 0 view .LVU261
 1149 0104 8B52     		strh	r3, [r1, r2]
 1150              	.L61:
 1151              		.loc 1 703 7 view .LVU262
 1152              	.LBE2:
 704:Drivers/STM32F0xx_HAL_Driver/Src/stm32f0xx_hal_pcd.c ****     }
 705:Drivers/STM32F0xx_HAL_Driver/Src/stm32f0xx_hal_pcd.c ****     else
 706:Drivers/STM32F0xx_HAL_Driver/Src/stm32f0xx_hal_pcd.c ****     {
 707:Drivers/STM32F0xx_HAL_Driver/Src/stm32f0xx_hal_pcd.c ****       /*Set the endpoint Receive buffer address */
 708:Drivers/STM32F0xx_HAL_Driver/Src/stm32f0xx_hal_pcd.c ****       PCD_SET_EP_RX_ADDRESS(hpcd->Instance, ep->num, ep->pmaadress);
 709:Drivers/STM32F0xx_HAL_Driver/Src/stm32f0xx_hal_pcd.c ****       /*Set the endpoint Receive buffer counter*/
 710:Drivers/STM32F0xx_HAL_Driver/Src/stm32f0xx_hal_pcd.c ****       PCD_SET_EP_RX_CNT(hpcd->Instance, ep->num, ep->maxpacket)
 711:Drivers/STM32F0xx_HAL_Driver/Src/stm32f0xx_hal_pcd.c ****       PCD_CLEAR_RX_DTOG(hpcd->Instance, ep->num)
 712:Drivers/STM32F0xx_HAL_Driver/Src/stm32f0xx_hal_pcd.c ****       /* Configure VALID status for the Endpoint*/
 713:Drivers/STM32F0xx_HAL_Driver/Src/stm32f0xx_hal_pcd.c ****       PCD_SET_EP_RX_STATUS(hpcd->Instance, ep->num, USB_EP_RX_VALID)
 714:Drivers/STM32F0xx_HAL_Driver/Src/stm32f0xx_hal_pcd.c ****     }
 715:Drivers/STM32F0xx_HAL_Driver/Src/stm32f0xx_hal_pcd.c ****   }
 716:Drivers/STM32F0xx_HAL_Driver/Src/stm32f0xx_hal_pcd.c ****   /*Double Buffer*/
 717:Drivers/STM32F0xx_HAL_Driver/Src/stm32f0xx_hal_pcd.c ****   else
 718:Drivers/STM32F0xx_HAL_Driver/Src/stm32f0xx_hal_pcd.c ****   {
 719:Drivers/STM32F0xx_HAL_Driver/Src/stm32f0xx_hal_pcd.c ****     /*Set the endpoint as double buffered*/
 720:Drivers/STM32F0xx_HAL_Driver/Src/stm32f0xx_hal_pcd.c ****     PCD_SET_EP_DBUF(hpcd->Instance, ep->num);
ARM GAS  /tmp/ccHm7VQo.s 			page 35


 721:Drivers/STM32F0xx_HAL_Driver/Src/stm32f0xx_hal_pcd.c ****     /*Set buffer address for double buffered mode*/
 722:Drivers/STM32F0xx_HAL_Driver/Src/stm32f0xx_hal_pcd.c ****     PCD_SET_EP_DBUF_ADDR(hpcd->Instance, ep->num,ep->pmaaddr0, ep->pmaaddr1)
 723:Drivers/STM32F0xx_HAL_Driver/Src/stm32f0xx_hal_pcd.c ****     
 724:Drivers/STM32F0xx_HAL_Driver/Src/stm32f0xx_hal_pcd.c ****     if (ep->is_in==0U)
 725:Drivers/STM32F0xx_HAL_Driver/Src/stm32f0xx_hal_pcd.c ****     {
 726:Drivers/STM32F0xx_HAL_Driver/Src/stm32f0xx_hal_pcd.c ****       /* Clear the data toggle bits for the endpoint IN/OUT*/
 727:Drivers/STM32F0xx_HAL_Driver/Src/stm32f0xx_hal_pcd.c ****       PCD_CLEAR_RX_DTOG(hpcd->Instance, ep->num)
 728:Drivers/STM32F0xx_HAL_Driver/Src/stm32f0xx_hal_pcd.c ****       PCD_CLEAR_TX_DTOG(hpcd->Instance, ep->num)
 729:Drivers/STM32F0xx_HAL_Driver/Src/stm32f0xx_hal_pcd.c ****       
 730:Drivers/STM32F0xx_HAL_Driver/Src/stm32f0xx_hal_pcd.c ****       /* Reset value of the data toggle bits for the endpoint out*/
 731:Drivers/STM32F0xx_HAL_Driver/Src/stm32f0xx_hal_pcd.c ****       PCD_TX_DTOG(hpcd->Instance, ep->num);
 732:Drivers/STM32F0xx_HAL_Driver/Src/stm32f0xx_hal_pcd.c ****       
 733:Drivers/STM32F0xx_HAL_Driver/Src/stm32f0xx_hal_pcd.c ****       PCD_SET_EP_RX_STATUS(hpcd->Instance, ep->num, USB_EP_RX_VALID)
 734:Drivers/STM32F0xx_HAL_Driver/Src/stm32f0xx_hal_pcd.c ****       PCD_SET_EP_TX_STATUS(hpcd->Instance, ep->num, USB_EP_TX_DIS)
 735:Drivers/STM32F0xx_HAL_Driver/Src/stm32f0xx_hal_pcd.c ****     }
 736:Drivers/STM32F0xx_HAL_Driver/Src/stm32f0xx_hal_pcd.c ****     else
 737:Drivers/STM32F0xx_HAL_Driver/Src/stm32f0xx_hal_pcd.c ****     {
 738:Drivers/STM32F0xx_HAL_Driver/Src/stm32f0xx_hal_pcd.c ****       /* Clear the data toggle bits for the endpoint IN/OUT*/
 739:Drivers/STM32F0xx_HAL_Driver/Src/stm32f0xx_hal_pcd.c ****       PCD_CLEAR_RX_DTOG(hpcd->Instance, ep->num)
 740:Drivers/STM32F0xx_HAL_Driver/Src/stm32f0xx_hal_pcd.c ****       PCD_CLEAR_TX_DTOG(hpcd->Instance, ep->num)
 741:Drivers/STM32F0xx_HAL_Driver/Src/stm32f0xx_hal_pcd.c ****       PCD_RX_DTOG(hpcd->Instance, ep->num);
 742:Drivers/STM32F0xx_HAL_Driver/Src/stm32f0xx_hal_pcd.c ****       /* Configure DISABLE status for the Endpoint*/
 743:Drivers/STM32F0xx_HAL_Driver/Src/stm32f0xx_hal_pcd.c ****       PCD_SET_EP_TX_STATUS(hpcd->Instance, ep->num, USB_EP_TX_DIS)
 744:Drivers/STM32F0xx_HAL_Driver/Src/stm32f0xx_hal_pcd.c ****       PCD_SET_EP_RX_STATUS(hpcd->Instance, ep->num, USB_EP_RX_DIS)
 745:Drivers/STM32F0xx_HAL_Driver/Src/stm32f0xx_hal_pcd.c ****     }
 746:Drivers/STM32F0xx_HAL_Driver/Src/stm32f0xx_hal_pcd.c ****   } 
 747:Drivers/STM32F0xx_HAL_Driver/Src/stm32f0xx_hal_pcd.c ****   
 748:Drivers/STM32F0xx_HAL_Driver/Src/stm32f0xx_hal_pcd.c ****   __HAL_UNLOCK(hpcd);   
 1153              		.loc 1 748 3 is_stmt 1 view .LVU263
 1154              		.loc 1 748 3 view .LVU264
 1155 0106 F423     		movs	r3, #244
 1156 0108 5B00     		lsls	r3, r3, #1
 1157 010a 0022     		movs	r2, #0
 1158 010c C254     		strb	r2, [r0, r3]
 749:Drivers/STM32F0xx_HAL_Driver/Src/stm32f0xx_hal_pcd.c ****   return ret;
 1159              		.loc 1 749 3 view .LVU265
 1160              		.loc 1 749 10 is_stmt 0 view .LVU266
 1161 010e 0020     		movs	r0, #0
 1162              	.LVL70:
 1163              	.L51:
 750:Drivers/STM32F0xx_HAL_Driver/Src/stm32f0xx_hal_pcd.c **** }
 1164              		.loc 1 750 1 view .LVU267
 1165              		@ sp needed
 1166 0110 F0BD     		pop	{r4, r5, r6, r7, pc}
 1167              	.LVL71:
 1168              	.L52:
 681:Drivers/STM32F0xx_HAL_Driver/Src/stm32f0xx_hal_pcd.c ****     break;
 1169              		.loc 1 681 5 is_stmt 1 view .LVU268
 1170 0112 0568     		ldr	r5, [r0]
 1171 0114 2378     		ldrb	r3, [r4]
 1172 0116 9B00     		lsls	r3, r3, #2
 1173 0118 EA5A     		ldrh	r2, [r5, r3]
 1174 011a 6F49     		ldr	r1, .L74
 1175 011c 1140     		ands	r1, r2
 1176 011e 734A     		ldr	r2, .L74+20
 1177 0120 0A43     		orrs	r2, r1
 1178 0122 EA52     		strh	r2, [r5, r3]
ARM GAS  /tmp/ccHm7VQo.s 			page 36


 682:Drivers/STM32F0xx_HAL_Driver/Src/stm32f0xx_hal_pcd.c ****   case PCD_EP_TYPE_INTR:
 1179              		.loc 1 682 5 view .LVU269
 1180 0124 B9E7     		b	.L56
 1181              	.L59:
 708:Drivers/STM32F0xx_HAL_Driver/Src/stm32f0xx_hal_pcd.c ****       /*Set the endpoint Receive buffer counter*/
 1182              		.loc 1 708 7 view .LVU270
 1183 0126 A288     		ldrh	r2, [r4, #4]
 1184 0128 0568     		ldr	r5, [r0]
 1185 012a 5026     		movs	r6, #80
 1186 012c AB5B     		ldrh	r3, [r5, r6]
 1187 012e 2178     		ldrb	r1, [r4]
 1188 0130 C900     		lsls	r1, r1, #3
 1189 0132 5B18     		adds	r3, r3, r1
 1190 0134 5B19     		adds	r3, r3, r5
 1191 0136 7049     		ldr	r1, .L74+32
 1192 0138 8C46     		mov	ip, r1
 1193 013a 6344     		add	r3, r3, ip
 1194 013c 0121     		movs	r1, #1
 1195 013e 8A43     		bics	r2, r1
 1196 0140 1A80     		strh	r2, [r3]
 1197              	.LBB3:
 710:Drivers/STM32F0xx_HAL_Driver/Src/stm32f0xx_hal_pcd.c ****       PCD_CLEAR_RX_DTOG(hpcd->Instance, ep->num)
 1198              		.loc 1 710 7 view .LVU271
 1199 0142 0168     		ldr	r1, [r0]
 1200 0144 8B5B     		ldrh	r3, [r1, r6]
 1201 0146 2278     		ldrb	r2, [r4]
 1202 0148 D200     		lsls	r2, r2, #3
 1203 014a 9B18     		adds	r3, r3, r2
 1204 014c 5B18     		adds	r3, r3, r1
 1205 014e 6B4A     		ldr	r2, .L74+36
 1206 0150 9446     		mov	ip, r2
 1207 0152 6344     		add	r3, r3, ip
 1208              	.LVL72:
 1209              	.LBB4:
 710:Drivers/STM32F0xx_HAL_Driver/Src/stm32f0xx_hal_pcd.c ****       PCD_CLEAR_RX_DTOG(hpcd->Instance, ep->num)
 1210              		.loc 1 710 7 view .LVU272
 710:Drivers/STM32F0xx_HAL_Driver/Src/stm32f0xx_hal_pcd.c ****       PCD_CLEAR_RX_DTOG(hpcd->Instance, ep->num)
 1211              		.loc 1 710 7 view .LVU273
 1212 0154 E168     		ldr	r1, [r4, #12]
 1213 0156 3E29     		cmp	r1, #62
 1214 0158 23D9     		bls	.L62
 710:Drivers/STM32F0xx_HAL_Driver/Src/stm32f0xx_hal_pcd.c ****       PCD_CLEAR_RX_DTOG(hpcd->Instance, ep->num)
 1215              		.loc 1 710 7 discriminator 1 view .LVU274
 1216 015a 4A09     		lsrs	r2, r1, #5
 1217 015c 92B2     		uxth	r2, r2
 1218              	.LVL73:
 710:Drivers/STM32F0xx_HAL_Driver/Src/stm32f0xx_hal_pcd.c ****       PCD_CLEAR_RX_DTOG(hpcd->Instance, ep->num)
 1219              		.loc 1 710 7 discriminator 1 view .LVU275
 1220 015e C906     		lsls	r1, r1, #27
 1221 0160 01D1     		bne	.L63
 710:Drivers/STM32F0xx_HAL_Driver/Src/stm32f0xx_hal_pcd.c ****       PCD_CLEAR_RX_DTOG(hpcd->Instance, ep->num)
 1222              		.loc 1 710 7 discriminator 3 view .LVU276
 1223 0162 013A     		subs	r2, r2, #1
 1224              	.LVL74:
 710:Drivers/STM32F0xx_HAL_Driver/Src/stm32f0xx_hal_pcd.c ****       PCD_CLEAR_RX_DTOG(hpcd->Instance, ep->num)
 1225              		.loc 1 710 7 is_stmt 0 discriminator 3 view .LVU277
 1226 0164 92B2     		uxth	r2, r2
ARM GAS  /tmp/ccHm7VQo.s 			page 37


 1227              	.LVL75:
 1228              	.L63:
 710:Drivers/STM32F0xx_HAL_Driver/Src/stm32f0xx_hal_pcd.c ****       PCD_CLEAR_RX_DTOG(hpcd->Instance, ep->num)
 1229              		.loc 1 710 7 is_stmt 1 discriminator 5 view .LVU278
 1230 0166 9202     		lsls	r2, r2, #10
 1231              	.LVL76:
 710:Drivers/STM32F0xx_HAL_Driver/Src/stm32f0xx_hal_pcd.c ****       PCD_CLEAR_RX_DTOG(hpcd->Instance, ep->num)
 1232              		.loc 1 710 7 is_stmt 0 discriminator 5 view .LVU279
 1233 0168 92B2     		uxth	r2, r2
 1234 016a 6549     		ldr	r1, .L74+40
 1235 016c 0A43     		orrs	r2, r1
 1236 016e 1A80     		strh	r2, [r3]
 1237              	.L64:
 710:Drivers/STM32F0xx_HAL_Driver/Src/stm32f0xx_hal_pcd.c ****       PCD_CLEAR_RX_DTOG(hpcd->Instance, ep->num)
 1238              		.loc 1 710 7 discriminator 5 view .LVU280
 1239              	.LBE4:
 1240              	.LBE3:
 711:Drivers/STM32F0xx_HAL_Driver/Src/stm32f0xx_hal_pcd.c ****       /* Configure VALID status for the Endpoint*/
 1241              		.loc 1 711 7 is_stmt 1 view .LVU281
 1242 0170 0268     		ldr	r2, [r0]
 1243 0172 2378     		ldrb	r3, [r4]
 1244              	.LVL77:
 711:Drivers/STM32F0xx_HAL_Driver/Src/stm32f0xx_hal_pcd.c ****       /* Configure VALID status for the Endpoint*/
 1245              		.loc 1 711 7 is_stmt 0 view .LVU282
 1246 0174 9B00     		lsls	r3, r3, #2
 1247 0176 D118     		adds	r1, r2, r3
 1248 0178 D35A     		ldrh	r3, [r2, r3]
 1249 017a 5A04     		lsls	r2, r3, #17
 1250 017c 04D5     		bpl	.L66
 711:Drivers/STM32F0xx_HAL_Driver/Src/stm32f0xx_hal_pcd.c ****       /* Configure VALID status for the Endpoint*/
 1251              		.loc 1 711 7 is_stmt 1 discriminator 1 view .LVU283
 1252 017e 5A4A     		ldr	r2, .L74+16
 1253 0180 1340     		ands	r3, r2
 1254 0182 604A     		ldr	r2, .L74+44
 1255 0184 1343     		orrs	r3, r2
 1256 0186 0B80     		strh	r3, [r1]
 1257              	.L66:
 1258              	.LBB6:
 713:Drivers/STM32F0xx_HAL_Driver/Src/stm32f0xx_hal_pcd.c ****     }
 1259              		.loc 1 713 7 view .LVU284
 713:Drivers/STM32F0xx_HAL_Driver/Src/stm32f0xx_hal_pcd.c ****     }
 1260              		.loc 1 713 7 view .LVU285
 1261 0188 0568     		ldr	r5, [r0]
 1262 018a 2378     		ldrb	r3, [r4]
 1263 018c 9B00     		lsls	r3, r3, #2
 1264 018e E95A     		ldrh	r1, [r5, r3]
 1265 0190 5D4A     		ldr	r2, .L74+48
 1266 0192 1140     		ands	r1, r2
 1267              	.LVL78:
 713:Drivers/STM32F0xx_HAL_Driver/Src/stm32f0xx_hal_pcd.c ****     }
 1268              		.loc 1 713 7 view .LVU286
 713:Drivers/STM32F0xx_HAL_Driver/Src/stm32f0xx_hal_pcd.c ****     }
 1269              		.loc 1 713 7 view .LVU287
 713:Drivers/STM32F0xx_HAL_Driver/Src/stm32f0xx_hal_pcd.c ****     }
 1270              		.loc 1 713 7 view .LVU288
 713:Drivers/STM32F0xx_HAL_Driver/Src/stm32f0xx_hal_pcd.c ****     }
 1271              		.loc 1 713 7 view .LVU289
ARM GAS  /tmp/ccHm7VQo.s 			page 38


 1272 0194 C022     		movs	r2, #192
 1273 0196 9201     		lsls	r2, r2, #6
 1274 0198 5140     		eors	r1, r2
 1275              	.LVL79:
 713:Drivers/STM32F0xx_HAL_Driver/Src/stm32f0xx_hal_pcd.c ****     }
 1276              		.loc 1 713 7 view .LVU290
 1277 019a 544A     		ldr	r2, .L74+20
 1278 019c 0A43     		orrs	r2, r1
 1279 019e EA52     		strh	r2, [r5, r3]
 1280 01a0 B1E7     		b	.L61
 1281              	.LVL80:
 1282              	.L62:
 713:Drivers/STM32F0xx_HAL_Driver/Src/stm32f0xx_hal_pcd.c ****     }
 1283              		.loc 1 713 7 is_stmt 0 view .LVU291
 1284              	.LBE6:
 1285              	.LBB7:
 1286              	.LBB5:
 710:Drivers/STM32F0xx_HAL_Driver/Src/stm32f0xx_hal_pcd.c ****       PCD_CLEAR_RX_DTOG(hpcd->Instance, ep->num)
 1287              		.loc 1 710 7 is_stmt 1 discriminator 2 view .LVU292
 1288 01a2 4A08     		lsrs	r2, r1, #1
 1289 01a4 92B2     		uxth	r2, r2
 1290              	.LVL81:
 710:Drivers/STM32F0xx_HAL_Driver/Src/stm32f0xx_hal_pcd.c ****       PCD_CLEAR_RX_DTOG(hpcd->Instance, ep->num)
 1291              		.loc 1 710 7 discriminator 2 view .LVU293
 1292 01a6 C907     		lsls	r1, r1, #31
 1293 01a8 01D5     		bpl	.L65
 710:Drivers/STM32F0xx_HAL_Driver/Src/stm32f0xx_hal_pcd.c ****       PCD_CLEAR_RX_DTOG(hpcd->Instance, ep->num)
 1294              		.loc 1 710 7 discriminator 6 view .LVU294
 1295 01aa 0132     		adds	r2, r2, #1
 1296              	.LVL82:
 710:Drivers/STM32F0xx_HAL_Driver/Src/stm32f0xx_hal_pcd.c ****       PCD_CLEAR_RX_DTOG(hpcd->Instance, ep->num)
 1297              		.loc 1 710 7 is_stmt 0 discriminator 6 view .LVU295
 1298 01ac 92B2     		uxth	r2, r2
 1299              	.LVL83:
 1300              	.L65:
 710:Drivers/STM32F0xx_HAL_Driver/Src/stm32f0xx_hal_pcd.c ****       PCD_CLEAR_RX_DTOG(hpcd->Instance, ep->num)
 1301              		.loc 1 710 7 is_stmt 1 discriminator 8 view .LVU296
 1302 01ae 9202     		lsls	r2, r2, #10
 1303              	.LVL84:
 710:Drivers/STM32F0xx_HAL_Driver/Src/stm32f0xx_hal_pcd.c ****       PCD_CLEAR_RX_DTOG(hpcd->Instance, ep->num)
 1304              		.loc 1 710 7 is_stmt 0 discriminator 8 view .LVU297
 1305 01b0 1A80     		strh	r2, [r3]
 1306 01b2 DDE7     		b	.L64
 1307              	.LVL85:
 1308              	.L58:
 710:Drivers/STM32F0xx_HAL_Driver/Src/stm32f0xx_hal_pcd.c ****       PCD_CLEAR_RX_DTOG(hpcd->Instance, ep->num)
 1309              		.loc 1 710 7 discriminator 8 view .LVU298
 1310              	.LBE5:
 1311              	.LBE7:
 720:Drivers/STM32F0xx_HAL_Driver/Src/stm32f0xx_hal_pcd.c ****     /*Set buffer address for double buffered mode*/
 1312              		.loc 1 720 5 is_stmt 1 view .LVU299
 1313 01b4 0568     		ldr	r5, [r0]
 1314 01b6 2378     		ldrb	r3, [r4]
 1315 01b8 9B00     		lsls	r3, r3, #2
 1316 01ba EA5A     		ldrh	r2, [r5, r3]
 1317 01bc 5349     		ldr	r1, .L74+52
 1318 01be 1140     		ands	r1, r2
ARM GAS  /tmp/ccHm7VQo.s 			page 39


 1319 01c0 534A     		ldr	r2, .L74+56
 1320 01c2 0A43     		orrs	r2, r1
 1321 01c4 EA52     		strh	r2, [r5, r3]
 722:Drivers/STM32F0xx_HAL_Driver/Src/stm32f0xx_hal_pcd.c ****     
 1322              		.loc 1 722 5 view .LVU300
 1323 01c6 E288     		ldrh	r2, [r4, #6]
 1324 01c8 0568     		ldr	r5, [r0]
 1325 01ca 5027     		movs	r7, #80
 1326 01cc EB5B     		ldrh	r3, [r5, r7]
 1327 01ce 2178     		ldrb	r1, [r4]
 1328 01d0 C900     		lsls	r1, r1, #3
 1329 01d2 5B18     		adds	r3, r3, r1
 1330 01d4 5B19     		adds	r3, r3, r5
 1331 01d6 8021     		movs	r1, #128
 1332 01d8 C900     		lsls	r1, r1, #3
 1333 01da 8C46     		mov	ip, r1
 1334 01dc 6344     		add	r3, r3, ip
 1335 01de 0126     		movs	r6, #1
 1336 01e0 B243     		bics	r2, r6
 1337 01e2 1A80     		strh	r2, [r3]
 722:Drivers/STM32F0xx_HAL_Driver/Src/stm32f0xx_hal_pcd.c ****     
 1338              		.loc 1 722 5 view .LVU301
 1339 01e4 2289     		ldrh	r2, [r4, #8]
 1340 01e6 0568     		ldr	r5, [r0]
 1341 01e8 EB5B     		ldrh	r3, [r5, r7]
 1342 01ea 2178     		ldrb	r1, [r4]
 1343 01ec C900     		lsls	r1, r1, #3
 1344 01ee 5B18     		adds	r3, r3, r1
 1345 01f0 5B19     		adds	r3, r3, r5
 1346 01f2 4149     		ldr	r1, .L74+32
 1347 01f4 8C46     		mov	ip, r1
 1348 01f6 6344     		add	r3, r3, ip
 1349 01f8 B243     		bics	r2, r6
 1350 01fa 1A80     		strh	r2, [r3]
 724:Drivers/STM32F0xx_HAL_Driver/Src/stm32f0xx_hal_pcd.c ****     {
 1351              		.loc 1 724 5 view .LVU302
 724:Drivers/STM32F0xx_HAL_Driver/Src/stm32f0xx_hal_pcd.c ****     {
 1352              		.loc 1 724 11 is_stmt 0 view .LVU303
 1353 01fc 6378     		ldrb	r3, [r4, #1]
 724:Drivers/STM32F0xx_HAL_Driver/Src/stm32f0xx_hal_pcd.c ****     {
 1354              		.loc 1 724 8 view .LVU304
 1355 01fe 002B     		cmp	r3, #0
 1356 0200 35D1     		bne	.L67
 727:Drivers/STM32F0xx_HAL_Driver/Src/stm32f0xx_hal_pcd.c ****       PCD_CLEAR_TX_DTOG(hpcd->Instance, ep->num)
 1357              		.loc 1 727 7 is_stmt 1 view .LVU305
 1358 0202 0268     		ldr	r2, [r0]
 1359 0204 2378     		ldrb	r3, [r4]
 1360 0206 9B00     		lsls	r3, r3, #2
 1361 0208 D118     		adds	r1, r2, r3
 1362 020a D35A     		ldrh	r3, [r2, r3]
 1363 020c 5A04     		lsls	r2, r3, #17
 1364 020e 04D5     		bpl	.L68
 727:Drivers/STM32F0xx_HAL_Driver/Src/stm32f0xx_hal_pcd.c ****       PCD_CLEAR_TX_DTOG(hpcd->Instance, ep->num)
 1365              		.loc 1 727 7 discriminator 1 view .LVU306
 1366 0210 354A     		ldr	r2, .L74+16
 1367 0212 1340     		ands	r3, r2
 1368 0214 3B4A     		ldr	r2, .L74+44
ARM GAS  /tmp/ccHm7VQo.s 			page 40


 1369 0216 1343     		orrs	r3, r2
 1370 0218 0B80     		strh	r3, [r1]
 1371              	.L68:
 728:Drivers/STM32F0xx_HAL_Driver/Src/stm32f0xx_hal_pcd.c ****       
 1372              		.loc 1 728 7 view .LVU307
 1373 021a 0268     		ldr	r2, [r0]
 1374 021c 2378     		ldrb	r3, [r4]
 1375 021e 9B00     		lsls	r3, r3, #2
 1376 0220 D118     		adds	r1, r2, r3
 1377 0222 D35A     		ldrh	r3, [r2, r3]
 1378 0224 5A06     		lsls	r2, r3, #25
 1379 0226 04D5     		bpl	.L69
 728:Drivers/STM32F0xx_HAL_Driver/Src/stm32f0xx_hal_pcd.c ****       
 1380              		.loc 1 728 7 discriminator 1 view .LVU308
 1381 0228 2F4A     		ldr	r2, .L74+16
 1382 022a 1340     		ands	r3, r2
 1383 022c 304A     		ldr	r2, .L74+24
 1384 022e 1343     		orrs	r3, r2
 1385 0230 0B80     		strh	r3, [r1]
 1386              	.L69:
 731:Drivers/STM32F0xx_HAL_Driver/Src/stm32f0xx_hal_pcd.c ****       
 1387              		.loc 1 731 7 view .LVU309
 1388 0232 0568     		ldr	r5, [r0]
 1389 0234 2378     		ldrb	r3, [r4]
 1390 0236 9B00     		lsls	r3, r3, #2
 1391 0238 EA5A     		ldrh	r2, [r5, r3]
 1392 023a 2B49     		ldr	r1, .L74+16
 1393 023c 1140     		ands	r1, r2
 1394 023e 2C4A     		ldr	r2, .L74+24
 1395 0240 0A43     		orrs	r2, r1
 1396 0242 EA52     		strh	r2, [r5, r3]
 1397              	.LBB8:
 733:Drivers/STM32F0xx_HAL_Driver/Src/stm32f0xx_hal_pcd.c ****       PCD_SET_EP_TX_STATUS(hpcd->Instance, ep->num, USB_EP_TX_DIS)
 1398              		.loc 1 733 7 view .LVU310
 733:Drivers/STM32F0xx_HAL_Driver/Src/stm32f0xx_hal_pcd.c ****       PCD_SET_EP_TX_STATUS(hpcd->Instance, ep->num, USB_EP_TX_DIS)
 1399              		.loc 1 733 7 view .LVU311
 1400 0244 0568     		ldr	r5, [r0]
 1401 0246 2178     		ldrb	r1, [r4]
 1402 0248 8900     		lsls	r1, r1, #2
 1403 024a 6B5A     		ldrh	r3, [r5, r1]
 1404 024c 2E4A     		ldr	r2, .L74+48
 1405 024e 1A40     		ands	r2, r3
 1406              	.LVL86:
 733:Drivers/STM32F0xx_HAL_Driver/Src/stm32f0xx_hal_pcd.c ****       PCD_SET_EP_TX_STATUS(hpcd->Instance, ep->num, USB_EP_TX_DIS)
 1407              		.loc 1 733 7 view .LVU312
 733:Drivers/STM32F0xx_HAL_Driver/Src/stm32f0xx_hal_pcd.c ****       PCD_SET_EP_TX_STATUS(hpcd->Instance, ep->num, USB_EP_TX_DIS)
 1408              		.loc 1 733 7 view .LVU313
 733:Drivers/STM32F0xx_HAL_Driver/Src/stm32f0xx_hal_pcd.c ****       PCD_SET_EP_TX_STATUS(hpcd->Instance, ep->num, USB_EP_TX_DIS)
 1409              		.loc 1 733 7 view .LVU314
 733:Drivers/STM32F0xx_HAL_Driver/Src/stm32f0xx_hal_pcd.c ****       PCD_SET_EP_TX_STATUS(hpcd->Instance, ep->num, USB_EP_TX_DIS)
 1410              		.loc 1 733 7 view .LVU315
 1411 0250 C023     		movs	r3, #192
 1412 0252 9B01     		lsls	r3, r3, #6
 1413 0254 5340     		eors	r3, r2
 1414              	.LVL87:
 733:Drivers/STM32F0xx_HAL_Driver/Src/stm32f0xx_hal_pcd.c ****       PCD_SET_EP_TX_STATUS(hpcd->Instance, ep->num, USB_EP_TX_DIS)
 1415              		.loc 1 733 7 view .LVU316
ARM GAS  /tmp/ccHm7VQo.s 			page 41


 1416 0256 254A     		ldr	r2, .L74+20
 1417 0258 1343     		orrs	r3, r2
 1418              	.LVL88:
 733:Drivers/STM32F0xx_HAL_Driver/Src/stm32f0xx_hal_pcd.c ****       PCD_SET_EP_TX_STATUS(hpcd->Instance, ep->num, USB_EP_TX_DIS)
 1419              		.loc 1 733 7 is_stmt 0 view .LVU317
 1420 025a 6B52     		strh	r3, [r5, r1]
 1421              	.LVL89:
 733:Drivers/STM32F0xx_HAL_Driver/Src/stm32f0xx_hal_pcd.c ****       PCD_SET_EP_TX_STATUS(hpcd->Instance, ep->num, USB_EP_TX_DIS)
 1422              		.loc 1 733 7 view .LVU318
 1423              	.LBE8:
 1424              	.LBB9:
 734:Drivers/STM32F0xx_HAL_Driver/Src/stm32f0xx_hal_pcd.c ****     }
 1425              		.loc 1 734 7 is_stmt 1 view .LVU319
 734:Drivers/STM32F0xx_HAL_Driver/Src/stm32f0xx_hal_pcd.c ****     }
 1426              		.loc 1 734 7 view .LVU320
 1427 025c 0568     		ldr	r5, [r0]
 1428 025e 2378     		ldrb	r3, [r4]
 1429 0260 9B00     		lsls	r3, r3, #2
 1430 0262 E95A     		ldrh	r1, [r5, r3]
 1431 0264 234C     		ldr	r4, .L74+28
 1432              	.LVL90:
 734:Drivers/STM32F0xx_HAL_Driver/Src/stm32f0xx_hal_pcd.c ****     }
 1433              		.loc 1 734 7 is_stmt 0 view .LVU321
 1434 0266 2140     		ands	r1, r4
 1435              	.LVL91:
 734:Drivers/STM32F0xx_HAL_Driver/Src/stm32f0xx_hal_pcd.c ****     }
 1436              		.loc 1 734 7 is_stmt 1 view .LVU322
 734:Drivers/STM32F0xx_HAL_Driver/Src/stm32f0xx_hal_pcd.c ****     }
 1437              		.loc 1 734 7 view .LVU323
 734:Drivers/STM32F0xx_HAL_Driver/Src/stm32f0xx_hal_pcd.c ****     }
 1438              		.loc 1 734 7 view .LVU324
 1439 0268 0A43     		orrs	r2, r1
 1440 026a EA52     		strh	r2, [r5, r3]
 1441              	.LBE9:
 1442 026c 4BE7     		b	.L61
 1443              	.LVL92:
 1444              	.L67:
 739:Drivers/STM32F0xx_HAL_Driver/Src/stm32f0xx_hal_pcd.c ****       PCD_CLEAR_TX_DTOG(hpcd->Instance, ep->num)
 1445              		.loc 1 739 7 view .LVU325
 1446 026e 0268     		ldr	r2, [r0]
 1447 0270 2378     		ldrb	r3, [r4]
 1448 0272 9B00     		lsls	r3, r3, #2
 1449 0274 D118     		adds	r1, r2, r3
 1450 0276 D35A     		ldrh	r3, [r2, r3]
 1451 0278 5A04     		lsls	r2, r3, #17
 1452 027a 04D5     		bpl	.L70
 739:Drivers/STM32F0xx_HAL_Driver/Src/stm32f0xx_hal_pcd.c ****       PCD_CLEAR_TX_DTOG(hpcd->Instance, ep->num)
 1453              		.loc 1 739 7 discriminator 1 view .LVU326
 1454 027c 1A4A     		ldr	r2, .L74+16
 1455 027e 1340     		ands	r3, r2
 1456 0280 204A     		ldr	r2, .L74+44
 1457 0282 1343     		orrs	r3, r2
 1458 0284 0B80     		strh	r3, [r1]
 1459              	.L70:
 740:Drivers/STM32F0xx_HAL_Driver/Src/stm32f0xx_hal_pcd.c ****       PCD_RX_DTOG(hpcd->Instance, ep->num);
 1460              		.loc 1 740 7 view .LVU327
 1461 0286 0268     		ldr	r2, [r0]
ARM GAS  /tmp/ccHm7VQo.s 			page 42


 1462 0288 2378     		ldrb	r3, [r4]
 1463 028a 9B00     		lsls	r3, r3, #2
 1464 028c D118     		adds	r1, r2, r3
 1465 028e D35A     		ldrh	r3, [r2, r3]
 1466 0290 5A06     		lsls	r2, r3, #25
 1467 0292 04D5     		bpl	.L71
 740:Drivers/STM32F0xx_HAL_Driver/Src/stm32f0xx_hal_pcd.c ****       PCD_RX_DTOG(hpcd->Instance, ep->num);
 1468              		.loc 1 740 7 discriminator 1 view .LVU328
 1469 0294 144A     		ldr	r2, .L74+16
 1470 0296 1340     		ands	r3, r2
 1471 0298 154A     		ldr	r2, .L74+24
 1472 029a 1343     		orrs	r3, r2
 1473 029c 0B80     		strh	r3, [r1]
 1474              	.L71:
 741:Drivers/STM32F0xx_HAL_Driver/Src/stm32f0xx_hal_pcd.c ****       /* Configure DISABLE status for the Endpoint*/
 1475              		.loc 1 741 7 view .LVU329
 1476 029e 0568     		ldr	r5, [r0]
 1477 02a0 2378     		ldrb	r3, [r4]
 1478 02a2 9B00     		lsls	r3, r3, #2
 1479 02a4 EA5A     		ldrh	r2, [r5, r3]
 1480 02a6 1049     		ldr	r1, .L74+16
 1481 02a8 1140     		ands	r1, r2
 1482 02aa 164A     		ldr	r2, .L74+44
 1483 02ac 0A43     		orrs	r2, r1
 1484 02ae EA52     		strh	r2, [r5, r3]
 1485              	.LBB10:
 743:Drivers/STM32F0xx_HAL_Driver/Src/stm32f0xx_hal_pcd.c ****       PCD_SET_EP_RX_STATUS(hpcd->Instance, ep->num, USB_EP_RX_DIS)
 1486              		.loc 1 743 7 view .LVU330
 743:Drivers/STM32F0xx_HAL_Driver/Src/stm32f0xx_hal_pcd.c ****       PCD_SET_EP_RX_STATUS(hpcd->Instance, ep->num, USB_EP_RX_DIS)
 1487              		.loc 1 743 7 view .LVU331
 1488 02b0 0568     		ldr	r5, [r0]
 1489 02b2 2178     		ldrb	r1, [r4]
 1490 02b4 8900     		lsls	r1, r1, #2
 1491 02b6 6B5A     		ldrh	r3, [r5, r1]
 1492 02b8 0E4A     		ldr	r2, .L74+28
 1493 02ba 1340     		ands	r3, r2
 1494              	.LVL93:
 743:Drivers/STM32F0xx_HAL_Driver/Src/stm32f0xx_hal_pcd.c ****       PCD_SET_EP_RX_STATUS(hpcd->Instance, ep->num, USB_EP_RX_DIS)
 1495              		.loc 1 743 7 view .LVU332
 743:Drivers/STM32F0xx_HAL_Driver/Src/stm32f0xx_hal_pcd.c ****       PCD_SET_EP_RX_STATUS(hpcd->Instance, ep->num, USB_EP_RX_DIS)
 1496              		.loc 1 743 7 view .LVU333
 743:Drivers/STM32F0xx_HAL_Driver/Src/stm32f0xx_hal_pcd.c ****       PCD_SET_EP_RX_STATUS(hpcd->Instance, ep->num, USB_EP_RX_DIS)
 1497              		.loc 1 743 7 view .LVU334
 1498 02bc 0B4A     		ldr	r2, .L74+20
 1499 02be 1343     		orrs	r3, r2
 1500              	.LVL94:
 743:Drivers/STM32F0xx_HAL_Driver/Src/stm32f0xx_hal_pcd.c ****       PCD_SET_EP_RX_STATUS(hpcd->Instance, ep->num, USB_EP_RX_DIS)
 1501              		.loc 1 743 7 is_stmt 0 view .LVU335
 1502 02c0 6B52     		strh	r3, [r5, r1]
 1503              	.LVL95:
 743:Drivers/STM32F0xx_HAL_Driver/Src/stm32f0xx_hal_pcd.c ****       PCD_SET_EP_RX_STATUS(hpcd->Instance, ep->num, USB_EP_RX_DIS)
 1504              		.loc 1 743 7 view .LVU336
 1505              	.LBE10:
 1506              	.LBB11:
 744:Drivers/STM32F0xx_HAL_Driver/Src/stm32f0xx_hal_pcd.c ****     }
 1507              		.loc 1 744 7 is_stmt 1 view .LVU337
 744:Drivers/STM32F0xx_HAL_Driver/Src/stm32f0xx_hal_pcd.c ****     }
ARM GAS  /tmp/ccHm7VQo.s 			page 43


 1508              		.loc 1 744 7 view .LVU338
 1509 02c2 0568     		ldr	r5, [r0]
 1510 02c4 2378     		ldrb	r3, [r4]
 1511 02c6 9B00     		lsls	r3, r3, #2
 1512 02c8 E95A     		ldrh	r1, [r5, r3]
 1513 02ca 0F4C     		ldr	r4, .L74+48
 1514              	.LVL96:
 744:Drivers/STM32F0xx_HAL_Driver/Src/stm32f0xx_hal_pcd.c ****     }
 1515              		.loc 1 744 7 is_stmt 0 view .LVU339
 1516 02cc 2140     		ands	r1, r4
 1517              	.LVL97:
 744:Drivers/STM32F0xx_HAL_Driver/Src/stm32f0xx_hal_pcd.c ****     }
 1518              		.loc 1 744 7 is_stmt 1 view .LVU340
 744:Drivers/STM32F0xx_HAL_Driver/Src/stm32f0xx_hal_pcd.c ****     }
 1519              		.loc 1 744 7 view .LVU341
 744:Drivers/STM32F0xx_HAL_Driver/Src/stm32f0xx_hal_pcd.c ****     }
 1520              		.loc 1 744 7 view .LVU342
 1521 02ce 0A43     		orrs	r2, r1
 1522 02d0 EA52     		strh	r2, [r5, r3]
 1523 02d2 18E7     		b	.L61
 1524              	.LVL98:
 1525              	.L72:
 744:Drivers/STM32F0xx_HAL_Driver/Src/stm32f0xx_hal_pcd.c ****     }
 1526              		.loc 1 744 7 is_stmt 0 view .LVU343
 1527              	.LBE11:
 672:Drivers/STM32F0xx_HAL_Driver/Src/stm32f0xx_hal_pcd.c **** 
 1528              		.loc 1 672 3 view .LVU344
 1529 02d4 0220     		movs	r0, #2
 1530              	.LVL99:
 672:Drivers/STM32F0xx_HAL_Driver/Src/stm32f0xx_hal_pcd.c **** 
 1531              		.loc 1 672 3 view .LVU345
 1532 02d6 1BE7     		b	.L51
 1533              	.L75:
 1534              		.align	2
 1535              	.L74:
 1536 02d8 0F090000 		.word	2319
 1537 02dc 8084FFFF 		.word	-31616
 1538 02e0 8086FFFF 		.word	-31104
 1539 02e4 8082FFFF 		.word	-32128
 1540 02e8 0F0F0000 		.word	3855
 1541 02ec 8080FFFF 		.word	-32640
 1542 02f0 C080FFFF 		.word	-32576
 1543 02f4 BF8FFFFF 		.word	-28737
 1544 02f8 04040000 		.word	1028
 1545 02fc 06040000 		.word	1030
 1546 0300 0080FFFF 		.word	-32768
 1547 0304 80C0FFFF 		.word	-16256
 1548 0308 8FBFFFFF 		.word	-16497
 1549 030c 0F0E0000 		.word	3599
 1550 0310 8081FFFF 		.word	-32384
 1551              		.cfi_endproc
 1552              	.LFE58:
 1554              		.section	.text.HAL_PCD_EP_Close,"ax",%progbits
 1555              		.align	1
 1556              		.global	HAL_PCD_EP_Close
 1557              		.syntax unified
 1558              		.code	16
ARM GAS  /tmp/ccHm7VQo.s 			page 44


 1559              		.thumb_func
 1560              		.fpu softvfp
 1562              	HAL_PCD_EP_Close:
 1563              	.LVL100:
 1564              	.LFB59:
 751:Drivers/STM32F0xx_HAL_Driver/Src/stm32f0xx_hal_pcd.c **** 
 752:Drivers/STM32F0xx_HAL_Driver/Src/stm32f0xx_hal_pcd.c **** 
 753:Drivers/STM32F0xx_HAL_Driver/Src/stm32f0xx_hal_pcd.c **** /**
 754:Drivers/STM32F0xx_HAL_Driver/Src/stm32f0xx_hal_pcd.c ****   * @brief  Deactivate an endpoint
 755:Drivers/STM32F0xx_HAL_Driver/Src/stm32f0xx_hal_pcd.c ****   * @param  hpcd PCD handle
 756:Drivers/STM32F0xx_HAL_Driver/Src/stm32f0xx_hal_pcd.c ****   * @param  ep_addr endpoint address
 757:Drivers/STM32F0xx_HAL_Driver/Src/stm32f0xx_hal_pcd.c ****   * @retval HAL status
 758:Drivers/STM32F0xx_HAL_Driver/Src/stm32f0xx_hal_pcd.c ****   */
 759:Drivers/STM32F0xx_HAL_Driver/Src/stm32f0xx_hal_pcd.c **** HAL_StatusTypeDef HAL_PCD_EP_Close(PCD_HandleTypeDef *hpcd, uint8_t ep_addr)
 760:Drivers/STM32F0xx_HAL_Driver/Src/stm32f0xx_hal_pcd.c **** {  
 1565              		.loc 1 760 1 is_stmt 1 view -0
 1566              		.cfi_startproc
 1567              		@ args = 0, pretend = 0, frame = 0
 1568              		@ frame_needed = 0, uses_anonymous_args = 0
 1569              		.loc 1 760 1 is_stmt 0 view .LVU347
 1570 0000 30B5     		push	{r4, r5, lr}
 1571              	.LCFI6:
 1572              		.cfi_def_cfa_offset 12
 1573              		.cfi_offset 4, -12
 1574              		.cfi_offset 5, -8
 1575              		.cfi_offset 14, -4
 1576 0002 0C00     		movs	r4, r1
 761:Drivers/STM32F0xx_HAL_Driver/Src/stm32f0xx_hal_pcd.c ****   PCD_EPTypeDef *ep;
 1577              		.loc 1 761 3 is_stmt 1 view .LVU348
 762:Drivers/STM32F0xx_HAL_Driver/Src/stm32f0xx_hal_pcd.c ****   
 763:Drivers/STM32F0xx_HAL_Driver/Src/stm32f0xx_hal_pcd.c ****   if ((ep_addr & 0x80U) == 0x80U)
 1578              		.loc 1 763 3 view .LVU349
 1579              		.loc 1 763 25 is_stmt 0 view .LVU350
 1580 0004 4AB2     		sxtb	r2, r1
 1581              		.loc 1 763 6 view .LVU351
 1582 0006 002A     		cmp	r2, #0
 1583 0008 37DB     		blt	.L91
 764:Drivers/STM32F0xx_HAL_Driver/Src/stm32f0xx_hal_pcd.c ****   {
 765:Drivers/STM32F0xx_HAL_Driver/Src/stm32f0xx_hal_pcd.c ****     ep = &hpcd->IN_ep[ep_addr & 0x7FU];
 766:Drivers/STM32F0xx_HAL_Driver/Src/stm32f0xx_hal_pcd.c ****   }
 767:Drivers/STM32F0xx_HAL_Driver/Src/stm32f0xx_hal_pcd.c ****   else
 768:Drivers/STM32F0xx_HAL_Driver/Src/stm32f0xx_hal_pcd.c ****   {
 769:Drivers/STM32F0xx_HAL_Driver/Src/stm32f0xx_hal_pcd.c ****     ep = &hpcd->OUT_ep[ep_addr & 0x7FU];
 1584              		.loc 1 769 5 is_stmt 1 view .LVU352
 1585              		.loc 1 769 32 is_stmt 0 view .LVU353
 1586 000a 7F21     		movs	r1, #127
 1587              	.LVL101:
 1588              		.loc 1 769 32 view .LVU354
 1589 000c 2140     		ands	r1, r4
 1590              		.loc 1 769 8 view .LVU355
 1591 000e CB00     		lsls	r3, r1, #3
 1592 0010 5B1A     		subs	r3, r3, r1
 1593 0012 9B00     		lsls	r3, r3, #2
 1594 0014 0933     		adds	r3, r3, #9
 1595 0016 FF33     		adds	r3, r3, #255
 1596 0018 C318     		adds	r3, r0, r3
 1597              	.LVL102:
ARM GAS  /tmp/ccHm7VQo.s 			page 45


 1598              	.L78:
 770:Drivers/STM32F0xx_HAL_Driver/Src/stm32f0xx_hal_pcd.c ****   }
 771:Drivers/STM32F0xx_HAL_Driver/Src/stm32f0xx_hal_pcd.c ****   ep->num   = ep_addr & 0x7FU;
 1599              		.loc 1 771 3 is_stmt 1 view .LVU356
 1600              		.loc 1 771 23 is_stmt 0 view .LVU357
 1601 001a 7F21     		movs	r1, #127
 1602 001c 2140     		ands	r1, r4
 1603              		.loc 1 771 13 view .LVU358
 1604 001e 1970     		strb	r1, [r3]
 772:Drivers/STM32F0xx_HAL_Driver/Src/stm32f0xx_hal_pcd.c ****   
 773:Drivers/STM32F0xx_HAL_Driver/Src/stm32f0xx_hal_pcd.c ****   ep->is_in = (0x80U & ep_addr) != 0U;
 1605              		.loc 1 773 3 is_stmt 1 view .LVU359
 1606              		.loc 1 773 33 is_stmt 0 view .LVU360
 1607 0020 D20F     		lsrs	r2, r2, #31
 1608              	.LVL103:
 1609              		.loc 1 773 13 view .LVU361
 1610 0022 5A70     		strb	r2, [r3, #1]
 774:Drivers/STM32F0xx_HAL_Driver/Src/stm32f0xx_hal_pcd.c ****   
 775:Drivers/STM32F0xx_HAL_Driver/Src/stm32f0xx_hal_pcd.c ****   __HAL_LOCK(hpcd); 
 1611              		.loc 1 775 3 is_stmt 1 view .LVU362
 1612              		.loc 1 775 3 view .LVU363
 1613 0024 F422     		movs	r2, #244
 1614 0026 5200     		lsls	r2, r2, #1
 1615 0028 825C     		ldrb	r2, [r0, r2]
 1616 002a 012A     		cmp	r2, #1
 1617 002c 00D1     		bne	.LCB1510
 1618 002e ABE0     		b	.L90	@long jump
 1619              	.LCB1510:
 1620              		.loc 1 775 3 discriminator 2 view .LVU364
 1621 0030 F422     		movs	r2, #244
 1622 0032 5200     		lsls	r2, r2, #1
 1623 0034 0121     		movs	r1, #1
 1624 0036 8154     		strb	r1, [r0, r2]
 776:Drivers/STM32F0xx_HAL_Driver/Src/stm32f0xx_hal_pcd.c **** 
 777:Drivers/STM32F0xx_HAL_Driver/Src/stm32f0xx_hal_pcd.c ****   if (ep->doublebuffer == 0U) 
 1625              		.loc 1 777 3 discriminator 2 view .LVU365
 1626              		.loc 1 777 9 is_stmt 0 discriminator 2 view .LVU366
 1627 0038 9A7A     		ldrb	r2, [r3, #10]
 1628              		.loc 1 777 6 discriminator 2 view .LVU367
 1629 003a 002A     		cmp	r2, #0
 1630 003c 3BD1     		bne	.L80
 778:Drivers/STM32F0xx_HAL_Driver/Src/stm32f0xx_hal_pcd.c ****   {
 779:Drivers/STM32F0xx_HAL_Driver/Src/stm32f0xx_hal_pcd.c ****     if (ep->is_in)
 1631              		.loc 1 779 5 is_stmt 1 view .LVU368
 1632              		.loc 1 779 11 is_stmt 0 view .LVU369
 1633 003e 5A78     		ldrb	r2, [r3, #1]
 1634              		.loc 1 779 8 view .LVU370
 1635 0040 002A     		cmp	r2, #0
 1636 0042 22D0     		beq	.L81
 780:Drivers/STM32F0xx_HAL_Driver/Src/stm32f0xx_hal_pcd.c ****     {
 781:Drivers/STM32F0xx_HAL_Driver/Src/stm32f0xx_hal_pcd.c ****       PCD_CLEAR_TX_DTOG(hpcd->Instance, ep->num)
 1637              		.loc 1 781 7 is_stmt 1 view .LVU371
 1638 0044 0168     		ldr	r1, [r0]
 1639 0046 1A78     		ldrb	r2, [r3]
 1640 0048 9200     		lsls	r2, r2, #2
 1641 004a 8C18     		adds	r4, r1, r2
 1642 004c 8A5A     		ldrh	r2, [r1, r2]
ARM GAS  /tmp/ccHm7VQo.s 			page 46


 1643 004e 5106     		lsls	r1, r2, #25
 1644 0050 04D5     		bpl	.L82
 1645              		.loc 1 781 7 discriminator 1 view .LVU372
 1646 0052 4E49     		ldr	r1, .L92
 1647 0054 0A40     		ands	r2, r1
 1648 0056 4E49     		ldr	r1, .L92+4
 1649 0058 0A43     		orrs	r2, r1
 1650 005a 2280     		strh	r2, [r4]
 1651              	.L82:
 1652              	.LBB12:
 782:Drivers/STM32F0xx_HAL_Driver/Src/stm32f0xx_hal_pcd.c ****       /* Configure DISABLE status for the Endpoint*/
 783:Drivers/STM32F0xx_HAL_Driver/Src/stm32f0xx_hal_pcd.c ****       PCD_SET_EP_TX_STATUS(hpcd->Instance, ep->num, USB_EP_TX_DIS)
 1653              		.loc 1 783 7 view .LVU373
 1654              		.loc 1 783 7 view .LVU374
 1655 005c 0468     		ldr	r4, [r0]
 1656 005e 1B78     		ldrb	r3, [r3]
 1657              	.LVL104:
 1658              		.loc 1 783 7 is_stmt 0 view .LVU375
 1659 0060 9B00     		lsls	r3, r3, #2
 1660 0062 E25A     		ldrh	r2, [r4, r3]
 1661 0064 4B49     		ldr	r1, .L92+8
 1662 0066 1140     		ands	r1, r2
 1663              	.LVL105:
 1664              		.loc 1 783 7 is_stmt 1 view .LVU376
 1665              		.loc 1 783 7 view .LVU377
 1666              		.loc 1 783 7 view .LVU378
 1667 0068 4B4A     		ldr	r2, .L92+12
 1668 006a 0A43     		orrs	r2, r1
 1669 006c E252     		strh	r2, [r4, r3]
 1670              	.LVL106:
 1671              	.L83:
 1672              		.loc 1 783 7 is_stmt 0 view .LVU379
 1673              	.LBE12:
 784:Drivers/STM32F0xx_HAL_Driver/Src/stm32f0xx_hal_pcd.c ****     }
 785:Drivers/STM32F0xx_HAL_Driver/Src/stm32f0xx_hal_pcd.c ****     else
 786:Drivers/STM32F0xx_HAL_Driver/Src/stm32f0xx_hal_pcd.c ****     {
 787:Drivers/STM32F0xx_HAL_Driver/Src/stm32f0xx_hal_pcd.c ****       PCD_CLEAR_RX_DTOG(hpcd->Instance, ep->num)
 788:Drivers/STM32F0xx_HAL_Driver/Src/stm32f0xx_hal_pcd.c ****       /* Configure DISABLE status for the Endpoint*/
 789:Drivers/STM32F0xx_HAL_Driver/Src/stm32f0xx_hal_pcd.c ****       PCD_SET_EP_RX_STATUS(hpcd->Instance, ep->num, USB_EP_RX_DIS)
 790:Drivers/STM32F0xx_HAL_Driver/Src/stm32f0xx_hal_pcd.c ****     }
 791:Drivers/STM32F0xx_HAL_Driver/Src/stm32f0xx_hal_pcd.c ****   }
 792:Drivers/STM32F0xx_HAL_Driver/Src/stm32f0xx_hal_pcd.c ****   /*Double Buffer*/
 793:Drivers/STM32F0xx_HAL_Driver/Src/stm32f0xx_hal_pcd.c ****   else
 794:Drivers/STM32F0xx_HAL_Driver/Src/stm32f0xx_hal_pcd.c ****   { 
 795:Drivers/STM32F0xx_HAL_Driver/Src/stm32f0xx_hal_pcd.c ****     if (ep->is_in==0U)
 796:Drivers/STM32F0xx_HAL_Driver/Src/stm32f0xx_hal_pcd.c ****     {
 797:Drivers/STM32F0xx_HAL_Driver/Src/stm32f0xx_hal_pcd.c ****       /* Clear the data toggle bits for the endpoint IN/OUT*/
 798:Drivers/STM32F0xx_HAL_Driver/Src/stm32f0xx_hal_pcd.c ****       PCD_CLEAR_RX_DTOG(hpcd->Instance, ep->num)
 799:Drivers/STM32F0xx_HAL_Driver/Src/stm32f0xx_hal_pcd.c ****       PCD_CLEAR_TX_DTOG(hpcd->Instance, ep->num)
 800:Drivers/STM32F0xx_HAL_Driver/Src/stm32f0xx_hal_pcd.c ****       
 801:Drivers/STM32F0xx_HAL_Driver/Src/stm32f0xx_hal_pcd.c ****       /* Reset value of the data toggle bits for the endpoint out*/
 802:Drivers/STM32F0xx_HAL_Driver/Src/stm32f0xx_hal_pcd.c ****       PCD_TX_DTOG(hpcd->Instance, ep->num);
 803:Drivers/STM32F0xx_HAL_Driver/Src/stm32f0xx_hal_pcd.c ****       
 804:Drivers/STM32F0xx_HAL_Driver/Src/stm32f0xx_hal_pcd.c ****       PCD_SET_EP_RX_STATUS(hpcd->Instance, ep->num, USB_EP_RX_DIS)
 805:Drivers/STM32F0xx_HAL_Driver/Src/stm32f0xx_hal_pcd.c ****       PCD_SET_EP_TX_STATUS(hpcd->Instance, ep->num, USB_EP_TX_DIS)
 806:Drivers/STM32F0xx_HAL_Driver/Src/stm32f0xx_hal_pcd.c ****     }
 807:Drivers/STM32F0xx_HAL_Driver/Src/stm32f0xx_hal_pcd.c ****     else
ARM GAS  /tmp/ccHm7VQo.s 			page 47


 808:Drivers/STM32F0xx_HAL_Driver/Src/stm32f0xx_hal_pcd.c ****     {
 809:Drivers/STM32F0xx_HAL_Driver/Src/stm32f0xx_hal_pcd.c ****       /* Clear the data toggle bits for the endpoint IN/OUT*/
 810:Drivers/STM32F0xx_HAL_Driver/Src/stm32f0xx_hal_pcd.c ****       PCD_CLEAR_RX_DTOG(hpcd->Instance, ep->num)
 811:Drivers/STM32F0xx_HAL_Driver/Src/stm32f0xx_hal_pcd.c ****       PCD_CLEAR_TX_DTOG(hpcd->Instance, ep->num)
 812:Drivers/STM32F0xx_HAL_Driver/Src/stm32f0xx_hal_pcd.c ****       PCD_RX_DTOG(hpcd->Instance, ep->num);
 813:Drivers/STM32F0xx_HAL_Driver/Src/stm32f0xx_hal_pcd.c ****       /* Configure DISABLE status for the Endpoint*/
 814:Drivers/STM32F0xx_HAL_Driver/Src/stm32f0xx_hal_pcd.c ****       PCD_SET_EP_TX_STATUS(hpcd->Instance, ep->num, USB_EP_TX_DIS)
 815:Drivers/STM32F0xx_HAL_Driver/Src/stm32f0xx_hal_pcd.c ****       PCD_SET_EP_RX_STATUS(hpcd->Instance, ep->num, USB_EP_RX_DIS)
 816:Drivers/STM32F0xx_HAL_Driver/Src/stm32f0xx_hal_pcd.c ****     }
 817:Drivers/STM32F0xx_HAL_Driver/Src/stm32f0xx_hal_pcd.c ****   } 
 818:Drivers/STM32F0xx_HAL_Driver/Src/stm32f0xx_hal_pcd.c ****   
 819:Drivers/STM32F0xx_HAL_Driver/Src/stm32f0xx_hal_pcd.c ****   __HAL_UNLOCK(hpcd);   
 1674              		.loc 1 819 3 is_stmt 1 view .LVU380
 1675              		.loc 1 819 3 view .LVU381
 1676 006e F423     		movs	r3, #244
 1677 0070 5B00     		lsls	r3, r3, #1
 1678 0072 0022     		movs	r2, #0
 1679 0074 C254     		strb	r2, [r0, r3]
 820:Drivers/STM32F0xx_HAL_Driver/Src/stm32f0xx_hal_pcd.c ****   return HAL_OK;
 1680              		.loc 1 820 3 view .LVU382
 1681              		.loc 1 820 10 is_stmt 0 view .LVU383
 1682 0076 0020     		movs	r0, #0
 1683              	.LVL107:
 1684              	.L79:
 821:Drivers/STM32F0xx_HAL_Driver/Src/stm32f0xx_hal_pcd.c **** }
 1685              		.loc 1 821 1 view .LVU384
 1686              		@ sp needed
 1687 0078 30BD     		pop	{r4, r5, pc}
 1688              	.LVL108:
 1689              	.L91:
 765:Drivers/STM32F0xx_HAL_Driver/Src/stm32f0xx_hal_pcd.c ****   }
 1690              		.loc 1 765 5 is_stmt 1 view .LVU385
 765:Drivers/STM32F0xx_HAL_Driver/Src/stm32f0xx_hal_pcd.c ****   }
 1691              		.loc 1 765 31 is_stmt 0 view .LVU386
 1692 007a 7F21     		movs	r1, #127
 1693              	.LVL109:
 765:Drivers/STM32F0xx_HAL_Driver/Src/stm32f0xx_hal_pcd.c ****   }
 1694              		.loc 1 765 31 view .LVU387
 1695 007c 2140     		ands	r1, r4
 765:Drivers/STM32F0xx_HAL_Driver/Src/stm32f0xx_hal_pcd.c ****   }
 1696              		.loc 1 765 8 view .LVU388
 1697 007e CB00     		lsls	r3, r1, #3
 1698 0080 5B1A     		subs	r3, r3, r1
 1699 0082 9B00     		lsls	r3, r3, #2
 1700 0084 2833     		adds	r3, r3, #40
 1701 0086 C318     		adds	r3, r0, r3
 1702              	.LVL110:
 765:Drivers/STM32F0xx_HAL_Driver/Src/stm32f0xx_hal_pcd.c ****   }
 1703              		.loc 1 765 8 view .LVU389
 1704 0088 C7E7     		b	.L78
 1705              	.LVL111:
 1706              	.L81:
 787:Drivers/STM32F0xx_HAL_Driver/Src/stm32f0xx_hal_pcd.c ****       /* Configure DISABLE status for the Endpoint*/
 1707              		.loc 1 787 7 is_stmt 1 view .LVU390
 1708 008a 0168     		ldr	r1, [r0]
 1709 008c 1A78     		ldrb	r2, [r3]
 1710 008e 9200     		lsls	r2, r2, #2
ARM GAS  /tmp/ccHm7VQo.s 			page 48


 1711 0090 8C18     		adds	r4, r1, r2
 1712 0092 8A5A     		ldrh	r2, [r1, r2]
 1713 0094 5104     		lsls	r1, r2, #17
 1714 0096 04D5     		bpl	.L84
 787:Drivers/STM32F0xx_HAL_Driver/Src/stm32f0xx_hal_pcd.c ****       /* Configure DISABLE status for the Endpoint*/
 1715              		.loc 1 787 7 discriminator 1 view .LVU391
 1716 0098 3C49     		ldr	r1, .L92
 1717 009a 0A40     		ands	r2, r1
 1718 009c 3F49     		ldr	r1, .L92+16
 1719 009e 0A43     		orrs	r2, r1
 1720 00a0 2280     		strh	r2, [r4]
 1721              	.L84:
 1722              	.LBB13:
 789:Drivers/STM32F0xx_HAL_Driver/Src/stm32f0xx_hal_pcd.c ****     }
 1723              		.loc 1 789 7 view .LVU392
 789:Drivers/STM32F0xx_HAL_Driver/Src/stm32f0xx_hal_pcd.c ****     }
 1724              		.loc 1 789 7 view .LVU393
 1725 00a2 0468     		ldr	r4, [r0]
 1726 00a4 1B78     		ldrb	r3, [r3]
 1727              	.LVL112:
 789:Drivers/STM32F0xx_HAL_Driver/Src/stm32f0xx_hal_pcd.c ****     }
 1728              		.loc 1 789 7 is_stmt 0 view .LVU394
 1729 00a6 9B00     		lsls	r3, r3, #2
 1730 00a8 E25A     		ldrh	r2, [r4, r3]
 1731 00aa 3D49     		ldr	r1, .L92+20
 1732 00ac 1140     		ands	r1, r2
 1733              	.LVL113:
 789:Drivers/STM32F0xx_HAL_Driver/Src/stm32f0xx_hal_pcd.c ****     }
 1734              		.loc 1 789 7 is_stmt 1 view .LVU395
 789:Drivers/STM32F0xx_HAL_Driver/Src/stm32f0xx_hal_pcd.c ****     }
 1735              		.loc 1 789 7 view .LVU396
 789:Drivers/STM32F0xx_HAL_Driver/Src/stm32f0xx_hal_pcd.c ****     }
 1736              		.loc 1 789 7 view .LVU397
 1737 00ae 3A4A     		ldr	r2, .L92+12
 1738 00b0 0A43     		orrs	r2, r1
 1739 00b2 E252     		strh	r2, [r4, r3]
 1740 00b4 DBE7     		b	.L83
 1741              	.LVL114:
 1742              	.L80:
 789:Drivers/STM32F0xx_HAL_Driver/Src/stm32f0xx_hal_pcd.c ****     }
 1743              		.loc 1 789 7 is_stmt 0 view .LVU398
 1744              	.LBE13:
 795:Drivers/STM32F0xx_HAL_Driver/Src/stm32f0xx_hal_pcd.c ****     {
 1745              		.loc 1 795 5 is_stmt 1 view .LVU399
 795:Drivers/STM32F0xx_HAL_Driver/Src/stm32f0xx_hal_pcd.c ****     {
 1746              		.loc 1 795 11 is_stmt 0 view .LVU400
 1747 00b6 5A78     		ldrb	r2, [r3, #1]
 795:Drivers/STM32F0xx_HAL_Driver/Src/stm32f0xx_hal_pcd.c ****     {
 1748              		.loc 1 795 8 view .LVU401
 1749 00b8 002A     		cmp	r2, #0
 1750 00ba 32D1     		bne	.L85
 798:Drivers/STM32F0xx_HAL_Driver/Src/stm32f0xx_hal_pcd.c ****       PCD_CLEAR_TX_DTOG(hpcd->Instance, ep->num)
 1751              		.loc 1 798 7 is_stmt 1 view .LVU402
 1752 00bc 0168     		ldr	r1, [r0]
 1753 00be 1A78     		ldrb	r2, [r3]
 1754 00c0 9200     		lsls	r2, r2, #2
 1755 00c2 8C18     		adds	r4, r1, r2
ARM GAS  /tmp/ccHm7VQo.s 			page 49


 1756 00c4 8A5A     		ldrh	r2, [r1, r2]
 1757 00c6 5104     		lsls	r1, r2, #17
 1758 00c8 04D5     		bpl	.L86
 798:Drivers/STM32F0xx_HAL_Driver/Src/stm32f0xx_hal_pcd.c ****       PCD_CLEAR_TX_DTOG(hpcd->Instance, ep->num)
 1759              		.loc 1 798 7 discriminator 1 view .LVU403
 1760 00ca 3049     		ldr	r1, .L92
 1761 00cc 0A40     		ands	r2, r1
 1762 00ce 3349     		ldr	r1, .L92+16
 1763 00d0 0A43     		orrs	r2, r1
 1764 00d2 2280     		strh	r2, [r4]
 1765              	.L86:
 799:Drivers/STM32F0xx_HAL_Driver/Src/stm32f0xx_hal_pcd.c ****       
 1766              		.loc 1 799 7 view .LVU404
 1767 00d4 0168     		ldr	r1, [r0]
 1768 00d6 1A78     		ldrb	r2, [r3]
 1769 00d8 9200     		lsls	r2, r2, #2
 1770 00da 8C18     		adds	r4, r1, r2
 1771 00dc 8A5A     		ldrh	r2, [r1, r2]
 1772 00de 5106     		lsls	r1, r2, #25
 1773 00e0 04D5     		bpl	.L87
 799:Drivers/STM32F0xx_HAL_Driver/Src/stm32f0xx_hal_pcd.c ****       
 1774              		.loc 1 799 7 discriminator 1 view .LVU405
 1775 00e2 2A49     		ldr	r1, .L92
 1776 00e4 0A40     		ands	r2, r1
 1777 00e6 2A49     		ldr	r1, .L92+4
 1778 00e8 0A43     		orrs	r2, r1
 1779 00ea 2280     		strh	r2, [r4]
 1780              	.L87:
 802:Drivers/STM32F0xx_HAL_Driver/Src/stm32f0xx_hal_pcd.c ****       
 1781              		.loc 1 802 7 view .LVU406
 1782 00ec 0568     		ldr	r5, [r0]
 1783 00ee 1A78     		ldrb	r2, [r3]
 1784 00f0 9200     		lsls	r2, r2, #2
 1785 00f2 A95A     		ldrh	r1, [r5, r2]
 1786 00f4 254C     		ldr	r4, .L92
 1787 00f6 0C40     		ands	r4, r1
 1788 00f8 2549     		ldr	r1, .L92+4
 1789 00fa 2143     		orrs	r1, r4
 1790 00fc A952     		strh	r1, [r5, r2]
 1791              	.LBB14:
 804:Drivers/STM32F0xx_HAL_Driver/Src/stm32f0xx_hal_pcd.c ****       PCD_SET_EP_TX_STATUS(hpcd->Instance, ep->num, USB_EP_TX_DIS)
 1792              		.loc 1 804 7 view .LVU407
 804:Drivers/STM32F0xx_HAL_Driver/Src/stm32f0xx_hal_pcd.c ****       PCD_SET_EP_TX_STATUS(hpcd->Instance, ep->num, USB_EP_TX_DIS)
 1793              		.loc 1 804 7 view .LVU408
 1794 00fe 0568     		ldr	r5, [r0]
 1795 0100 1C78     		ldrb	r4, [r3]
 1796 0102 A400     		lsls	r4, r4, #2
 1797 0104 2A5B     		ldrh	r2, [r5, r4]
 1798 0106 2649     		ldr	r1, .L92+20
 1799 0108 0A40     		ands	r2, r1
 1800              	.LVL115:
 804:Drivers/STM32F0xx_HAL_Driver/Src/stm32f0xx_hal_pcd.c ****       PCD_SET_EP_TX_STATUS(hpcd->Instance, ep->num, USB_EP_TX_DIS)
 1801              		.loc 1 804 7 view .LVU409
 804:Drivers/STM32F0xx_HAL_Driver/Src/stm32f0xx_hal_pcd.c ****       PCD_SET_EP_TX_STATUS(hpcd->Instance, ep->num, USB_EP_TX_DIS)
 1802              		.loc 1 804 7 view .LVU410
 804:Drivers/STM32F0xx_HAL_Driver/Src/stm32f0xx_hal_pcd.c ****       PCD_SET_EP_TX_STATUS(hpcd->Instance, ep->num, USB_EP_TX_DIS)
 1803              		.loc 1 804 7 view .LVU411
ARM GAS  /tmp/ccHm7VQo.s 			page 50


 1804 010a 2349     		ldr	r1, .L92+12
 1805 010c 0A43     		orrs	r2, r1
 1806              	.LVL116:
 804:Drivers/STM32F0xx_HAL_Driver/Src/stm32f0xx_hal_pcd.c ****       PCD_SET_EP_TX_STATUS(hpcd->Instance, ep->num, USB_EP_TX_DIS)
 1807              		.loc 1 804 7 is_stmt 0 view .LVU412
 1808 010e 2A53     		strh	r2, [r5, r4]
 1809              	.LVL117:
 804:Drivers/STM32F0xx_HAL_Driver/Src/stm32f0xx_hal_pcd.c ****       PCD_SET_EP_TX_STATUS(hpcd->Instance, ep->num, USB_EP_TX_DIS)
 1810              		.loc 1 804 7 view .LVU413
 1811              	.LBE14:
 1812              	.LBB15:
 805:Drivers/STM32F0xx_HAL_Driver/Src/stm32f0xx_hal_pcd.c ****     }
 1813              		.loc 1 805 7 is_stmt 1 view .LVU414
 805:Drivers/STM32F0xx_HAL_Driver/Src/stm32f0xx_hal_pcd.c ****     }
 1814              		.loc 1 805 7 view .LVU415
 1815 0110 0468     		ldr	r4, [r0]
 1816 0112 1B78     		ldrb	r3, [r3]
 1817              	.LVL118:
 805:Drivers/STM32F0xx_HAL_Driver/Src/stm32f0xx_hal_pcd.c ****     }
 1818              		.loc 1 805 7 is_stmt 0 view .LVU416
 1819 0114 9B00     		lsls	r3, r3, #2
 1820 0116 E25A     		ldrh	r2, [r4, r3]
 1821 0118 1E4D     		ldr	r5, .L92+8
 1822 011a 2A40     		ands	r2, r5
 1823              	.LVL119:
 805:Drivers/STM32F0xx_HAL_Driver/Src/stm32f0xx_hal_pcd.c ****     }
 1824              		.loc 1 805 7 is_stmt 1 view .LVU417
 805:Drivers/STM32F0xx_HAL_Driver/Src/stm32f0xx_hal_pcd.c ****     }
 1825              		.loc 1 805 7 view .LVU418
 805:Drivers/STM32F0xx_HAL_Driver/Src/stm32f0xx_hal_pcd.c ****     }
 1826              		.loc 1 805 7 view .LVU419
 1827 011c 1143     		orrs	r1, r2
 1828 011e E152     		strh	r1, [r4, r3]
 1829              	.LBE15:
 1830 0120 A5E7     		b	.L83
 1831              	.LVL120:
 1832              	.L85:
 810:Drivers/STM32F0xx_HAL_Driver/Src/stm32f0xx_hal_pcd.c ****       PCD_CLEAR_TX_DTOG(hpcd->Instance, ep->num)
 1833              		.loc 1 810 7 view .LVU420
 1834 0122 0168     		ldr	r1, [r0]
 1835 0124 1A78     		ldrb	r2, [r3]
 1836 0126 9200     		lsls	r2, r2, #2
 1837 0128 8C18     		adds	r4, r1, r2
 1838 012a 8A5A     		ldrh	r2, [r1, r2]
 1839 012c 5104     		lsls	r1, r2, #17
 1840 012e 04D5     		bpl	.L88
 810:Drivers/STM32F0xx_HAL_Driver/Src/stm32f0xx_hal_pcd.c ****       PCD_CLEAR_TX_DTOG(hpcd->Instance, ep->num)
 1841              		.loc 1 810 7 discriminator 1 view .LVU421
 1842 0130 1649     		ldr	r1, .L92
 1843 0132 0A40     		ands	r2, r1
 1844 0134 1949     		ldr	r1, .L92+16
 1845 0136 0A43     		orrs	r2, r1
 1846 0138 2280     		strh	r2, [r4]
 1847              	.L88:
 811:Drivers/STM32F0xx_HAL_Driver/Src/stm32f0xx_hal_pcd.c ****       PCD_RX_DTOG(hpcd->Instance, ep->num);
 1848              		.loc 1 811 7 view .LVU422
 1849 013a 0168     		ldr	r1, [r0]
ARM GAS  /tmp/ccHm7VQo.s 			page 51


 1850 013c 1A78     		ldrb	r2, [r3]
 1851 013e 9200     		lsls	r2, r2, #2
 1852 0140 8C18     		adds	r4, r1, r2
 1853 0142 8A5A     		ldrh	r2, [r1, r2]
 1854 0144 5106     		lsls	r1, r2, #25
 1855 0146 04D5     		bpl	.L89
 811:Drivers/STM32F0xx_HAL_Driver/Src/stm32f0xx_hal_pcd.c ****       PCD_RX_DTOG(hpcd->Instance, ep->num);
 1856              		.loc 1 811 7 discriminator 1 view .LVU423
 1857 0148 1049     		ldr	r1, .L92
 1858 014a 0A40     		ands	r2, r1
 1859 014c 1049     		ldr	r1, .L92+4
 1860 014e 0A43     		orrs	r2, r1
 1861 0150 2280     		strh	r2, [r4]
 1862              	.L89:
 812:Drivers/STM32F0xx_HAL_Driver/Src/stm32f0xx_hal_pcd.c ****       /* Configure DISABLE status for the Endpoint*/
 1863              		.loc 1 812 7 view .LVU424
 1864 0152 0568     		ldr	r5, [r0]
 1865 0154 1A78     		ldrb	r2, [r3]
 1866 0156 9200     		lsls	r2, r2, #2
 1867 0158 A95A     		ldrh	r1, [r5, r2]
 1868 015a 0C4C     		ldr	r4, .L92
 1869 015c 0C40     		ands	r4, r1
 1870 015e 0F49     		ldr	r1, .L92+16
 1871 0160 2143     		orrs	r1, r4
 1872 0162 A952     		strh	r1, [r5, r2]
 1873              	.LBB16:
 814:Drivers/STM32F0xx_HAL_Driver/Src/stm32f0xx_hal_pcd.c ****       PCD_SET_EP_RX_STATUS(hpcd->Instance, ep->num, USB_EP_RX_DIS)
 1874              		.loc 1 814 7 view .LVU425
 814:Drivers/STM32F0xx_HAL_Driver/Src/stm32f0xx_hal_pcd.c ****       PCD_SET_EP_RX_STATUS(hpcd->Instance, ep->num, USB_EP_RX_DIS)
 1875              		.loc 1 814 7 view .LVU426
 1876 0164 0568     		ldr	r5, [r0]
 1877 0166 1C78     		ldrb	r4, [r3]
 1878 0168 A400     		lsls	r4, r4, #2
 1879 016a 2A5B     		ldrh	r2, [r5, r4]
 1880 016c 0949     		ldr	r1, .L92+8
 1881 016e 0A40     		ands	r2, r1
 1882              	.LVL121:
 814:Drivers/STM32F0xx_HAL_Driver/Src/stm32f0xx_hal_pcd.c ****       PCD_SET_EP_RX_STATUS(hpcd->Instance, ep->num, USB_EP_RX_DIS)
 1883              		.loc 1 814 7 view .LVU427
 814:Drivers/STM32F0xx_HAL_Driver/Src/stm32f0xx_hal_pcd.c ****       PCD_SET_EP_RX_STATUS(hpcd->Instance, ep->num, USB_EP_RX_DIS)
 1884              		.loc 1 814 7 view .LVU428
 814:Drivers/STM32F0xx_HAL_Driver/Src/stm32f0xx_hal_pcd.c ****       PCD_SET_EP_RX_STATUS(hpcd->Instance, ep->num, USB_EP_RX_DIS)
 1885              		.loc 1 814 7 view .LVU429
 1886 0170 0949     		ldr	r1, .L92+12
 1887 0172 0A43     		orrs	r2, r1
 1888              	.LVL122:
 814:Drivers/STM32F0xx_HAL_Driver/Src/stm32f0xx_hal_pcd.c ****       PCD_SET_EP_RX_STATUS(hpcd->Instance, ep->num, USB_EP_RX_DIS)
 1889              		.loc 1 814 7 is_stmt 0 view .LVU430
 1890 0174 2A53     		strh	r2, [r5, r4]
 1891              	.LVL123:
 814:Drivers/STM32F0xx_HAL_Driver/Src/stm32f0xx_hal_pcd.c ****       PCD_SET_EP_RX_STATUS(hpcd->Instance, ep->num, USB_EP_RX_DIS)
 1892              		.loc 1 814 7 view .LVU431
 1893              	.LBE16:
 1894              	.LBB17:
 815:Drivers/STM32F0xx_HAL_Driver/Src/stm32f0xx_hal_pcd.c ****     }
 1895              		.loc 1 815 7 is_stmt 1 view .LVU432
 815:Drivers/STM32F0xx_HAL_Driver/Src/stm32f0xx_hal_pcd.c ****     }
ARM GAS  /tmp/ccHm7VQo.s 			page 52


 1896              		.loc 1 815 7 view .LVU433
 1897 0176 0468     		ldr	r4, [r0]
 1898 0178 1B78     		ldrb	r3, [r3]
 1899              	.LVL124:
 815:Drivers/STM32F0xx_HAL_Driver/Src/stm32f0xx_hal_pcd.c ****     }
 1900              		.loc 1 815 7 is_stmt 0 view .LVU434
 1901 017a 9B00     		lsls	r3, r3, #2
 1902 017c E25A     		ldrh	r2, [r4, r3]
 1903 017e 084D     		ldr	r5, .L92+20
 1904 0180 2A40     		ands	r2, r5
 1905              	.LVL125:
 815:Drivers/STM32F0xx_HAL_Driver/Src/stm32f0xx_hal_pcd.c ****     }
 1906              		.loc 1 815 7 is_stmt 1 view .LVU435
 815:Drivers/STM32F0xx_HAL_Driver/Src/stm32f0xx_hal_pcd.c ****     }
 1907              		.loc 1 815 7 view .LVU436
 815:Drivers/STM32F0xx_HAL_Driver/Src/stm32f0xx_hal_pcd.c ****     }
 1908              		.loc 1 815 7 view .LVU437
 1909 0182 1143     		orrs	r1, r2
 1910 0184 E152     		strh	r1, [r4, r3]
 1911 0186 72E7     		b	.L83
 1912              	.LVL126:
 1913              	.L90:
 815:Drivers/STM32F0xx_HAL_Driver/Src/stm32f0xx_hal_pcd.c ****     }
 1914              		.loc 1 815 7 is_stmt 0 view .LVU438
 1915              	.LBE17:
 775:Drivers/STM32F0xx_HAL_Driver/Src/stm32f0xx_hal_pcd.c **** 
 1916              		.loc 1 775 3 view .LVU439
 1917 0188 0220     		movs	r0, #2
 1918              	.LVL127:
 775:Drivers/STM32F0xx_HAL_Driver/Src/stm32f0xx_hal_pcd.c **** 
 1919              		.loc 1 775 3 view .LVU440
 1920 018a 75E7     		b	.L79
 1921              	.L93:
 1922              		.align	2
 1923              	.L92:
 1924 018c 0F0F0000 		.word	3855
 1925 0190 C080FFFF 		.word	-32576
 1926 0194 BF8FFFFF 		.word	-28737
 1927 0198 8080FFFF 		.word	-32640
 1928 019c 80C0FFFF 		.word	-16256
 1929 01a0 8FBFFFFF 		.word	-16497
 1930              		.cfi_endproc
 1931              	.LFE59:
 1933              		.section	.text.HAL_PCD_EP_Receive,"ax",%progbits
 1934              		.align	1
 1935              		.global	HAL_PCD_EP_Receive
 1936              		.syntax unified
 1937              		.code	16
 1938              		.thumb_func
 1939              		.fpu softvfp
 1941              	HAL_PCD_EP_Receive:
 1942              	.LVL128:
 1943              	.LFB60:
 822:Drivers/STM32F0xx_HAL_Driver/Src/stm32f0xx_hal_pcd.c **** 
 823:Drivers/STM32F0xx_HAL_Driver/Src/stm32f0xx_hal_pcd.c **** 
 824:Drivers/STM32F0xx_HAL_Driver/Src/stm32f0xx_hal_pcd.c **** /**
 825:Drivers/STM32F0xx_HAL_Driver/Src/stm32f0xx_hal_pcd.c ****   * @brief  Receive an amount of data  
ARM GAS  /tmp/ccHm7VQo.s 			page 53


 826:Drivers/STM32F0xx_HAL_Driver/Src/stm32f0xx_hal_pcd.c ****   * @param  hpcd PCD handle
 827:Drivers/STM32F0xx_HAL_Driver/Src/stm32f0xx_hal_pcd.c ****   * @param  ep_addr endpoint address
 828:Drivers/STM32F0xx_HAL_Driver/Src/stm32f0xx_hal_pcd.c ****   * @param  pBuf pointer to the reception buffer   
 829:Drivers/STM32F0xx_HAL_Driver/Src/stm32f0xx_hal_pcd.c ****   * @param  len amount of data to be received
 830:Drivers/STM32F0xx_HAL_Driver/Src/stm32f0xx_hal_pcd.c ****   * @retval HAL status
 831:Drivers/STM32F0xx_HAL_Driver/Src/stm32f0xx_hal_pcd.c ****   */
 832:Drivers/STM32F0xx_HAL_Driver/Src/stm32f0xx_hal_pcd.c **** HAL_StatusTypeDef HAL_PCD_EP_Receive(PCD_HandleTypeDef *hpcd, uint8_t ep_addr, uint8_t *pBuf, uint3
 833:Drivers/STM32F0xx_HAL_Driver/Src/stm32f0xx_hal_pcd.c **** {
 1944              		.loc 1 833 1 is_stmt 1 view -0
 1945              		.cfi_startproc
 1946              		@ args = 0, pretend = 0, frame = 0
 1947              		@ frame_needed = 0, uses_anonymous_args = 0
 1948              		.loc 1 833 1 is_stmt 0 view .LVU442
 1949 0000 30B5     		push	{r4, r5, lr}
 1950              	.LCFI7:
 1951              		.cfi_def_cfa_offset 12
 1952              		.cfi_offset 4, -12
 1953              		.cfi_offset 5, -8
 1954              		.cfi_offset 14, -4
 834:Drivers/STM32F0xx_HAL_Driver/Src/stm32f0xx_hal_pcd.c ****   
 835:Drivers/STM32F0xx_HAL_Driver/Src/stm32f0xx_hal_pcd.c ****  PCD_EPTypeDef *ep;
 1955              		.loc 1 835 2 is_stmt 1 view .LVU443
 836:Drivers/STM32F0xx_HAL_Driver/Src/stm32f0xx_hal_pcd.c ****   
 837:Drivers/STM32F0xx_HAL_Driver/Src/stm32f0xx_hal_pcd.c ****   ep = &hpcd->OUT_ep[ep_addr & 0x7FU];
 1956              		.loc 1 837 3 view .LVU444
 1957 0002 7F24     		movs	r4, #127
 1958 0004 2140     		ands	r1, r4
 1959              	.LVL129:
 838:Drivers/STM32F0xx_HAL_Driver/Src/stm32f0xx_hal_pcd.c ****   
 839:Drivers/STM32F0xx_HAL_Driver/Src/stm32f0xx_hal_pcd.c ****   /*setup and start the Xfer */
 840:Drivers/STM32F0xx_HAL_Driver/Src/stm32f0xx_hal_pcd.c ****   ep->xfer_buff = pBuf;  
 1960              		.loc 1 840 3 view .LVU445
 1961              		.loc 1 840 17 is_stmt 0 view .LVU446
 1962 0006 CC00     		lsls	r4, r1, #3
 1963 0008 641A     		subs	r4, r4, r1
 1964 000a A400     		lsls	r4, r4, #2
 1965 000c 0419     		adds	r4, r0, r4
 1966 000e 2500     		movs	r5, r4
 1967 0010 1935     		adds	r5, r5, #25
 1968 0012 FF35     		adds	r5, r5, #255
 1969 0014 2A60     		str	r2, [r5]
 841:Drivers/STM32F0xx_HAL_Driver/Src/stm32f0xx_hal_pcd.c ****   ep->xfer_len = len;
 1970              		.loc 1 841 3 is_stmt 1 view .LVU447
 1971              		.loc 1 841 16 is_stmt 0 view .LVU448
 1972 0016 2200     		movs	r2, r4
 1973              	.LVL130:
 1974              		.loc 1 841 16 view .LVU449
 1975 0018 1D32     		adds	r2, r2, #29
 1976 001a FF32     		adds	r2, r2, #255
 1977 001c 1360     		str	r3, [r2]
 842:Drivers/STM32F0xx_HAL_Driver/Src/stm32f0xx_hal_pcd.c ****   ep->xfer_count = 0U;
 1978              		.loc 1 842 3 is_stmt 1 view .LVU450
 1979              		.loc 1 842 18 is_stmt 0 view .LVU451
 1980 001e 0835     		adds	r5, r5, #8
 1981              	.LVL131:
 1982              		.loc 1 842 18 view .LVU452
 1983 0020 0022     		movs	r2, #0
ARM GAS  /tmp/ccHm7VQo.s 			page 54


 1984 0022 2A60     		str	r2, [r5]
 843:Drivers/STM32F0xx_HAL_Driver/Src/stm32f0xx_hal_pcd.c ****   ep->is_in = 0U;
 1985              		.loc 1 843 3 is_stmt 1 view .LVU453
 1986              		.loc 1 843 13 is_stmt 0 view .LVU454
 1987 0024 173D     		subs	r5, r5, #23
 1988              	.LVL132:
 1989              		.loc 1 843 13 view .LVU455
 1990 0026 2A70     		strb	r2, [r5]
 844:Drivers/STM32F0xx_HAL_Driver/Src/stm32f0xx_hal_pcd.c ****   ep->num = ep_addr & 0x7FU;
 1991              		.loc 1 844 3 is_stmt 1 view .LVU456
 1992              		.loc 1 844 11 is_stmt 0 view .LVU457
 1993 0028 2200     		movs	r2, r4
 1994 002a 0932     		adds	r2, r2, #9
 1995 002c FF32     		adds	r2, r2, #255
 1996 002e 1170     		strb	r1, [r2]
 845:Drivers/STM32F0xx_HAL_Driver/Src/stm32f0xx_hal_pcd.c ****    
 846:Drivers/STM32F0xx_HAL_Driver/Src/stm32f0xx_hal_pcd.c ****   /* Multi packet transfer*/
 847:Drivers/STM32F0xx_HAL_Driver/Src/stm32f0xx_hal_pcd.c ****   if (ep->xfer_len > ep->maxpacket)
 1997              		.loc 1 847 3 is_stmt 1 view .LVU458
 1998              		.loc 1 847 24 is_stmt 0 view .LVU459
 1999 0030 1534     		adds	r4, r4, #21
 2000 0032 FF34     		adds	r4, r4, #255
 2001 0034 2268     		ldr	r2, [r4]
 2002              		.loc 1 847 6 view .LVU460
 2003 0036 9342     		cmp	r3, r2
 2004 0038 41D9     		bls	.L95
 848:Drivers/STM32F0xx_HAL_Driver/Src/stm32f0xx_hal_pcd.c ****   {
 849:Drivers/STM32F0xx_HAL_Driver/Src/stm32f0xx_hal_pcd.c ****     len=ep->maxpacket;
 2005              		.loc 1 849 5 is_stmt 1 view .LVU461
 2006              	.LVL133:
 850:Drivers/STM32F0xx_HAL_Driver/Src/stm32f0xx_hal_pcd.c ****     ep->xfer_len-=len; 
 2007              		.loc 1 850 5 view .LVU462
 2008              		.loc 1 850 17 is_stmt 0 view .LVU463
 2009 003a CC00     		lsls	r4, r1, #3
 2010 003c 641A     		subs	r4, r4, r1
 2011 003e A400     		lsls	r4, r4, #2
 2012 0040 0419     		adds	r4, r0, r4
 2013 0042 1D34     		adds	r4, r4, #29
 2014 0044 FF34     		adds	r4, r4, #255
 2015 0046 9B1A     		subs	r3, r3, r2
 2016 0048 2360     		str	r3, [r4]
 2017              	.LVL134:
 2018              	.L96:
 851:Drivers/STM32F0xx_HAL_Driver/Src/stm32f0xx_hal_pcd.c ****   }
 852:Drivers/STM32F0xx_HAL_Driver/Src/stm32f0xx_hal_pcd.c ****   else
 853:Drivers/STM32F0xx_HAL_Driver/Src/stm32f0xx_hal_pcd.c ****   {
 854:Drivers/STM32F0xx_HAL_Driver/Src/stm32f0xx_hal_pcd.c ****     len=ep->xfer_len;
 855:Drivers/STM32F0xx_HAL_Driver/Src/stm32f0xx_hal_pcd.c ****     ep->xfer_len =0U;
 856:Drivers/STM32F0xx_HAL_Driver/Src/stm32f0xx_hal_pcd.c ****   }
 857:Drivers/STM32F0xx_HAL_Driver/Src/stm32f0xx_hal_pcd.c ****   
 858:Drivers/STM32F0xx_HAL_Driver/Src/stm32f0xx_hal_pcd.c ****   /* configure and validate Rx endpoint */
 859:Drivers/STM32F0xx_HAL_Driver/Src/stm32f0xx_hal_pcd.c ****   if (ep->doublebuffer == 0) 
 2019              		.loc 1 859 3 is_stmt 1 view .LVU464
 2020              		.loc 1 859 9 is_stmt 0 view .LVU465
 2021 004a CB00     		lsls	r3, r1, #3
 2022 004c 5B1A     		subs	r3, r3, r1
 2023 004e 9B00     		lsls	r3, r3, #2
ARM GAS  /tmp/ccHm7VQo.s 			page 55


 2024 0050 C318     		adds	r3, r0, r3
 2025 0052 1333     		adds	r3, r3, #19
 2026 0054 FF33     		adds	r3, r3, #255
 2027 0056 1B78     		ldrb	r3, [r3]
 2028              		.loc 1 859 6 view .LVU466
 2029 0058 002B     		cmp	r3, #0
 2030 005a 43D1     		bne	.L97
 2031              	.LBB18:
 860:Drivers/STM32F0xx_HAL_Driver/Src/stm32f0xx_hal_pcd.c ****   {
 861:Drivers/STM32F0xx_HAL_Driver/Src/stm32f0xx_hal_pcd.c ****     /*Set RX buffer count*/
 862:Drivers/STM32F0xx_HAL_Driver/Src/stm32f0xx_hal_pcd.c ****     PCD_SET_EP_RX_CNT(hpcd->Instance, ep->num, len)
 2032              		.loc 1 862 5 is_stmt 1 view .LVU467
 2033 005c 0468     		ldr	r4, [r0]
 2034 005e 5033     		adds	r3, r3, #80
 2035 0060 E55A     		ldrh	r5, [r4, r3]
 2036 0062 CB00     		lsls	r3, r1, #3
 2037 0064 5B1A     		subs	r3, r3, r1
 2038 0066 9B00     		lsls	r3, r3, #2
 2039 0068 C318     		adds	r3, r0, r3
 2040 006a 0933     		adds	r3, r3, #9
 2041 006c FF33     		adds	r3, r3, #255
 2042 006e 1B78     		ldrb	r3, [r3]
 2043 0070 DB00     		lsls	r3, r3, #3
 2044 0072 EB18     		adds	r3, r5, r3
 2045 0074 1C19     		adds	r4, r3, r4
 2046 0076 604B     		ldr	r3, .L112
 2047 0078 9C46     		mov	ip, r3
 2048 007a 6444     		add	r4, r4, ip
 2049              	.LVL135:
 2050              	.LBB19:
 2051              		.loc 1 862 5 view .LVU468
 2052              		.loc 1 862 5 view .LVU469
 2053 007c 3E2A     		cmp	r2, #62
 2054 007e 28D9     		bls	.L98
 2055              		.loc 1 862 5 discriminator 1 view .LVU470
 2056 0080 5309     		lsrs	r3, r2, #5
 2057 0082 9BB2     		uxth	r3, r3
 2058              	.LVL136:
 2059              		.loc 1 862 5 discriminator 1 view .LVU471
 2060 0084 D206     		lsls	r2, r2, #27
 2061 0086 01D1     		bne	.L99
 2062              	.LVL137:
 2063              		.loc 1 862 5 discriminator 3 view .LVU472
 2064 0088 013B     		subs	r3, r3, #1
 2065              	.LVL138:
 2066              		.loc 1 862 5 is_stmt 0 discriminator 3 view .LVU473
 2067 008a 9BB2     		uxth	r3, r3
 2068              	.LVL139:
 2069              	.L99:
 2070              		.loc 1 862 5 is_stmt 1 discriminator 5 view .LVU474
 2071 008c 9B02     		lsls	r3, r3, #10
 2072              	.LVL140:
 2073              		.loc 1 862 5 is_stmt 0 discriminator 5 view .LVU475
 2074 008e 9BB2     		uxth	r3, r3
 2075 0090 5A4A     		ldr	r2, .L112+4
 2076 0092 1343     		orrs	r3, r2
 2077 0094 2380     		strh	r3, [r4]
ARM GAS  /tmp/ccHm7VQo.s 			page 56


 2078              	.LVL141:
 2079              	.L100:
 2080              		.loc 1 862 5 discriminator 5 view .LVU476
 2081              	.LBE19:
 2082              	.LBE18:
 2083              	.LBB21:
 863:Drivers/STM32F0xx_HAL_Driver/Src/stm32f0xx_hal_pcd.c ****   }
 864:Drivers/STM32F0xx_HAL_Driver/Src/stm32f0xx_hal_pcd.c ****   else
 865:Drivers/STM32F0xx_HAL_Driver/Src/stm32f0xx_hal_pcd.c ****   {
 866:Drivers/STM32F0xx_HAL_Driver/Src/stm32f0xx_hal_pcd.c ****     /*Set the Double buffer counter*/
 867:Drivers/STM32F0xx_HAL_Driver/Src/stm32f0xx_hal_pcd.c ****     PCD_SET_EP_DBUF_CNT(hpcd->Instance, ep->num, ep->is_in, len)
 868:Drivers/STM32F0xx_HAL_Driver/Src/stm32f0xx_hal_pcd.c ****   } 
 869:Drivers/STM32F0xx_HAL_Driver/Src/stm32f0xx_hal_pcd.c ****   
 870:Drivers/STM32F0xx_HAL_Driver/Src/stm32f0xx_hal_pcd.c ****   PCD_SET_EP_RX_STATUS(hpcd->Instance, ep->num, USB_EP_RX_VALID)
 2084              		.loc 1 870 3 is_stmt 1 view .LVU477
 2085              		.loc 1 870 3 view .LVU478
 2086 0096 0468     		ldr	r4, [r0]
 2087 0098 CB00     		lsls	r3, r1, #3
 2088 009a 591A     		subs	r1, r3, r1
 2089              	.LVL142:
 2090              		.loc 1 870 3 is_stmt 0 view .LVU479
 2091 009c 8900     		lsls	r1, r1, #2
 2092 009e 4018     		adds	r0, r0, r1
 2093              	.LVL143:
 2094              		.loc 1 870 3 view .LVU480
 2095 00a0 0930     		adds	r0, r0, #9
 2096 00a2 FF30     		adds	r0, r0, #255
 2097 00a4 0378     		ldrb	r3, [r0]
 2098 00a6 9B00     		lsls	r3, r3, #2
 2099 00a8 E15A     		ldrh	r1, [r4, r3]
 2100 00aa 554A     		ldr	r2, .L112+8
 2101 00ac 1140     		ands	r1, r2
 2102              	.LVL144:
 2103              		.loc 1 870 3 is_stmt 1 view .LVU481
 2104              		.loc 1 870 3 view .LVU482
 2105              		.loc 1 870 3 view .LVU483
 2106              		.loc 1 870 3 view .LVU484
 2107 00ae C022     		movs	r2, #192
 2108 00b0 9201     		lsls	r2, r2, #6
 2109 00b2 5140     		eors	r1, r2
 2110              	.LVL145:
 2111              		.loc 1 870 3 view .LVU485
 2112 00b4 534A     		ldr	r2, .L112+12
 2113 00b6 0A43     		orrs	r2, r1
 2114 00b8 E252     		strh	r2, [r4, r3]
 2115              	.LBE21:
 871:Drivers/STM32F0xx_HAL_Driver/Src/stm32f0xx_hal_pcd.c ****   
 872:Drivers/STM32F0xx_HAL_Driver/Src/stm32f0xx_hal_pcd.c ****   return HAL_OK;
 2116              		.loc 1 872 3 view .LVU486
 873:Drivers/STM32F0xx_HAL_Driver/Src/stm32f0xx_hal_pcd.c **** }
 2117              		.loc 1 873 1 is_stmt 0 view .LVU487
 2118 00ba 0020     		movs	r0, #0
 2119              		@ sp needed
 2120 00bc 30BD     		pop	{r4, r5, pc}
 2121              	.LVL146:
 2122              	.L95:
 854:Drivers/STM32F0xx_HAL_Driver/Src/stm32f0xx_hal_pcd.c ****     ep->xfer_len =0U;
ARM GAS  /tmp/ccHm7VQo.s 			page 57


 2123              		.loc 1 854 5 is_stmt 1 view .LVU488
 855:Drivers/STM32F0xx_HAL_Driver/Src/stm32f0xx_hal_pcd.c ****   }
 2124              		.loc 1 855 5 view .LVU489
 855:Drivers/STM32F0xx_HAL_Driver/Src/stm32f0xx_hal_pcd.c ****   }
 2125              		.loc 1 855 18 is_stmt 0 view .LVU490
 2126 00be CA00     		lsls	r2, r1, #3
 2127 00c0 521A     		subs	r2, r2, r1
 2128 00c2 9200     		lsls	r2, r2, #2
 2129 00c4 8218     		adds	r2, r0, r2
 2130 00c6 1D32     		adds	r2, r2, #29
 2131 00c8 FF32     		adds	r2, r2, #255
 2132 00ca 0024     		movs	r4, #0
 2133 00cc 1460     		str	r4, [r2]
 2134              	.LVL147:
 854:Drivers/STM32F0xx_HAL_Driver/Src/stm32f0xx_hal_pcd.c ****     ep->xfer_len =0U;
 2135              		.loc 1 854 8 view .LVU491
 2136 00ce 1A00     		movs	r2, r3
 2137 00d0 BBE7     		b	.L96
 2138              	.LVL148:
 2139              	.L98:
 2140              	.LBB22:
 2141              	.LBB20:
 862:Drivers/STM32F0xx_HAL_Driver/Src/stm32f0xx_hal_pcd.c ****   }
 2142              		.loc 1 862 5 is_stmt 1 discriminator 2 view .LVU492
 2143 00d2 5308     		lsrs	r3, r2, #1
 2144 00d4 9BB2     		uxth	r3, r3
 2145              	.LVL149:
 862:Drivers/STM32F0xx_HAL_Driver/Src/stm32f0xx_hal_pcd.c ****   }
 2146              		.loc 1 862 5 discriminator 2 view .LVU493
 2147 00d6 D207     		lsls	r2, r2, #31
 2148 00d8 01D5     		bpl	.L101
 2149              	.LVL150:
 862:Drivers/STM32F0xx_HAL_Driver/Src/stm32f0xx_hal_pcd.c ****   }
 2150              		.loc 1 862 5 discriminator 6 view .LVU494
 2151 00da 0133     		adds	r3, r3, #1
 2152              	.LVL151:
 862:Drivers/STM32F0xx_HAL_Driver/Src/stm32f0xx_hal_pcd.c ****   }
 2153              		.loc 1 862 5 is_stmt 0 discriminator 6 view .LVU495
 2154 00dc 9BB2     		uxth	r3, r3
 2155              	.LVL152:
 2156              	.L101:
 862:Drivers/STM32F0xx_HAL_Driver/Src/stm32f0xx_hal_pcd.c ****   }
 2157              		.loc 1 862 5 is_stmt 1 discriminator 8 view .LVU496
 2158 00de 9B02     		lsls	r3, r3, #10
 2159              	.LVL153:
 862:Drivers/STM32F0xx_HAL_Driver/Src/stm32f0xx_hal_pcd.c ****   }
 2160              		.loc 1 862 5 is_stmt 0 discriminator 8 view .LVU497
 2161 00e0 2380     		strh	r3, [r4]
 2162 00e2 D8E7     		b	.L100
 2163              	.LVL154:
 2164              	.L97:
 862:Drivers/STM32F0xx_HAL_Driver/Src/stm32f0xx_hal_pcd.c ****   }
 2165              		.loc 1 862 5 discriminator 8 view .LVU498
 2166              	.LBE20:
 2167              	.LBE22:
 867:Drivers/STM32F0xx_HAL_Driver/Src/stm32f0xx_hal_pcd.c ****   } 
 2168              		.loc 1 867 5 is_stmt 1 view .LVU499
ARM GAS  /tmp/ccHm7VQo.s 			page 58


 2169 00e4 CB00     		lsls	r3, r1, #3
 2170 00e6 5B1A     		subs	r3, r3, r1
 2171 00e8 9B00     		lsls	r3, r3, #2
 2172 00ea C318     		adds	r3, r0, r3
 2173 00ec 0A33     		adds	r3, r3, #10
 2174 00ee FF33     		adds	r3, r3, #255
 2175 00f0 1B78     		ldrb	r3, [r3]
 2176 00f2 002B     		cmp	r3, #0
 2177 00f4 26D1     		bne	.L102
 2178              	.LBB23:
 867:Drivers/STM32F0xx_HAL_Driver/Src/stm32f0xx_hal_pcd.c ****   } 
 2179              		.loc 1 867 5 discriminator 1 view .LVU500
 2180 00f6 0468     		ldr	r4, [r0]
 2181 00f8 5033     		adds	r3, r3, #80
 2182 00fa E55A     		ldrh	r5, [r4, r3]
 2183 00fc CB00     		lsls	r3, r1, #3
 2184 00fe 5B1A     		subs	r3, r3, r1
 2185 0100 9B00     		lsls	r3, r3, #2
 2186 0102 C318     		adds	r3, r0, r3
 2187 0104 0933     		adds	r3, r3, #9
 2188 0106 FF33     		adds	r3, r3, #255
 2189 0108 1B78     		ldrb	r3, [r3]
 2190 010a DB00     		lsls	r3, r3, #3
 2191 010c EB18     		adds	r3, r5, r3
 2192 010e 1C19     		adds	r4, r3, r4
 2193 0110 3D4B     		ldr	r3, .L112+16
 2194 0112 9C46     		mov	ip, r3
 2195 0114 6444     		add	r4, r4, ip
 2196              	.LVL155:
 2197              	.LBB24:
 867:Drivers/STM32F0xx_HAL_Driver/Src/stm32f0xx_hal_pcd.c ****   } 
 2198              		.loc 1 867 5 discriminator 1 view .LVU501
 867:Drivers/STM32F0xx_HAL_Driver/Src/stm32f0xx_hal_pcd.c ****   } 
 2199              		.loc 1 867 5 discriminator 1 view .LVU502
 2200 0116 3E2A     		cmp	r2, #62
 2201 0118 0BD9     		bls	.L103
 867:Drivers/STM32F0xx_HAL_Driver/Src/stm32f0xx_hal_pcd.c ****   } 
 2202              		.loc 1 867 5 discriminator 3 view .LVU503
 2203 011a 5309     		lsrs	r3, r2, #5
 2204 011c 9BB2     		uxth	r3, r3
 2205              	.LVL156:
 867:Drivers/STM32F0xx_HAL_Driver/Src/stm32f0xx_hal_pcd.c ****   } 
 2206              		.loc 1 867 5 discriminator 3 view .LVU504
 2207 011e D506     		lsls	r5, r2, #27
 2208 0120 01D1     		bne	.L104
 867:Drivers/STM32F0xx_HAL_Driver/Src/stm32f0xx_hal_pcd.c ****   } 
 2209              		.loc 1 867 5 discriminator 5 view .LVU505
 2210 0122 013B     		subs	r3, r3, #1
 2211              	.LVL157:
 867:Drivers/STM32F0xx_HAL_Driver/Src/stm32f0xx_hal_pcd.c ****   } 
 2212              		.loc 1 867 5 is_stmt 0 discriminator 5 view .LVU506
 2213 0124 9BB2     		uxth	r3, r3
 2214              	.LVL158:
 2215              	.L104:
 867:Drivers/STM32F0xx_HAL_Driver/Src/stm32f0xx_hal_pcd.c ****   } 
 2216              		.loc 1 867 5 is_stmt 1 discriminator 7 view .LVU507
 2217 0126 9B02     		lsls	r3, r3, #10
ARM GAS  /tmp/ccHm7VQo.s 			page 59


 2218              	.LVL159:
 867:Drivers/STM32F0xx_HAL_Driver/Src/stm32f0xx_hal_pcd.c ****   } 
 2219              		.loc 1 867 5 is_stmt 0 discriminator 7 view .LVU508
 2220 0128 9BB2     		uxth	r3, r3
 2221 012a 344D     		ldr	r5, .L112+4
 2222 012c 2B43     		orrs	r3, r5
 2223 012e 2380     		strh	r3, [r4]
 2224 0130 0AE0     		b	.L105
 2225              	.L103:
 867:Drivers/STM32F0xx_HAL_Driver/Src/stm32f0xx_hal_pcd.c ****   } 
 2226              		.loc 1 867 5 is_stmt 1 discriminator 4 view .LVU509
 2227 0132 5308     		lsrs	r3, r2, #1
 2228 0134 9BB2     		uxth	r3, r3
 2229              	.LVL160:
 867:Drivers/STM32F0xx_HAL_Driver/Src/stm32f0xx_hal_pcd.c ****   } 
 2230              		.loc 1 867 5 discriminator 4 view .LVU510
 2231 0136 D507     		lsls	r5, r2, #31
 2232 0138 01D5     		bpl	.L106
 867:Drivers/STM32F0xx_HAL_Driver/Src/stm32f0xx_hal_pcd.c ****   } 
 2233              		.loc 1 867 5 discriminator 8 view .LVU511
 2234 013a 0133     		adds	r3, r3, #1
 2235              	.LVL161:
 867:Drivers/STM32F0xx_HAL_Driver/Src/stm32f0xx_hal_pcd.c ****   } 
 2236              		.loc 1 867 5 is_stmt 0 discriminator 8 view .LVU512
 2237 013c 9BB2     		uxth	r3, r3
 2238              	.LVL162:
 2239              	.L106:
 867:Drivers/STM32F0xx_HAL_Driver/Src/stm32f0xx_hal_pcd.c ****   } 
 2240              		.loc 1 867 5 is_stmt 1 discriminator 10 view .LVU513
 2241 013e 9B02     		lsls	r3, r3, #10
 2242              	.LVL163:
 867:Drivers/STM32F0xx_HAL_Driver/Src/stm32f0xx_hal_pcd.c ****   } 
 2243              		.loc 1 867 5 is_stmt 0 discriminator 10 view .LVU514
 2244 0140 2380     		strh	r3, [r4]
 2245 0142 01E0     		b	.L105
 2246              	.LVL164:
 2247              	.L102:
 867:Drivers/STM32F0xx_HAL_Driver/Src/stm32f0xx_hal_pcd.c ****   } 
 2248              		.loc 1 867 5 discriminator 10 view .LVU515
 2249              	.LBE24:
 2250              	.LBE23:
 867:Drivers/STM32F0xx_HAL_Driver/Src/stm32f0xx_hal_pcd.c ****   } 
 2251              		.loc 1 867 5 is_stmt 1 discriminator 2 view .LVU516
 2252 0144 012B     		cmp	r3, #1
 2253 0146 26D0     		beq	.L111
 2254              	.L105:
 867:Drivers/STM32F0xx_HAL_Driver/Src/stm32f0xx_hal_pcd.c ****   } 
 2255              		.loc 1 867 5 discriminator 13 view .LVU517
 2256 0148 CB00     		lsls	r3, r1, #3
 2257 014a 5B1A     		subs	r3, r3, r1
 2258 014c 9B00     		lsls	r3, r3, #2
 2259 014e C318     		adds	r3, r0, r3
 2260 0150 0A33     		adds	r3, r3, #10
 2261 0152 FF33     		adds	r3, r3, #255
 2262 0154 1B78     		ldrb	r3, [r3]
 2263 0156 002B     		cmp	r3, #0
 2264 0158 38D1     		bne	.L107
ARM GAS  /tmp/ccHm7VQo.s 			page 60


 2265              	.LBB25:
 867:Drivers/STM32F0xx_HAL_Driver/Src/stm32f0xx_hal_pcd.c ****   } 
 2266              		.loc 1 867 5 discriminator 14 view .LVU518
 2267 015a 0468     		ldr	r4, [r0]
 2268 015c 5033     		adds	r3, r3, #80
 2269 015e E55A     		ldrh	r5, [r4, r3]
 2270 0160 CB00     		lsls	r3, r1, #3
 2271 0162 5B1A     		subs	r3, r3, r1
 2272 0164 9B00     		lsls	r3, r3, #2
 2273 0166 C318     		adds	r3, r0, r3
 2274 0168 0933     		adds	r3, r3, #9
 2275 016a FF33     		adds	r3, r3, #255
 2276 016c 1B78     		ldrb	r3, [r3]
 2277 016e DB00     		lsls	r3, r3, #3
 2278 0170 EB18     		adds	r3, r5, r3
 2279 0172 1C19     		adds	r4, r3, r4
 2280 0174 204B     		ldr	r3, .L112
 2281 0176 9C46     		mov	ip, r3
 2282 0178 6444     		add	r4, r4, ip
 2283              	.LVL165:
 2284              	.LBB26:
 867:Drivers/STM32F0xx_HAL_Driver/Src/stm32f0xx_hal_pcd.c ****   } 
 2285              		.loc 1 867 5 discriminator 14 view .LVU519
 867:Drivers/STM32F0xx_HAL_Driver/Src/stm32f0xx_hal_pcd.c ****   } 
 2286              		.loc 1 867 5 discriminator 14 view .LVU520
 2287 017a 3E2A     		cmp	r2, #62
 2288 017c 1DD9     		bls	.L108
 867:Drivers/STM32F0xx_HAL_Driver/Src/stm32f0xx_hal_pcd.c ****   } 
 2289              		.loc 1 867 5 discriminator 16 view .LVU521
 2290 017e 5309     		lsrs	r3, r2, #5
 2291 0180 9BB2     		uxth	r3, r3
 2292              	.LVL166:
 867:Drivers/STM32F0xx_HAL_Driver/Src/stm32f0xx_hal_pcd.c ****   } 
 2293              		.loc 1 867 5 discriminator 16 view .LVU522
 2294 0182 D206     		lsls	r2, r2, #27
 2295 0184 01D1     		bne	.L109
 2296              	.LVL167:
 867:Drivers/STM32F0xx_HAL_Driver/Src/stm32f0xx_hal_pcd.c ****   } 
 2297              		.loc 1 867 5 discriminator 18 view .LVU523
 2298 0186 013B     		subs	r3, r3, #1
 2299              	.LVL168:
 867:Drivers/STM32F0xx_HAL_Driver/Src/stm32f0xx_hal_pcd.c ****   } 
 2300              		.loc 1 867 5 is_stmt 0 discriminator 18 view .LVU524
 2301 0188 9BB2     		uxth	r3, r3
 2302              	.LVL169:
 2303              	.L109:
 867:Drivers/STM32F0xx_HAL_Driver/Src/stm32f0xx_hal_pcd.c ****   } 
 2304              		.loc 1 867 5 is_stmt 1 discriminator 20 view .LVU525
 2305 018a 9B02     		lsls	r3, r3, #10
 2306              	.LVL170:
 867:Drivers/STM32F0xx_HAL_Driver/Src/stm32f0xx_hal_pcd.c ****   } 
 2307              		.loc 1 867 5 is_stmt 0 discriminator 20 view .LVU526
 2308 018c 9BB2     		uxth	r3, r3
 2309 018e 1B4A     		ldr	r2, .L112+4
 2310 0190 1343     		orrs	r3, r2
 2311 0192 2380     		strh	r3, [r4]
 2312 0194 7FE7     		b	.L100
ARM GAS  /tmp/ccHm7VQo.s 			page 61


 2313              	.LVL171:
 2314              	.L111:
 867:Drivers/STM32F0xx_HAL_Driver/Src/stm32f0xx_hal_pcd.c ****   } 
 2315              		.loc 1 867 5 discriminator 20 view .LVU527
 2316              	.LBE26:
 2317              	.LBE25:
 867:Drivers/STM32F0xx_HAL_Driver/Src/stm32f0xx_hal_pcd.c ****   } 
 2318              		.loc 1 867 5 is_stmt 1 discriminator 11 view .LVU528
 2319 0196 0468     		ldr	r4, [r0]
 2320 0198 4F33     		adds	r3, r3, #79
 2321 019a E55A     		ldrh	r5, [r4, r3]
 2322 019c CB00     		lsls	r3, r1, #3
 2323 019e 5B1A     		subs	r3, r3, r1
 2324 01a0 9B00     		lsls	r3, r3, #2
 2325 01a2 C318     		adds	r3, r0, r3
 2326 01a4 0933     		adds	r3, r3, #9
 2327 01a6 FF33     		adds	r3, r3, #255
 2328 01a8 1B78     		ldrb	r3, [r3]
 2329 01aa DB00     		lsls	r3, r3, #3
 2330 01ac EB18     		adds	r3, r5, r3
 2331 01ae 1C19     		adds	r4, r3, r4
 2332 01b0 154B     		ldr	r3, .L112+16
 2333 01b2 9C46     		mov	ip, r3
 2334 01b4 6444     		add	r4, r4, ip
 2335 01b6 2280     		strh	r2, [r4]
 2336 01b8 C6E7     		b	.L105
 2337              	.LVL172:
 2338              	.L108:
 2339              	.LBB28:
 2340              	.LBB27:
 867:Drivers/STM32F0xx_HAL_Driver/Src/stm32f0xx_hal_pcd.c ****   } 
 2341              		.loc 1 867 5 discriminator 17 view .LVU529
 2342 01ba 5308     		lsrs	r3, r2, #1
 2343 01bc 9BB2     		uxth	r3, r3
 2344              	.LVL173:
 867:Drivers/STM32F0xx_HAL_Driver/Src/stm32f0xx_hal_pcd.c ****   } 
 2345              		.loc 1 867 5 discriminator 17 view .LVU530
 2346 01be D207     		lsls	r2, r2, #31
 2347 01c0 01D5     		bpl	.L110
 2348              	.LVL174:
 867:Drivers/STM32F0xx_HAL_Driver/Src/stm32f0xx_hal_pcd.c ****   } 
 2349              		.loc 1 867 5 discriminator 21 view .LVU531
 2350 01c2 0133     		adds	r3, r3, #1
 2351              	.LVL175:
 867:Drivers/STM32F0xx_HAL_Driver/Src/stm32f0xx_hal_pcd.c ****   } 
 2352              		.loc 1 867 5 is_stmt 0 discriminator 21 view .LVU532
 2353 01c4 9BB2     		uxth	r3, r3
 2354              	.LVL176:
 2355              	.L110:
 867:Drivers/STM32F0xx_HAL_Driver/Src/stm32f0xx_hal_pcd.c ****   } 
 2356              		.loc 1 867 5 is_stmt 1 discriminator 23 view .LVU533
 2357 01c6 9B02     		lsls	r3, r3, #10
 2358              	.LVL177:
 867:Drivers/STM32F0xx_HAL_Driver/Src/stm32f0xx_hal_pcd.c ****   } 
 2359              		.loc 1 867 5 is_stmt 0 discriminator 23 view .LVU534
 2360 01c8 2380     		strh	r3, [r4]
 2361 01ca 64E7     		b	.L100
ARM GAS  /tmp/ccHm7VQo.s 			page 62


 2362              	.LVL178:
 2363              	.L107:
 867:Drivers/STM32F0xx_HAL_Driver/Src/stm32f0xx_hal_pcd.c ****   } 
 2364              		.loc 1 867 5 discriminator 23 view .LVU535
 2365              	.LBE27:
 2366              	.LBE28:
 867:Drivers/STM32F0xx_HAL_Driver/Src/stm32f0xx_hal_pcd.c ****   } 
 2367              		.loc 1 867 5 is_stmt 1 discriminator 15 view .LVU536
 2368 01cc 012B     		cmp	r3, #1
 2369 01ce 00D0     		beq	.LCB2394
 2370 01d0 61E7     		b	.L100	@long jump
 2371              	.LCB2394:
 867:Drivers/STM32F0xx_HAL_Driver/Src/stm32f0xx_hal_pcd.c ****   } 
 2372              		.loc 1 867 5 discriminator 24 view .LVU537
 2373 01d2 0468     		ldr	r4, [r0]
 2374 01d4 4F33     		adds	r3, r3, #79
 2375 01d6 E55A     		ldrh	r5, [r4, r3]
 2376 01d8 CB00     		lsls	r3, r1, #3
 2377 01da 5B1A     		subs	r3, r3, r1
 2378 01dc 9B00     		lsls	r3, r3, #2
 2379 01de C318     		adds	r3, r0, r3
 2380 01e0 0933     		adds	r3, r3, #9
 2381 01e2 FF33     		adds	r3, r3, #255
 2382 01e4 1B78     		ldrb	r3, [r3]
 2383 01e6 DB00     		lsls	r3, r3, #3
 2384 01e8 EB18     		adds	r3, r5, r3
 2385 01ea 1C19     		adds	r4, r3, r4
 2386 01ec 024B     		ldr	r3, .L112
 2387 01ee 9C46     		mov	ip, r3
 2388 01f0 6444     		add	r4, r4, ip
 2389 01f2 2280     		strh	r2, [r4]
 2390 01f4 4FE7     		b	.L100
 2391              	.L113:
 2392 01f6 C046     		.align	2
 2393              	.L112:
 2394 01f8 06040000 		.word	1030
 2395 01fc 0080FFFF 		.word	-32768
 2396 0200 8FBFFFFF 		.word	-16497
 2397 0204 8080FFFF 		.word	-32640
 2398 0208 02040000 		.word	1026
 2399              		.cfi_endproc
 2400              	.LFE60:
 2402              		.section	.text.HAL_PCD_EP_GetRxCount,"ax",%progbits
 2403              		.align	1
 2404              		.global	HAL_PCD_EP_GetRxCount
 2405              		.syntax unified
 2406              		.code	16
 2407              		.thumb_func
 2408              		.fpu softvfp
 2410              	HAL_PCD_EP_GetRxCount:
 2411              	.LVL179:
 2412              	.LFB61:
 874:Drivers/STM32F0xx_HAL_Driver/Src/stm32f0xx_hal_pcd.c **** 
 875:Drivers/STM32F0xx_HAL_Driver/Src/stm32f0xx_hal_pcd.c **** /**
 876:Drivers/STM32F0xx_HAL_Driver/Src/stm32f0xx_hal_pcd.c ****   * @brief  Get Received Data Size
 877:Drivers/STM32F0xx_HAL_Driver/Src/stm32f0xx_hal_pcd.c ****   * @param  hpcd PCD handle
 878:Drivers/STM32F0xx_HAL_Driver/Src/stm32f0xx_hal_pcd.c ****   * @param  ep_addr endpoint address
ARM GAS  /tmp/ccHm7VQo.s 			page 63


 879:Drivers/STM32F0xx_HAL_Driver/Src/stm32f0xx_hal_pcd.c ****   * @retval Data Size
 880:Drivers/STM32F0xx_HAL_Driver/Src/stm32f0xx_hal_pcd.c ****   */
 881:Drivers/STM32F0xx_HAL_Driver/Src/stm32f0xx_hal_pcd.c **** uint16_t HAL_PCD_EP_GetRxCount(PCD_HandleTypeDef *hpcd, uint8_t ep_addr)
 882:Drivers/STM32F0xx_HAL_Driver/Src/stm32f0xx_hal_pcd.c **** {
 2413              		.loc 1 882 1 view -0
 2414              		.cfi_startproc
 2415              		@ args = 0, pretend = 0, frame = 0
 2416              		@ frame_needed = 0, uses_anonymous_args = 0
 2417              		@ link register save eliminated.
 2418              		.loc 1 882 1 is_stmt 0 view .LVU539
 2419 0000 0B00     		movs	r3, r1
 883:Drivers/STM32F0xx_HAL_Driver/Src/stm32f0xx_hal_pcd.c ****   return hpcd->OUT_ep[ep_addr & 0x7FU].xfer_count;
 2420              		.loc 1 883 3 is_stmt 1 view .LVU540
 2421              		.loc 1 883 31 is_stmt 0 view .LVU541
 2422 0002 7F21     		movs	r1, #127
 2423              	.LVL180:
 2424              		.loc 1 883 31 view .LVU542
 2425 0004 1940     		ands	r1, r3
 2426              		.loc 1 883 39 view .LVU543
 2427 0006 CB00     		lsls	r3, r1, #3
 2428 0008 591A     		subs	r1, r3, r1
 2429 000a 8900     		lsls	r1, r1, #2
 2430 000c 4018     		adds	r0, r0, r1
 2431              	.LVL181:
 2432              		.loc 1 883 39 view .LVU544
 2433 000e 2130     		adds	r0, r0, #33
 2434 0010 FF30     		adds	r0, r0, #255
 2435 0012 0088     		ldrh	r0, [r0]
 884:Drivers/STM32F0xx_HAL_Driver/Src/stm32f0xx_hal_pcd.c **** }
 2436              		.loc 1 884 1 view .LVU545
 2437              		@ sp needed
 2438 0014 7047     		bx	lr
 2439              		.cfi_endproc
 2440              	.LFE61:
 2442              		.section	.text.HAL_PCD_EP_SetStall,"ax",%progbits
 2443              		.align	1
 2444              		.global	HAL_PCD_EP_SetStall
 2445              		.syntax unified
 2446              		.code	16
 2447              		.thumb_func
 2448              		.fpu softvfp
 2450              	HAL_PCD_EP_SetStall:
 2451              	.LVL182:
 2452              	.LFB63:
 885:Drivers/STM32F0xx_HAL_Driver/Src/stm32f0xx_hal_pcd.c **** /**
 886:Drivers/STM32F0xx_HAL_Driver/Src/stm32f0xx_hal_pcd.c ****   * @brief  Send an amount of data  
 887:Drivers/STM32F0xx_HAL_Driver/Src/stm32f0xx_hal_pcd.c ****   * @param  hpcd PCD handle
 888:Drivers/STM32F0xx_HAL_Driver/Src/stm32f0xx_hal_pcd.c ****   * @param  ep_addr endpoint address
 889:Drivers/STM32F0xx_HAL_Driver/Src/stm32f0xx_hal_pcd.c ****   * @param  pBuf pointer to the transmission buffer   
 890:Drivers/STM32F0xx_HAL_Driver/Src/stm32f0xx_hal_pcd.c ****   * @param  len amount of data to be sent
 891:Drivers/STM32F0xx_HAL_Driver/Src/stm32f0xx_hal_pcd.c ****   * @retval HAL status
 892:Drivers/STM32F0xx_HAL_Driver/Src/stm32f0xx_hal_pcd.c ****   */
 893:Drivers/STM32F0xx_HAL_Driver/Src/stm32f0xx_hal_pcd.c **** HAL_StatusTypeDef HAL_PCD_EP_Transmit(PCD_HandleTypeDef *hpcd, uint8_t ep_addr, uint8_t *pBuf, uint
 894:Drivers/STM32F0xx_HAL_Driver/Src/stm32f0xx_hal_pcd.c **** {
 895:Drivers/STM32F0xx_HAL_Driver/Src/stm32f0xx_hal_pcd.c ****   PCD_EPTypeDef *ep;
 896:Drivers/STM32F0xx_HAL_Driver/Src/stm32f0xx_hal_pcd.c ****   uint16_t pmabuffer = 0U;
 897:Drivers/STM32F0xx_HAL_Driver/Src/stm32f0xx_hal_pcd.c ****     
ARM GAS  /tmp/ccHm7VQo.s 			page 64


 898:Drivers/STM32F0xx_HAL_Driver/Src/stm32f0xx_hal_pcd.c ****   ep = &hpcd->IN_ep[ep_addr & 0x7FU];
 899:Drivers/STM32F0xx_HAL_Driver/Src/stm32f0xx_hal_pcd.c ****   
 900:Drivers/STM32F0xx_HAL_Driver/Src/stm32f0xx_hal_pcd.c ****   /*setup and start the Xfer */
 901:Drivers/STM32F0xx_HAL_Driver/Src/stm32f0xx_hal_pcd.c ****   ep->xfer_buff = pBuf;  
 902:Drivers/STM32F0xx_HAL_Driver/Src/stm32f0xx_hal_pcd.c ****   ep->xfer_len = len;
 903:Drivers/STM32F0xx_HAL_Driver/Src/stm32f0xx_hal_pcd.c ****   ep->xfer_count = 0U;
 904:Drivers/STM32F0xx_HAL_Driver/Src/stm32f0xx_hal_pcd.c ****   ep->is_in = 1U;
 905:Drivers/STM32F0xx_HAL_Driver/Src/stm32f0xx_hal_pcd.c ****   ep->num = ep_addr & 0x7FU;
 906:Drivers/STM32F0xx_HAL_Driver/Src/stm32f0xx_hal_pcd.c ****   
 907:Drivers/STM32F0xx_HAL_Driver/Src/stm32f0xx_hal_pcd.c ****   /*Multi packet transfer*/
 908:Drivers/STM32F0xx_HAL_Driver/Src/stm32f0xx_hal_pcd.c ****   if (ep->xfer_len > ep->maxpacket)
 909:Drivers/STM32F0xx_HAL_Driver/Src/stm32f0xx_hal_pcd.c ****   {
 910:Drivers/STM32F0xx_HAL_Driver/Src/stm32f0xx_hal_pcd.c ****     len=ep->maxpacket;
 911:Drivers/STM32F0xx_HAL_Driver/Src/stm32f0xx_hal_pcd.c ****     ep->xfer_len-=len; 
 912:Drivers/STM32F0xx_HAL_Driver/Src/stm32f0xx_hal_pcd.c ****   }
 913:Drivers/STM32F0xx_HAL_Driver/Src/stm32f0xx_hal_pcd.c ****   else
 914:Drivers/STM32F0xx_HAL_Driver/Src/stm32f0xx_hal_pcd.c ****   {  
 915:Drivers/STM32F0xx_HAL_Driver/Src/stm32f0xx_hal_pcd.c ****     len=ep->xfer_len;
 916:Drivers/STM32F0xx_HAL_Driver/Src/stm32f0xx_hal_pcd.c ****     ep->xfer_len =0U;
 917:Drivers/STM32F0xx_HAL_Driver/Src/stm32f0xx_hal_pcd.c ****   }
 918:Drivers/STM32F0xx_HAL_Driver/Src/stm32f0xx_hal_pcd.c ****   
 919:Drivers/STM32F0xx_HAL_Driver/Src/stm32f0xx_hal_pcd.c ****   /* configure and validate Tx endpoint */
 920:Drivers/STM32F0xx_HAL_Driver/Src/stm32f0xx_hal_pcd.c ****   if (ep->doublebuffer == 0U) 
 921:Drivers/STM32F0xx_HAL_Driver/Src/stm32f0xx_hal_pcd.c ****   {
 922:Drivers/STM32F0xx_HAL_Driver/Src/stm32f0xx_hal_pcd.c ****     PCD_WritePMA(hpcd->Instance, ep->xfer_buff, ep->pmaadress, len);
 923:Drivers/STM32F0xx_HAL_Driver/Src/stm32f0xx_hal_pcd.c ****     PCD_SET_EP_TX_CNT(hpcd->Instance, ep->num, len);
 924:Drivers/STM32F0xx_HAL_Driver/Src/stm32f0xx_hal_pcd.c ****   }
 925:Drivers/STM32F0xx_HAL_Driver/Src/stm32f0xx_hal_pcd.c ****   else
 926:Drivers/STM32F0xx_HAL_Driver/Src/stm32f0xx_hal_pcd.c ****   {
 927:Drivers/STM32F0xx_HAL_Driver/Src/stm32f0xx_hal_pcd.c ****     /*Write the data to the USB endpoint*/
 928:Drivers/STM32F0xx_HAL_Driver/Src/stm32f0xx_hal_pcd.c ****     if ((PCD_GET_ENDPOINT(hpcd->Instance, ep->num)& USB_EP_DTOG_TX) == USB_EP_DTOG_TX)
 929:Drivers/STM32F0xx_HAL_Driver/Src/stm32f0xx_hal_pcd.c ****     {
 930:Drivers/STM32F0xx_HAL_Driver/Src/stm32f0xx_hal_pcd.c ****       /*Set the Double buffer counter for pmabuffer1*/
 931:Drivers/STM32F0xx_HAL_Driver/Src/stm32f0xx_hal_pcd.c ****       PCD_SET_EP_DBUF1_CNT(hpcd->Instance, ep->num, ep->is_in, len)
 932:Drivers/STM32F0xx_HAL_Driver/Src/stm32f0xx_hal_pcd.c ****       pmabuffer = ep->pmaaddr1;
 933:Drivers/STM32F0xx_HAL_Driver/Src/stm32f0xx_hal_pcd.c ****     }
 934:Drivers/STM32F0xx_HAL_Driver/Src/stm32f0xx_hal_pcd.c ****     else
 935:Drivers/STM32F0xx_HAL_Driver/Src/stm32f0xx_hal_pcd.c ****     {
 936:Drivers/STM32F0xx_HAL_Driver/Src/stm32f0xx_hal_pcd.c ****       /*Set the Double buffer counter for pmabuffer0*/
 937:Drivers/STM32F0xx_HAL_Driver/Src/stm32f0xx_hal_pcd.c ****       PCD_SET_EP_DBUF0_CNT(hpcd->Instance, ep->num, ep->is_in, len)
 938:Drivers/STM32F0xx_HAL_Driver/Src/stm32f0xx_hal_pcd.c ****       pmabuffer = ep->pmaaddr0;
 939:Drivers/STM32F0xx_HAL_Driver/Src/stm32f0xx_hal_pcd.c ****     }
 940:Drivers/STM32F0xx_HAL_Driver/Src/stm32f0xx_hal_pcd.c **** 
 941:Drivers/STM32F0xx_HAL_Driver/Src/stm32f0xx_hal_pcd.c ****     PCD_WritePMA(hpcd->Instance, ep->xfer_buff, pmabuffer, len);
 942:Drivers/STM32F0xx_HAL_Driver/Src/stm32f0xx_hal_pcd.c ****     PCD_FreeUserBuffer(hpcd->Instance, ep->num, ep->is_in)
 943:Drivers/STM32F0xx_HAL_Driver/Src/stm32f0xx_hal_pcd.c ****   }
 944:Drivers/STM32F0xx_HAL_Driver/Src/stm32f0xx_hal_pcd.c **** 
 945:Drivers/STM32F0xx_HAL_Driver/Src/stm32f0xx_hal_pcd.c ****   PCD_SET_EP_TX_STATUS(hpcd->Instance, ep->num, USB_EP_TX_VALID)
 946:Drivers/STM32F0xx_HAL_Driver/Src/stm32f0xx_hal_pcd.c ****      
 947:Drivers/STM32F0xx_HAL_Driver/Src/stm32f0xx_hal_pcd.c ****   return HAL_OK;
 948:Drivers/STM32F0xx_HAL_Driver/Src/stm32f0xx_hal_pcd.c **** }
 949:Drivers/STM32F0xx_HAL_Driver/Src/stm32f0xx_hal_pcd.c **** 
 950:Drivers/STM32F0xx_HAL_Driver/Src/stm32f0xx_hal_pcd.c **** /**
 951:Drivers/STM32F0xx_HAL_Driver/Src/stm32f0xx_hal_pcd.c ****   * @brief  Set a STALL condition over an endpoint
 952:Drivers/STM32F0xx_HAL_Driver/Src/stm32f0xx_hal_pcd.c ****   * @param  hpcd PCD handle
 953:Drivers/STM32F0xx_HAL_Driver/Src/stm32f0xx_hal_pcd.c ****   * @param  ep_addr endpoint address
 954:Drivers/STM32F0xx_HAL_Driver/Src/stm32f0xx_hal_pcd.c ****   * @retval HAL status
ARM GAS  /tmp/ccHm7VQo.s 			page 65


 955:Drivers/STM32F0xx_HAL_Driver/Src/stm32f0xx_hal_pcd.c ****   */
 956:Drivers/STM32F0xx_HAL_Driver/Src/stm32f0xx_hal_pcd.c **** HAL_StatusTypeDef HAL_PCD_EP_SetStall(PCD_HandleTypeDef *hpcd, uint8_t ep_addr)
 957:Drivers/STM32F0xx_HAL_Driver/Src/stm32f0xx_hal_pcd.c **** {
 2453              		.loc 1 957 1 is_stmt 1 view -0
 2454              		.cfi_startproc
 2455              		@ args = 0, pretend = 0, frame = 0
 2456              		@ frame_needed = 0, uses_anonymous_args = 0
 2457              		.loc 1 957 1 is_stmt 0 view .LVU547
 2458 0000 10B5     		push	{r4, lr}
 2459              	.LCFI8:
 2460              		.cfi_def_cfa_offset 8
 2461              		.cfi_offset 4, -8
 2462              		.cfi_offset 14, -4
 2463 0002 0C00     		movs	r4, r1
 958:Drivers/STM32F0xx_HAL_Driver/Src/stm32f0xx_hal_pcd.c ****   PCD_EPTypeDef *ep;
 2464              		.loc 1 958 3 is_stmt 1 view .LVU548
 959:Drivers/STM32F0xx_HAL_Driver/Src/stm32f0xx_hal_pcd.c ****    
 960:Drivers/STM32F0xx_HAL_Driver/Src/stm32f0xx_hal_pcd.c ****   __HAL_LOCK(hpcd); 
 2465              		.loc 1 960 3 view .LVU549
 2466              		.loc 1 960 3 view .LVU550
 2467 0004 F423     		movs	r3, #244
 2468 0006 5B00     		lsls	r3, r3, #1
 2469 0008 C35C     		ldrb	r3, [r0, r3]
 2470 000a 012B     		cmp	r3, #1
 2471 000c 46D0     		beq	.L122
 2472              		.loc 1 960 3 discriminator 2 view .LVU551
 2473 000e F423     		movs	r3, #244
 2474 0010 5B00     		lsls	r3, r3, #1
 2475 0012 0122     		movs	r2, #1
 2476 0014 C254     		strb	r2, [r0, r3]
 961:Drivers/STM32F0xx_HAL_Driver/Src/stm32f0xx_hal_pcd.c ****    
 962:Drivers/STM32F0xx_HAL_Driver/Src/stm32f0xx_hal_pcd.c ****   if ((0x80U & ep_addr) == 0x80U)
 2477              		.loc 1 962 3 discriminator 2 view .LVU552
 2478              		.loc 1 962 25 is_stmt 0 discriminator 2 view .LVU553
 2479 0016 4AB2     		sxtb	r2, r1
 2480              		.loc 1 962 6 discriminator 2 view .LVU554
 2481 0018 002A     		cmp	r2, #0
 2482 001a 1EDB     		blt	.L123
 963:Drivers/STM32F0xx_HAL_Driver/Src/stm32f0xx_hal_pcd.c ****   {
 964:Drivers/STM32F0xx_HAL_Driver/Src/stm32f0xx_hal_pcd.c ****     ep = &hpcd->IN_ep[ep_addr & 0x7FU];
 965:Drivers/STM32F0xx_HAL_Driver/Src/stm32f0xx_hal_pcd.c ****   }
 966:Drivers/STM32F0xx_HAL_Driver/Src/stm32f0xx_hal_pcd.c ****   else
 967:Drivers/STM32F0xx_HAL_Driver/Src/stm32f0xx_hal_pcd.c ****   {
 968:Drivers/STM32F0xx_HAL_Driver/Src/stm32f0xx_hal_pcd.c ****     ep = &hpcd->OUT_ep[ep_addr];
 2483              		.loc 1 968 5 is_stmt 1 view .LVU555
 2484              		.loc 1 968 8 is_stmt 0 view .LVU556
 2485 001c CB00     		lsls	r3, r1, #3
 2486 001e 5B1A     		subs	r3, r3, r1
 2487 0020 9B00     		lsls	r3, r3, #2
 2488 0022 0933     		adds	r3, r3, #9
 2489 0024 FF33     		adds	r3, r3, #255
 2490 0026 C318     		adds	r3, r0, r3
 2491              	.LVL183:
 2492              	.L118:
 969:Drivers/STM32F0xx_HAL_Driver/Src/stm32f0xx_hal_pcd.c ****   }
 970:Drivers/STM32F0xx_HAL_Driver/Src/stm32f0xx_hal_pcd.c ****   
 971:Drivers/STM32F0xx_HAL_Driver/Src/stm32f0xx_hal_pcd.c ****   ep->is_stall = 1;
ARM GAS  /tmp/ccHm7VQo.s 			page 66


 2493              		.loc 1 971 3 is_stmt 1 view .LVU557
 2494              		.loc 1 971 16 is_stmt 0 view .LVU558
 2495 0028 0121     		movs	r1, #1
 2496 002a 9970     		strb	r1, [r3, #2]
 972:Drivers/STM32F0xx_HAL_Driver/Src/stm32f0xx_hal_pcd.c ****   ep->num   = ep_addr & 0x7FU;
 2497              		.loc 1 972 3 is_stmt 1 view .LVU559
 2498              		.loc 1 972 23 is_stmt 0 view .LVU560
 2499 002c 7E31     		adds	r1, r1, #126
 2500 002e 2140     		ands	r1, r4
 2501              		.loc 1 972 13 view .LVU561
 2502 0030 1970     		strb	r1, [r3]
 973:Drivers/STM32F0xx_HAL_Driver/Src/stm32f0xx_hal_pcd.c ****   ep->is_in = ((ep_addr & 0x80U) == 0x80U);
 2503              		.loc 1 973 3 is_stmt 1 view .LVU562
 2504              		.loc 1 973 34 is_stmt 0 view .LVU563
 2505 0032 D20F     		lsrs	r2, r2, #31
 2506              	.LVL184:
 2507              		.loc 1 973 13 view .LVU564
 2508 0034 5A70     		strb	r2, [r3, #1]
 974:Drivers/STM32F0xx_HAL_Driver/Src/stm32f0xx_hal_pcd.c ****   
 975:Drivers/STM32F0xx_HAL_Driver/Src/stm32f0xx_hal_pcd.c ****   if (ep->num == 0U)
 2509              		.loc 1 975 3 is_stmt 1 view .LVU565
 2510              		.loc 1 975 6 is_stmt 0 view .LVU566
 2511 0036 0029     		cmp	r1, #0
 2512 0038 17D1     		bne	.L119
 2513              	.LBB29:
 976:Drivers/STM32F0xx_HAL_Driver/Src/stm32f0xx_hal_pcd.c ****   {
 977:Drivers/STM32F0xx_HAL_Driver/Src/stm32f0xx_hal_pcd.c ****     /* This macro sets STALL status for RX & TX*/ 
 978:Drivers/STM32F0xx_HAL_Driver/Src/stm32f0xx_hal_pcd.c ****     PCD_SET_EP_TXRX_STATUS(hpcd->Instance, ep->num, USB_EP_RX_STALL, USB_EP_TX_STALL)
 2514              		.loc 1 978 5 is_stmt 1 view .LVU567
 2515              		.loc 1 978 5 view .LVU568
 2516 003a 0468     		ldr	r4, [r0]
 2517 003c 8900     		lsls	r1, r1, #2
 2518 003e 625A     		ldrh	r2, [r4, r1]
 2519              	.LVL185:
 2520              		.loc 1 978 5 view .LVU569
 2521              		.loc 1 978 5 view .LVU570
 2522              		.loc 1 978 5 view .LVU571
 2523              		.loc 1 978 5 view .LVU572
 2524              		.loc 1 978 5 view .LVU573
 2525              		.loc 1 978 5 view .LVU574
 2526              		.loc 1 978 5 view .LVU575
 2527 0040 174B     		ldr	r3, .L124
 2528              	.LVL186:
 2529              		.loc 1 978 5 is_stmt 0 view .LVU576
 2530 0042 1A40     		ands	r2, r3
 2531              	.LVL187:
 2532              		.loc 1 978 5 view .LVU577
 2533 0044 174B     		ldr	r3, .L124+4
 2534 0046 5A40     		eors	r2, r3
 2535 0048 174B     		ldr	r3, .L124+8
 2536 004a 1343     		orrs	r3, r2
 2537 004c 6352     		strh	r3, [r4, r1]
 2538              	.LVL188:
 2539              	.L120:
 2540              		.loc 1 978 5 view .LVU578
 2541              	.LBE29:
 979:Drivers/STM32F0xx_HAL_Driver/Src/stm32f0xx_hal_pcd.c ****   }
ARM GAS  /tmp/ccHm7VQo.s 			page 67


 980:Drivers/STM32F0xx_HAL_Driver/Src/stm32f0xx_hal_pcd.c ****   else
 981:Drivers/STM32F0xx_HAL_Driver/Src/stm32f0xx_hal_pcd.c ****   {
 982:Drivers/STM32F0xx_HAL_Driver/Src/stm32f0xx_hal_pcd.c ****     if (ep->is_in)
 983:Drivers/STM32F0xx_HAL_Driver/Src/stm32f0xx_hal_pcd.c ****     {
 984:Drivers/STM32F0xx_HAL_Driver/Src/stm32f0xx_hal_pcd.c ****       PCD_SET_EP_TX_STATUS(hpcd->Instance, ep->num , USB_EP_TX_STALL)
 985:Drivers/STM32F0xx_HAL_Driver/Src/stm32f0xx_hal_pcd.c ****     }
 986:Drivers/STM32F0xx_HAL_Driver/Src/stm32f0xx_hal_pcd.c ****     else
 987:Drivers/STM32F0xx_HAL_Driver/Src/stm32f0xx_hal_pcd.c ****     {
 988:Drivers/STM32F0xx_HAL_Driver/Src/stm32f0xx_hal_pcd.c ****       PCD_SET_EP_RX_STATUS(hpcd->Instance, ep->num , USB_EP_RX_STALL)
 989:Drivers/STM32F0xx_HAL_Driver/Src/stm32f0xx_hal_pcd.c ****     }
 990:Drivers/STM32F0xx_HAL_Driver/Src/stm32f0xx_hal_pcd.c ****   }
 991:Drivers/STM32F0xx_HAL_Driver/Src/stm32f0xx_hal_pcd.c ****   __HAL_UNLOCK(hpcd); 
 2542              		.loc 1 991 3 is_stmt 1 view .LVU579
 2543              		.loc 1 991 3 view .LVU580
 2544 004e F423     		movs	r3, #244
 2545 0050 5B00     		lsls	r3, r3, #1
 2546 0052 0022     		movs	r2, #0
 2547 0054 C254     		strb	r2, [r0, r3]
 992:Drivers/STM32F0xx_HAL_Driver/Src/stm32f0xx_hal_pcd.c ****   
 993:Drivers/STM32F0xx_HAL_Driver/Src/stm32f0xx_hal_pcd.c ****   return HAL_OK;
 2548              		.loc 1 993 3 view .LVU581
 2549              		.loc 1 993 10 is_stmt 0 view .LVU582
 2550 0056 0020     		movs	r0, #0
 2551              	.LVL189:
 2552              	.L116:
 994:Drivers/STM32F0xx_HAL_Driver/Src/stm32f0xx_hal_pcd.c **** }
 2553              		.loc 1 994 1 view .LVU583
 2554              		@ sp needed
 2555 0058 10BD     		pop	{r4, pc}
 2556              	.LVL190:
 2557              	.L123:
 964:Drivers/STM32F0xx_HAL_Driver/Src/stm32f0xx_hal_pcd.c ****   }
 2558              		.loc 1 964 5 is_stmt 1 view .LVU584
 964:Drivers/STM32F0xx_HAL_Driver/Src/stm32f0xx_hal_pcd.c ****   }
 2559              		.loc 1 964 31 is_stmt 0 view .LVU585
 2560 005a 7F21     		movs	r1, #127
 2561              	.LVL191:
 964:Drivers/STM32F0xx_HAL_Driver/Src/stm32f0xx_hal_pcd.c ****   }
 2562              		.loc 1 964 31 view .LVU586
 2563 005c 2140     		ands	r1, r4
 964:Drivers/STM32F0xx_HAL_Driver/Src/stm32f0xx_hal_pcd.c ****   }
 2564              		.loc 1 964 8 view .LVU587
 2565 005e CB00     		lsls	r3, r1, #3
 2566 0060 5B1A     		subs	r3, r3, r1
 2567 0062 9B00     		lsls	r3, r3, #2
 2568 0064 2833     		adds	r3, r3, #40
 2569 0066 C318     		adds	r3, r0, r3
 2570              	.LVL192:
 964:Drivers/STM32F0xx_HAL_Driver/Src/stm32f0xx_hal_pcd.c ****   }
 2571              		.loc 1 964 8 view .LVU588
 2572 0068 DEE7     		b	.L118
 2573              	.LVL193:
 2574              	.L119:
 982:Drivers/STM32F0xx_HAL_Driver/Src/stm32f0xx_hal_pcd.c ****     {
 2575              		.loc 1 982 5 is_stmt 1 view .LVU589
 982:Drivers/STM32F0xx_HAL_Driver/Src/stm32f0xx_hal_pcd.c ****     {
 2576              		.loc 1 982 8 is_stmt 0 view .LVU590
ARM GAS  /tmp/ccHm7VQo.s 			page 68


 2577 006a 002A     		cmp	r2, #0
 2578 006c 0AD0     		beq	.L121
 2579              	.LBB30:
 984:Drivers/STM32F0xx_HAL_Driver/Src/stm32f0xx_hal_pcd.c ****     }
 2580              		.loc 1 984 7 is_stmt 1 view .LVU591
 984:Drivers/STM32F0xx_HAL_Driver/Src/stm32f0xx_hal_pcd.c ****     }
 2581              		.loc 1 984 7 view .LVU592
 2582 006e 0268     		ldr	r2, [r0]
 2583 0070 8900     		lsls	r1, r1, #2
 2584 0072 535A     		ldrh	r3, [r2, r1]
 2585              	.LVL194:
 984:Drivers/STM32F0xx_HAL_Driver/Src/stm32f0xx_hal_pcd.c ****     }
 2586              		.loc 1 984 7 is_stmt 0 view .LVU593
 2587 0074 0D4C     		ldr	r4, .L124+12
 2588 0076 2340     		ands	r3, r4
 2589              	.LVL195:
 984:Drivers/STM32F0xx_HAL_Driver/Src/stm32f0xx_hal_pcd.c ****     }
 2590              		.loc 1 984 7 is_stmt 1 view .LVU594
 984:Drivers/STM32F0xx_HAL_Driver/Src/stm32f0xx_hal_pcd.c ****     }
 2591              		.loc 1 984 7 view .LVU595
 2592 0078 1024     		movs	r4, #16
 2593 007a 6340     		eors	r3, r4
 2594              	.LVL196:
 984:Drivers/STM32F0xx_HAL_Driver/Src/stm32f0xx_hal_pcd.c ****     }
 2595              		.loc 1 984 7 view .LVU596
 984:Drivers/STM32F0xx_HAL_Driver/Src/stm32f0xx_hal_pcd.c ****     }
 2596              		.loc 1 984 7 view .LVU597
 2597 007c 0A4C     		ldr	r4, .L124+8
 2598 007e 2343     		orrs	r3, r4
 2599              	.LVL197:
 984:Drivers/STM32F0xx_HAL_Driver/Src/stm32f0xx_hal_pcd.c ****     }
 2600              		.loc 1 984 7 is_stmt 0 view .LVU598
 2601 0080 5352     		strh	r3, [r2, r1]
 984:Drivers/STM32F0xx_HAL_Driver/Src/stm32f0xx_hal_pcd.c ****     }
 2602              		.loc 1 984 7 view .LVU599
 2603              	.LBE30:
 2604 0082 E4E7     		b	.L120
 2605              	.LVL198:
 2606              	.L121:
 2607              	.LBB31:
 988:Drivers/STM32F0xx_HAL_Driver/Src/stm32f0xx_hal_pcd.c ****     }
 2608              		.loc 1 988 7 is_stmt 1 view .LVU600
 988:Drivers/STM32F0xx_HAL_Driver/Src/stm32f0xx_hal_pcd.c ****     }
 2609              		.loc 1 988 7 view .LVU601
 2610 0084 0468     		ldr	r4, [r0]
 2611 0086 8900     		lsls	r1, r1, #2
 2612 0088 625A     		ldrh	r2, [r4, r1]
 2613 008a 094B     		ldr	r3, .L124+16
 2614              	.LVL199:
 988:Drivers/STM32F0xx_HAL_Driver/Src/stm32f0xx_hal_pcd.c ****     }
 2615              		.loc 1 988 7 is_stmt 0 view .LVU602
 2616 008c 1A40     		ands	r2, r3
 2617              	.LVL200:
 988:Drivers/STM32F0xx_HAL_Driver/Src/stm32f0xx_hal_pcd.c ****     }
 2618              		.loc 1 988 7 is_stmt 1 view .LVU603
 988:Drivers/STM32F0xx_HAL_Driver/Src/stm32f0xx_hal_pcd.c ****     }
 2619              		.loc 1 988 7 view .LVU604
ARM GAS  /tmp/ccHm7VQo.s 			page 69


 2620 008e 8023     		movs	r3, #128
 2621 0090 5B01     		lsls	r3, r3, #5
 2622 0092 5A40     		eors	r2, r3
 2623              	.LVL201:
 988:Drivers/STM32F0xx_HAL_Driver/Src/stm32f0xx_hal_pcd.c ****     }
 2624              		.loc 1 988 7 view .LVU605
 988:Drivers/STM32F0xx_HAL_Driver/Src/stm32f0xx_hal_pcd.c ****     }
 2625              		.loc 1 988 7 view .LVU606
 2626 0094 044B     		ldr	r3, .L124+8
 2627 0096 1343     		orrs	r3, r2
 2628 0098 6352     		strh	r3, [r4, r1]
 2629 009a D8E7     		b	.L120
 2630              	.LVL202:
 2631              	.L122:
 988:Drivers/STM32F0xx_HAL_Driver/Src/stm32f0xx_hal_pcd.c ****     }
 2632              		.loc 1 988 7 is_stmt 0 view .LVU607
 2633              	.LBE31:
 960:Drivers/STM32F0xx_HAL_Driver/Src/stm32f0xx_hal_pcd.c ****    
 2634              		.loc 1 960 3 view .LVU608
 2635 009c 0220     		movs	r0, #2
 2636              	.LVL203:
 960:Drivers/STM32F0xx_HAL_Driver/Src/stm32f0xx_hal_pcd.c ****    
 2637              		.loc 1 960 3 view .LVU609
 2638 009e DBE7     		b	.L116
 2639              	.L125:
 2640              		.align	2
 2641              	.L124:
 2642 00a0 BFBFFFFF 		.word	-16449
 2643 00a4 10100000 		.word	4112
 2644 00a8 8080FFFF 		.word	-32640
 2645 00ac BF8FFFFF 		.word	-28737
 2646 00b0 8FBFFFFF 		.word	-16497
 2647              		.cfi_endproc
 2648              	.LFE63:
 2650              		.section	.text.HAL_PCD_EP_ClrStall,"ax",%progbits
 2651              		.align	1
 2652              		.global	HAL_PCD_EP_ClrStall
 2653              		.syntax unified
 2654              		.code	16
 2655              		.thumb_func
 2656              		.fpu softvfp
 2658              	HAL_PCD_EP_ClrStall:
 2659              	.LVL204:
 2660              	.LFB64:
 995:Drivers/STM32F0xx_HAL_Driver/Src/stm32f0xx_hal_pcd.c **** 
 996:Drivers/STM32F0xx_HAL_Driver/Src/stm32f0xx_hal_pcd.c **** /**
 997:Drivers/STM32F0xx_HAL_Driver/Src/stm32f0xx_hal_pcd.c ****   * @brief  Clear a STALL condition over in an endpoint
 998:Drivers/STM32F0xx_HAL_Driver/Src/stm32f0xx_hal_pcd.c ****   * @param  hpcd PCD handle
 999:Drivers/STM32F0xx_HAL_Driver/Src/stm32f0xx_hal_pcd.c ****   * @param  ep_addr endpoint address
1000:Drivers/STM32F0xx_HAL_Driver/Src/stm32f0xx_hal_pcd.c ****   * @retval HAL status
1001:Drivers/STM32F0xx_HAL_Driver/Src/stm32f0xx_hal_pcd.c ****   */
1002:Drivers/STM32F0xx_HAL_Driver/Src/stm32f0xx_hal_pcd.c **** HAL_StatusTypeDef HAL_PCD_EP_ClrStall(PCD_HandleTypeDef *hpcd, uint8_t ep_addr)
1003:Drivers/STM32F0xx_HAL_Driver/Src/stm32f0xx_hal_pcd.c **** {
 2661              		.loc 1 1003 1 is_stmt 1 view -0
 2662              		.cfi_startproc
 2663              		@ args = 0, pretend = 0, frame = 0
 2664              		@ frame_needed = 0, uses_anonymous_args = 0
ARM GAS  /tmp/ccHm7VQo.s 			page 70


 2665              		.loc 1 1003 1 is_stmt 0 view .LVU611
 2666 0000 10B5     		push	{r4, lr}
 2667              	.LCFI9:
 2668              		.cfi_def_cfa_offset 8
 2669              		.cfi_offset 4, -8
 2670              		.cfi_offset 14, -4
 2671 0002 0C00     		movs	r4, r1
1004:Drivers/STM32F0xx_HAL_Driver/Src/stm32f0xx_hal_pcd.c ****   PCD_EPTypeDef *ep;
 2672              		.loc 1 1004 3 is_stmt 1 view .LVU612
1005:Drivers/STM32F0xx_HAL_Driver/Src/stm32f0xx_hal_pcd.c ****   
1006:Drivers/STM32F0xx_HAL_Driver/Src/stm32f0xx_hal_pcd.c ****   if ((0x80U & ep_addr) == 0x80U)
 2673              		.loc 1 1006 3 view .LVU613
 2674              		.loc 1 1006 25 is_stmt 0 view .LVU614
 2675 0004 4AB2     		sxtb	r2, r1
 2676              		.loc 1 1006 6 view .LVU615
 2677 0006 002A     		cmp	r2, #0
 2678 0008 35DB     		blt	.L135
1007:Drivers/STM32F0xx_HAL_Driver/Src/stm32f0xx_hal_pcd.c ****   {
1008:Drivers/STM32F0xx_HAL_Driver/Src/stm32f0xx_hal_pcd.c ****     ep = &hpcd->IN_ep[ep_addr & 0x7FU];
1009:Drivers/STM32F0xx_HAL_Driver/Src/stm32f0xx_hal_pcd.c ****   }
1010:Drivers/STM32F0xx_HAL_Driver/Src/stm32f0xx_hal_pcd.c ****   else
1011:Drivers/STM32F0xx_HAL_Driver/Src/stm32f0xx_hal_pcd.c ****   {
1012:Drivers/STM32F0xx_HAL_Driver/Src/stm32f0xx_hal_pcd.c ****     ep = &hpcd->OUT_ep[ep_addr];
 2679              		.loc 1 1012 5 is_stmt 1 view .LVU616
 2680              		.loc 1 1012 8 is_stmt 0 view .LVU617
 2681 000a CB00     		lsls	r3, r1, #3
 2682 000c 5B1A     		subs	r3, r3, r1
 2683 000e 9B00     		lsls	r3, r3, #2
 2684 0010 0933     		adds	r3, r3, #9
 2685 0012 FF33     		adds	r3, r3, #255
 2686 0014 C318     		adds	r3, r0, r3
 2687              	.LVL205:
 2688              	.L128:
1013:Drivers/STM32F0xx_HAL_Driver/Src/stm32f0xx_hal_pcd.c ****   }
1014:Drivers/STM32F0xx_HAL_Driver/Src/stm32f0xx_hal_pcd.c ****   
1015:Drivers/STM32F0xx_HAL_Driver/Src/stm32f0xx_hal_pcd.c ****   ep->is_stall = 0U;
 2689              		.loc 1 1015 3 is_stmt 1 view .LVU618
 2690              		.loc 1 1015 16 is_stmt 0 view .LVU619
 2691 0016 0021     		movs	r1, #0
 2692 0018 9970     		strb	r1, [r3, #2]
1016:Drivers/STM32F0xx_HAL_Driver/Src/stm32f0xx_hal_pcd.c ****   ep->num   = ep_addr & 0x7FU;
 2693              		.loc 1 1016 3 is_stmt 1 view .LVU620
 2694              		.loc 1 1016 23 is_stmt 0 view .LVU621
 2695 001a 7F31     		adds	r1, r1, #127
 2696 001c 2140     		ands	r1, r4
 2697              		.loc 1 1016 13 view .LVU622
 2698 001e 1970     		strb	r1, [r3]
1017:Drivers/STM32F0xx_HAL_Driver/Src/stm32f0xx_hal_pcd.c ****   ep->is_in = ((ep_addr & 0x80U) == 0x80U);
 2699              		.loc 1 1017 3 is_stmt 1 view .LVU623
 2700              		.loc 1 1017 34 is_stmt 0 view .LVU624
 2701 0020 D20F     		lsrs	r2, r2, #31
 2702              	.LVL206:
 2703              		.loc 1 1017 13 view .LVU625
 2704 0022 5A70     		strb	r2, [r3, #1]
1018:Drivers/STM32F0xx_HAL_Driver/Src/stm32f0xx_hal_pcd.c ****   
1019:Drivers/STM32F0xx_HAL_Driver/Src/stm32f0xx_hal_pcd.c ****   __HAL_LOCK(hpcd); 
 2705              		.loc 1 1019 3 is_stmt 1 view .LVU626
ARM GAS  /tmp/ccHm7VQo.s 			page 71


 2706              		.loc 1 1019 3 view .LVU627
 2707 0024 F422     		movs	r2, #244
 2708 0026 5200     		lsls	r2, r2, #1
 2709 0028 825C     		ldrb	r2, [r0, r2]
 2710 002a 012A     		cmp	r2, #1
 2711 002c 44D0     		beq	.L134
 2712              		.loc 1 1019 3 discriminator 2 view .LVU628
 2713 002e F422     		movs	r2, #244
 2714 0030 5200     		lsls	r2, r2, #1
 2715 0032 0121     		movs	r1, #1
 2716 0034 8154     		strb	r1, [r0, r2]
1020:Drivers/STM32F0xx_HAL_Driver/Src/stm32f0xx_hal_pcd.c ****   
1021:Drivers/STM32F0xx_HAL_Driver/Src/stm32f0xx_hal_pcd.c ****   if (ep->is_in)
 2717              		.loc 1 1021 3 discriminator 2 view .LVU629
 2718              		.loc 1 1021 9 is_stmt 0 discriminator 2 view .LVU630
 2719 0036 5A78     		ldrb	r2, [r3, #1]
 2720              		.loc 1 1021 6 discriminator 2 view .LVU631
 2721 0038 002A     		cmp	r2, #0
 2722 003a 24D0     		beq	.L130
1022:Drivers/STM32F0xx_HAL_Driver/Src/stm32f0xx_hal_pcd.c ****   {
1023:Drivers/STM32F0xx_HAL_Driver/Src/stm32f0xx_hal_pcd.c ****     PCD_CLEAR_TX_DTOG(hpcd->Instance, ep->num)
 2723              		.loc 1 1023 5 is_stmt 1 view .LVU632
 2724 003c 0168     		ldr	r1, [r0]
 2725 003e 1A78     		ldrb	r2, [r3]
 2726 0040 9200     		lsls	r2, r2, #2
 2727 0042 8C18     		adds	r4, r1, r2
 2728 0044 8A5A     		ldrh	r2, [r1, r2]
 2729 0046 5106     		lsls	r1, r2, #25
 2730 0048 04D5     		bpl	.L131
 2731              		.loc 1 1023 5 discriminator 1 view .LVU633
 2732 004a 1C49     		ldr	r1, .L136
 2733 004c 0A40     		ands	r2, r1
 2734 004e 1C49     		ldr	r1, .L136+4
 2735 0050 0A43     		orrs	r2, r1
 2736 0052 2280     		strh	r2, [r4]
 2737              	.L131:
 2738              	.LBB32:
1024:Drivers/STM32F0xx_HAL_Driver/Src/stm32f0xx_hal_pcd.c ****     PCD_SET_EP_TX_STATUS(hpcd->Instance, ep->num, USB_EP_TX_VALID)
 2739              		.loc 1 1024 5 view .LVU634
 2740              		.loc 1 1024 5 view .LVU635
 2741 0054 0168     		ldr	r1, [r0]
 2742 0056 1A78     		ldrb	r2, [r3]
 2743 0058 9200     		lsls	r2, r2, #2
 2744 005a 8B5A     		ldrh	r3, [r1, r2]
 2745              	.LVL207:
 2746              		.loc 1 1024 5 is_stmt 0 view .LVU636
 2747 005c 194C     		ldr	r4, .L136+8
 2748 005e 2340     		ands	r3, r4
 2749              	.LVL208:
 2750              		.loc 1 1024 5 is_stmt 1 view .LVU637
 2751              		.loc 1 1024 5 view .LVU638
 2752              		.loc 1 1024 5 view .LVU639
 2753              		.loc 1 1024 5 view .LVU640
 2754 0060 3024     		movs	r4, #48
 2755 0062 6340     		eors	r3, r4
 2756              	.LVL209:
 2757              		.loc 1 1024 5 view .LVU641
ARM GAS  /tmp/ccHm7VQo.s 			page 72


 2758 0064 184C     		ldr	r4, .L136+12
 2759 0066 2343     		orrs	r3, r4
 2760              	.LVL210:
 2761              		.loc 1 1024 5 is_stmt 0 view .LVU642
 2762 0068 8B52     		strh	r3, [r1, r2]
 2763              	.L132:
 2764              		.loc 1 1024 5 view .LVU643
 2765              	.LBE32:
1025:Drivers/STM32F0xx_HAL_Driver/Src/stm32f0xx_hal_pcd.c ****   }
1026:Drivers/STM32F0xx_HAL_Driver/Src/stm32f0xx_hal_pcd.c ****   else
1027:Drivers/STM32F0xx_HAL_Driver/Src/stm32f0xx_hal_pcd.c ****   {
1028:Drivers/STM32F0xx_HAL_Driver/Src/stm32f0xx_hal_pcd.c ****     PCD_CLEAR_RX_DTOG(hpcd->Instance, ep->num)
1029:Drivers/STM32F0xx_HAL_Driver/Src/stm32f0xx_hal_pcd.c ****     PCD_SET_EP_RX_STATUS(hpcd->Instance, ep->num, USB_EP_RX_VALID)
1030:Drivers/STM32F0xx_HAL_Driver/Src/stm32f0xx_hal_pcd.c ****   }
1031:Drivers/STM32F0xx_HAL_Driver/Src/stm32f0xx_hal_pcd.c ****   __HAL_UNLOCK(hpcd); 
 2766              		.loc 1 1031 3 is_stmt 1 view .LVU644
 2767              		.loc 1 1031 3 view .LVU645
 2768 006a F423     		movs	r3, #244
 2769 006c 5B00     		lsls	r3, r3, #1
 2770 006e 0022     		movs	r2, #0
 2771 0070 C254     		strb	r2, [r0, r3]
1032:Drivers/STM32F0xx_HAL_Driver/Src/stm32f0xx_hal_pcd.c ****     
1033:Drivers/STM32F0xx_HAL_Driver/Src/stm32f0xx_hal_pcd.c ****   return HAL_OK;
 2772              		.loc 1 1033 3 view .LVU646
 2773              		.loc 1 1033 10 is_stmt 0 view .LVU647
 2774 0072 0020     		movs	r0, #0
 2775              	.LVL211:
 2776              	.L129:
1034:Drivers/STM32F0xx_HAL_Driver/Src/stm32f0xx_hal_pcd.c **** }
 2777              		.loc 1 1034 1 view .LVU648
 2778              		@ sp needed
 2779 0074 10BD     		pop	{r4, pc}
 2780              	.LVL212:
 2781              	.L135:
1008:Drivers/STM32F0xx_HAL_Driver/Src/stm32f0xx_hal_pcd.c ****   }
 2782              		.loc 1 1008 5 is_stmt 1 view .LVU649
1008:Drivers/STM32F0xx_HAL_Driver/Src/stm32f0xx_hal_pcd.c ****   }
 2783              		.loc 1 1008 31 is_stmt 0 view .LVU650
 2784 0076 7F21     		movs	r1, #127
 2785              	.LVL213:
1008:Drivers/STM32F0xx_HAL_Driver/Src/stm32f0xx_hal_pcd.c ****   }
 2786              		.loc 1 1008 31 view .LVU651
 2787 0078 2140     		ands	r1, r4
1008:Drivers/STM32F0xx_HAL_Driver/Src/stm32f0xx_hal_pcd.c ****   }
 2788              		.loc 1 1008 8 view .LVU652
 2789 007a CB00     		lsls	r3, r1, #3
 2790 007c 5B1A     		subs	r3, r3, r1
 2791 007e 9B00     		lsls	r3, r3, #2
 2792 0080 2833     		adds	r3, r3, #40
 2793 0082 C318     		adds	r3, r0, r3
 2794              	.LVL214:
1008:Drivers/STM32F0xx_HAL_Driver/Src/stm32f0xx_hal_pcd.c ****   }
 2795              		.loc 1 1008 8 view .LVU653
 2796 0084 C7E7     		b	.L128
 2797              	.LVL215:
 2798              	.L130:
1028:Drivers/STM32F0xx_HAL_Driver/Src/stm32f0xx_hal_pcd.c ****     PCD_SET_EP_RX_STATUS(hpcd->Instance, ep->num, USB_EP_RX_VALID)
ARM GAS  /tmp/ccHm7VQo.s 			page 73


 2799              		.loc 1 1028 5 is_stmt 1 view .LVU654
 2800 0086 0168     		ldr	r1, [r0]
 2801 0088 1A78     		ldrb	r2, [r3]
 2802 008a 9200     		lsls	r2, r2, #2
 2803 008c 8C18     		adds	r4, r1, r2
 2804 008e 8A5A     		ldrh	r2, [r1, r2]
 2805 0090 5104     		lsls	r1, r2, #17
 2806 0092 04D5     		bpl	.L133
1028:Drivers/STM32F0xx_HAL_Driver/Src/stm32f0xx_hal_pcd.c ****     PCD_SET_EP_RX_STATUS(hpcd->Instance, ep->num, USB_EP_RX_VALID)
 2807              		.loc 1 1028 5 discriminator 1 view .LVU655
 2808 0094 0949     		ldr	r1, .L136
 2809 0096 0A40     		ands	r2, r1
 2810 0098 0C49     		ldr	r1, .L136+16
 2811 009a 0A43     		orrs	r2, r1
 2812 009c 2280     		strh	r2, [r4]
 2813              	.L133:
 2814              	.LBB33:
1029:Drivers/STM32F0xx_HAL_Driver/Src/stm32f0xx_hal_pcd.c ****   }
 2815              		.loc 1 1029 5 view .LVU656
1029:Drivers/STM32F0xx_HAL_Driver/Src/stm32f0xx_hal_pcd.c ****   }
 2816              		.loc 1 1029 5 view .LVU657
 2817 009e 0468     		ldr	r4, [r0]
 2818 00a0 1B78     		ldrb	r3, [r3]
 2819              	.LVL216:
1029:Drivers/STM32F0xx_HAL_Driver/Src/stm32f0xx_hal_pcd.c ****   }
 2820              		.loc 1 1029 5 is_stmt 0 view .LVU658
 2821 00a2 9B00     		lsls	r3, r3, #2
 2822 00a4 E15A     		ldrh	r1, [r4, r3]
 2823 00a6 0A4A     		ldr	r2, .L136+20
 2824 00a8 1140     		ands	r1, r2
 2825              	.LVL217:
1029:Drivers/STM32F0xx_HAL_Driver/Src/stm32f0xx_hal_pcd.c ****   }
 2826              		.loc 1 1029 5 is_stmt 1 view .LVU659
1029:Drivers/STM32F0xx_HAL_Driver/Src/stm32f0xx_hal_pcd.c ****   }
 2827              		.loc 1 1029 5 view .LVU660
1029:Drivers/STM32F0xx_HAL_Driver/Src/stm32f0xx_hal_pcd.c ****   }
 2828              		.loc 1 1029 5 view .LVU661
1029:Drivers/STM32F0xx_HAL_Driver/Src/stm32f0xx_hal_pcd.c ****   }
 2829              		.loc 1 1029 5 view .LVU662
 2830 00aa C022     		movs	r2, #192
 2831 00ac 9201     		lsls	r2, r2, #6
 2832 00ae 5140     		eors	r1, r2
 2833              	.LVL218:
1029:Drivers/STM32F0xx_HAL_Driver/Src/stm32f0xx_hal_pcd.c ****   }
 2834              		.loc 1 1029 5 view .LVU663
 2835 00b0 054A     		ldr	r2, .L136+12
 2836 00b2 0A43     		orrs	r2, r1
 2837 00b4 E252     		strh	r2, [r4, r3]
 2838 00b6 D8E7     		b	.L132
 2839              	.LVL219:
 2840              	.L134:
1029:Drivers/STM32F0xx_HAL_Driver/Src/stm32f0xx_hal_pcd.c ****   }
 2841              		.loc 1 1029 5 is_stmt 0 view .LVU664
 2842              	.LBE33:
1019:Drivers/STM32F0xx_HAL_Driver/Src/stm32f0xx_hal_pcd.c ****   
 2843              		.loc 1 1019 3 view .LVU665
 2844 00b8 0220     		movs	r0, #2
ARM GAS  /tmp/ccHm7VQo.s 			page 74


 2845              	.LVL220:
1019:Drivers/STM32F0xx_HAL_Driver/Src/stm32f0xx_hal_pcd.c ****   
 2846              		.loc 1 1019 3 view .LVU666
 2847 00ba DBE7     		b	.L129
 2848              	.L137:
 2849              		.align	2
 2850              	.L136:
 2851 00bc 0F0F0000 		.word	3855
 2852 00c0 C080FFFF 		.word	-32576
 2853 00c4 BF8FFFFF 		.word	-28737
 2854 00c8 8080FFFF 		.word	-32640
 2855 00cc 80C0FFFF 		.word	-16256
 2856 00d0 8FBFFFFF 		.word	-16497
 2857              		.cfi_endproc
 2858              	.LFE64:
 2860              		.section	.text.HAL_PCD_EP_Flush,"ax",%progbits
 2861              		.align	1
 2862              		.global	HAL_PCD_EP_Flush
 2863              		.syntax unified
 2864              		.code	16
 2865              		.thumb_func
 2866              		.fpu softvfp
 2868              	HAL_PCD_EP_Flush:
 2869              	.LVL221:
 2870              	.LFB65:
1035:Drivers/STM32F0xx_HAL_Driver/Src/stm32f0xx_hal_pcd.c **** 
1036:Drivers/STM32F0xx_HAL_Driver/Src/stm32f0xx_hal_pcd.c **** /**
1037:Drivers/STM32F0xx_HAL_Driver/Src/stm32f0xx_hal_pcd.c ****   * @brief  Flush an endpoint
1038:Drivers/STM32F0xx_HAL_Driver/Src/stm32f0xx_hal_pcd.c ****   * @param  hpcd PCD handle
1039:Drivers/STM32F0xx_HAL_Driver/Src/stm32f0xx_hal_pcd.c ****   * @param  ep_addr endpoint address
1040:Drivers/STM32F0xx_HAL_Driver/Src/stm32f0xx_hal_pcd.c ****   * @retval HAL status
1041:Drivers/STM32F0xx_HAL_Driver/Src/stm32f0xx_hal_pcd.c ****   */
1042:Drivers/STM32F0xx_HAL_Driver/Src/stm32f0xx_hal_pcd.c **** HAL_StatusTypeDef HAL_PCD_EP_Flush(PCD_HandleTypeDef *hpcd, uint8_t ep_addr)
1043:Drivers/STM32F0xx_HAL_Driver/Src/stm32f0xx_hal_pcd.c **** { 
 2871              		.loc 1 1043 1 is_stmt 1 view -0
 2872              		.cfi_startproc
 2873              		@ args = 0, pretend = 0, frame = 0
 2874              		@ frame_needed = 0, uses_anonymous_args = 0
 2875              		@ link register save eliminated.
1044:Drivers/STM32F0xx_HAL_Driver/Src/stm32f0xx_hal_pcd.c ****   return HAL_OK;
 2876              		.loc 1 1044 3 view .LVU668
1045:Drivers/STM32F0xx_HAL_Driver/Src/stm32f0xx_hal_pcd.c **** }
 2877              		.loc 1 1045 1 is_stmt 0 view .LVU669
 2878 0000 0020     		movs	r0, #0
 2879              	.LVL222:
 2880              		.loc 1 1045 1 view .LVU670
 2881              		@ sp needed
 2882 0002 7047     		bx	lr
 2883              		.cfi_endproc
 2884              	.LFE65:
 2886              		.section	.text.HAL_PCD_ActivateRemoteWakeup,"ax",%progbits
 2887              		.align	1
 2888              		.global	HAL_PCD_ActivateRemoteWakeup
 2889              		.syntax unified
 2890              		.code	16
 2891              		.thumb_func
 2892              		.fpu softvfp
ARM GAS  /tmp/ccHm7VQo.s 			page 75


 2894              	HAL_PCD_ActivateRemoteWakeup:
 2895              	.LVL223:
 2896              	.LFB66:
1046:Drivers/STM32F0xx_HAL_Driver/Src/stm32f0xx_hal_pcd.c **** 
1047:Drivers/STM32F0xx_HAL_Driver/Src/stm32f0xx_hal_pcd.c **** /**
1048:Drivers/STM32F0xx_HAL_Driver/Src/stm32f0xx_hal_pcd.c ****   * @brief  HAL_PCD_ActivateRemoteWakeup : active remote wakeup signalling
1049:Drivers/STM32F0xx_HAL_Driver/Src/stm32f0xx_hal_pcd.c **** * @param  hpcd PCD handle
1050:Drivers/STM32F0xx_HAL_Driver/Src/stm32f0xx_hal_pcd.c **** * @retval HAL status
1051:Drivers/STM32F0xx_HAL_Driver/Src/stm32f0xx_hal_pcd.c **** */
1052:Drivers/STM32F0xx_HAL_Driver/Src/stm32f0xx_hal_pcd.c **** HAL_StatusTypeDef HAL_PCD_ActivateRemoteWakeup(PCD_HandleTypeDef *hpcd)
1053:Drivers/STM32F0xx_HAL_Driver/Src/stm32f0xx_hal_pcd.c **** {
 2897              		.loc 1 1053 1 is_stmt 1 view -0
 2898              		.cfi_startproc
 2899              		@ args = 0, pretend = 0, frame = 0
 2900              		@ frame_needed = 0, uses_anonymous_args = 0
 2901              		@ link register save eliminated.
1054:Drivers/STM32F0xx_HAL_Driver/Src/stm32f0xx_hal_pcd.c ****   if (hpcd->Init.lpm_enable ==1)
 2902              		.loc 1 1054 3 view .LVU672
 2903              		.loc 1 1054 6 is_stmt 0 view .LVU673
 2904 0000 C369     		ldr	r3, [r0, #28]
 2905 0002 012B     		cmp	r3, #1
 2906 0004 07D0     		beq	.L142
1055:Drivers/STM32F0xx_HAL_Driver/Src/stm32f0xx_hal_pcd.c ****   {
1056:Drivers/STM32F0xx_HAL_Driver/Src/stm32f0xx_hal_pcd.c ****     /* Apply L1 Resume */
1057:Drivers/STM32F0xx_HAL_Driver/Src/stm32f0xx_hal_pcd.c ****     hpcd->Instance->CNTR |= USB_CNTR_L1RESUME;
1058:Drivers/STM32F0xx_HAL_Driver/Src/stm32f0xx_hal_pcd.c ****   }
1059:Drivers/STM32F0xx_HAL_Driver/Src/stm32f0xx_hal_pcd.c ****   else
1060:Drivers/STM32F0xx_HAL_Driver/Src/stm32f0xx_hal_pcd.c ****   {
1061:Drivers/STM32F0xx_HAL_Driver/Src/stm32f0xx_hal_pcd.c ****     /* Apply L2 Resume */
1062:Drivers/STM32F0xx_HAL_Driver/Src/stm32f0xx_hal_pcd.c ****     hpcd->Instance->CNTR |= USB_CNTR_RESUME;
 2907              		.loc 1 1062 5 is_stmt 1 view .LVU674
 2908              		.loc 1 1062 9 is_stmt 0 view .LVU675
 2909 0006 0168     		ldr	r1, [r0]
 2910              		.loc 1 1062 26 view .LVU676
 2911 0008 4022     		movs	r2, #64
 2912 000a 8B5A     		ldrh	r3, [r1, r2]
 2913 000c 1020     		movs	r0, #16
 2914              	.LVL224:
 2915              		.loc 1 1062 26 view .LVU677
 2916 000e 0343     		orrs	r3, r0
 2917 0010 8B52     		strh	r3, [r1, r2]
 2918              	.L141:
1063:Drivers/STM32F0xx_HAL_Driver/Src/stm32f0xx_hal_pcd.c ****   }
1064:Drivers/STM32F0xx_HAL_Driver/Src/stm32f0xx_hal_pcd.c ****   
1065:Drivers/STM32F0xx_HAL_Driver/Src/stm32f0xx_hal_pcd.c ****   return (HAL_OK);
 2919              		.loc 1 1065 3 is_stmt 1 view .LVU678
1066:Drivers/STM32F0xx_HAL_Driver/Src/stm32f0xx_hal_pcd.c **** }
 2920              		.loc 1 1066 1 is_stmt 0 view .LVU679
 2921 0012 0020     		movs	r0, #0
 2922              		@ sp needed
 2923 0014 7047     		bx	lr
 2924              	.LVL225:
 2925              	.L142:
1057:Drivers/STM32F0xx_HAL_Driver/Src/stm32f0xx_hal_pcd.c ****   }
 2926              		.loc 1 1057 5 is_stmt 1 view .LVU680
1057:Drivers/STM32F0xx_HAL_Driver/Src/stm32f0xx_hal_pcd.c ****   }
 2927              		.loc 1 1057 9 is_stmt 0 view .LVU681
ARM GAS  /tmp/ccHm7VQo.s 			page 76


 2928 0016 0168     		ldr	r1, [r0]
1057:Drivers/STM32F0xx_HAL_Driver/Src/stm32f0xx_hal_pcd.c ****   }
 2929              		.loc 1 1057 26 view .LVU682
 2930 0018 4022     		movs	r2, #64
 2931 001a 8B5A     		ldrh	r3, [r1, r2]
 2932 001c 2020     		movs	r0, #32
 2933              	.LVL226:
1057:Drivers/STM32F0xx_HAL_Driver/Src/stm32f0xx_hal_pcd.c ****   }
 2934              		.loc 1 1057 26 view .LVU683
 2935 001e 0343     		orrs	r3, r0
 2936 0020 8B52     		strh	r3, [r1, r2]
 2937 0022 F6E7     		b	.L141
 2938              		.cfi_endproc
 2939              	.LFE66:
 2941              		.section	.text.HAL_PCD_DeActivateRemoteWakeup,"ax",%progbits
 2942              		.align	1
 2943              		.global	HAL_PCD_DeActivateRemoteWakeup
 2944              		.syntax unified
 2945              		.code	16
 2946              		.thumb_func
 2947              		.fpu softvfp
 2949              	HAL_PCD_DeActivateRemoteWakeup:
 2950              	.LVL227:
 2951              	.LFB67:
1067:Drivers/STM32F0xx_HAL_Driver/Src/stm32f0xx_hal_pcd.c **** 
1068:Drivers/STM32F0xx_HAL_Driver/Src/stm32f0xx_hal_pcd.c **** /**
1069:Drivers/STM32F0xx_HAL_Driver/Src/stm32f0xx_hal_pcd.c **** * @brief  HAL_PCD_DeActivateRemoteWakeup : de-active remote wakeup signalling
1070:Drivers/STM32F0xx_HAL_Driver/Src/stm32f0xx_hal_pcd.c **** * @param  hpcd PCD handle
1071:Drivers/STM32F0xx_HAL_Driver/Src/stm32f0xx_hal_pcd.c **** * @retval HAL status
1072:Drivers/STM32F0xx_HAL_Driver/Src/stm32f0xx_hal_pcd.c **** */
1073:Drivers/STM32F0xx_HAL_Driver/Src/stm32f0xx_hal_pcd.c **** HAL_StatusTypeDef HAL_PCD_DeActivateRemoteWakeup(PCD_HandleTypeDef *hpcd)
1074:Drivers/STM32F0xx_HAL_Driver/Src/stm32f0xx_hal_pcd.c **** {
 2952              		.loc 1 1074 1 is_stmt 1 view -0
 2953              		.cfi_startproc
 2954              		@ args = 0, pretend = 0, frame = 0
 2955              		@ frame_needed = 0, uses_anonymous_args = 0
 2956              		@ link register save eliminated.
1075:Drivers/STM32F0xx_HAL_Driver/Src/stm32f0xx_hal_pcd.c ****   if (hpcd->Init.lpm_enable ==1)
 2957              		.loc 1 1075 3 view .LVU685
 2958              		.loc 1 1075 6 is_stmt 0 view .LVU686
 2959 0000 C369     		ldr	r3, [r0, #28]
 2960 0002 012B     		cmp	r3, #1
 2961 0004 07D0     		beq	.L146
1076:Drivers/STM32F0xx_HAL_Driver/Src/stm32f0xx_hal_pcd.c ****   {
1077:Drivers/STM32F0xx_HAL_Driver/Src/stm32f0xx_hal_pcd.c ****     /* Release L1 Resume */
1078:Drivers/STM32F0xx_HAL_Driver/Src/stm32f0xx_hal_pcd.c ****     hpcd->Instance->CNTR &= ((uint16_t)(~ USB_CNTR_L1RESUME));
1079:Drivers/STM32F0xx_HAL_Driver/Src/stm32f0xx_hal_pcd.c ****   }
1080:Drivers/STM32F0xx_HAL_Driver/Src/stm32f0xx_hal_pcd.c ****   else
1081:Drivers/STM32F0xx_HAL_Driver/Src/stm32f0xx_hal_pcd.c ****   {
1082:Drivers/STM32F0xx_HAL_Driver/Src/stm32f0xx_hal_pcd.c ****     /* Release L2 Resume */
1083:Drivers/STM32F0xx_HAL_Driver/Src/stm32f0xx_hal_pcd.c ****     hpcd->Instance->CNTR &= ((uint16_t)(~ USB_CNTR_RESUME)) ;
 2962              		.loc 1 1083 5 is_stmt 1 view .LVU687
 2963              		.loc 1 1083 9 is_stmt 0 view .LVU688
 2964 0006 0168     		ldr	r1, [r0]
 2965              		.loc 1 1083 26 view .LVU689
 2966 0008 4022     		movs	r2, #64
 2967 000a 8B5A     		ldrh	r3, [r1, r2]
ARM GAS  /tmp/ccHm7VQo.s 			page 77


 2968 000c 1020     		movs	r0, #16
 2969              	.LVL228:
 2970              		.loc 1 1083 26 view .LVU690
 2971 000e 8343     		bics	r3, r0
 2972 0010 8B52     		strh	r3, [r1, r2]
 2973              	.L145:
1084:Drivers/STM32F0xx_HAL_Driver/Src/stm32f0xx_hal_pcd.c ****   }
1085:Drivers/STM32F0xx_HAL_Driver/Src/stm32f0xx_hal_pcd.c ****   
1086:Drivers/STM32F0xx_HAL_Driver/Src/stm32f0xx_hal_pcd.c ****   return (HAL_OK);
 2974              		.loc 1 1086 3 is_stmt 1 view .LVU691
1087:Drivers/STM32F0xx_HAL_Driver/Src/stm32f0xx_hal_pcd.c **** }
 2975              		.loc 1 1087 1 is_stmt 0 view .LVU692
 2976 0012 0020     		movs	r0, #0
 2977              		@ sp needed
 2978 0014 7047     		bx	lr
 2979              	.LVL229:
 2980              	.L146:
1078:Drivers/STM32F0xx_HAL_Driver/Src/stm32f0xx_hal_pcd.c ****   }
 2981              		.loc 1 1078 5 is_stmt 1 view .LVU693
1078:Drivers/STM32F0xx_HAL_Driver/Src/stm32f0xx_hal_pcd.c ****   }
 2982              		.loc 1 1078 9 is_stmt 0 view .LVU694
 2983 0016 0168     		ldr	r1, [r0]
1078:Drivers/STM32F0xx_HAL_Driver/Src/stm32f0xx_hal_pcd.c ****   }
 2984              		.loc 1 1078 26 view .LVU695
 2985 0018 4022     		movs	r2, #64
 2986 001a 8B5A     		ldrh	r3, [r1, r2]
 2987 001c 2020     		movs	r0, #32
 2988              	.LVL230:
1078:Drivers/STM32F0xx_HAL_Driver/Src/stm32f0xx_hal_pcd.c ****   }
 2989              		.loc 1 1078 26 view .LVU696
 2990 001e 8343     		bics	r3, r0
 2991 0020 8B52     		strh	r3, [r1, r2]
 2992 0022 F6E7     		b	.L145
 2993              		.cfi_endproc
 2994              	.LFE67:
 2996              		.section	.text.HAL_PCD_GetState,"ax",%progbits
 2997              		.align	1
 2998              		.global	HAL_PCD_GetState
 2999              		.syntax unified
 3000              		.code	16
 3001              		.thumb_func
 3002              		.fpu softvfp
 3004              	HAL_PCD_GetState:
 3005              	.LVL231:
 3006              	.LFB68:
1088:Drivers/STM32F0xx_HAL_Driver/Src/stm32f0xx_hal_pcd.c **** /**
1089:Drivers/STM32F0xx_HAL_Driver/Src/stm32f0xx_hal_pcd.c ****   * @}
1090:Drivers/STM32F0xx_HAL_Driver/Src/stm32f0xx_hal_pcd.c ****   */
1091:Drivers/STM32F0xx_HAL_Driver/Src/stm32f0xx_hal_pcd.c **** 
1092:Drivers/STM32F0xx_HAL_Driver/Src/stm32f0xx_hal_pcd.c **** /** @defgroup PCD_Exported_Functions_Group4 Peripheral State functions 
1093:Drivers/STM32F0xx_HAL_Driver/Src/stm32f0xx_hal_pcd.c ****  *  @brief   Peripheral State functions 
1094:Drivers/STM32F0xx_HAL_Driver/Src/stm32f0xx_hal_pcd.c ****  *
1095:Drivers/STM32F0xx_HAL_Driver/Src/stm32f0xx_hal_pcd.c **** @verbatim   
1096:Drivers/STM32F0xx_HAL_Driver/Src/stm32f0xx_hal_pcd.c ****  ===============================================================================
1097:Drivers/STM32F0xx_HAL_Driver/Src/stm32f0xx_hal_pcd.c ****                       ##### Peripheral State functions #####
1098:Drivers/STM32F0xx_HAL_Driver/Src/stm32f0xx_hal_pcd.c ****  ===============================================================================  
1099:Drivers/STM32F0xx_HAL_Driver/Src/stm32f0xx_hal_pcd.c ****     [..]
ARM GAS  /tmp/ccHm7VQo.s 			page 78


1100:Drivers/STM32F0xx_HAL_Driver/Src/stm32f0xx_hal_pcd.c ****     This subsection permits to get in run-time the status of the peripheral 
1101:Drivers/STM32F0xx_HAL_Driver/Src/stm32f0xx_hal_pcd.c ****     and the data flow.
1102:Drivers/STM32F0xx_HAL_Driver/Src/stm32f0xx_hal_pcd.c **** 
1103:Drivers/STM32F0xx_HAL_Driver/Src/stm32f0xx_hal_pcd.c **** @endverbatim
1104:Drivers/STM32F0xx_HAL_Driver/Src/stm32f0xx_hal_pcd.c ****   * @{
1105:Drivers/STM32F0xx_HAL_Driver/Src/stm32f0xx_hal_pcd.c ****   */
1106:Drivers/STM32F0xx_HAL_Driver/Src/stm32f0xx_hal_pcd.c **** 
1107:Drivers/STM32F0xx_HAL_Driver/Src/stm32f0xx_hal_pcd.c **** /**
1108:Drivers/STM32F0xx_HAL_Driver/Src/stm32f0xx_hal_pcd.c ****   * @brief  Return the PCD state
1109:Drivers/STM32F0xx_HAL_Driver/Src/stm32f0xx_hal_pcd.c ****   * @param  hpcd PCD handle
1110:Drivers/STM32F0xx_HAL_Driver/Src/stm32f0xx_hal_pcd.c ****   * @retval HAL state
1111:Drivers/STM32F0xx_HAL_Driver/Src/stm32f0xx_hal_pcd.c ****   */
1112:Drivers/STM32F0xx_HAL_Driver/Src/stm32f0xx_hal_pcd.c **** PCD_StateTypeDef HAL_PCD_GetState(PCD_HandleTypeDef *hpcd)
1113:Drivers/STM32F0xx_HAL_Driver/Src/stm32f0xx_hal_pcd.c **** {
 3007              		.loc 1 1113 1 is_stmt 1 view -0
 3008              		.cfi_startproc
 3009              		@ args = 0, pretend = 0, frame = 0
 3010              		@ frame_needed = 0, uses_anonymous_args = 0
 3011              		@ link register save eliminated.
1114:Drivers/STM32F0xx_HAL_Driver/Src/stm32f0xx_hal_pcd.c ****   return hpcd->State;
 3012              		.loc 1 1114 3 view .LVU698
 3013              		.loc 1 1114 14 is_stmt 0 view .LVU699
 3014 0000 EA23     		movs	r3, #234
 3015 0002 FF33     		adds	r3, r3, #255
 3016 0004 C05C     		ldrb	r0, [r0, r3]
 3017              	.LVL232:
 3018              		.loc 1 1114 14 view .LVU700
 3019 0006 C0B2     		uxtb	r0, r0
1115:Drivers/STM32F0xx_HAL_Driver/Src/stm32f0xx_hal_pcd.c **** }
 3020              		.loc 1 1115 1 view .LVU701
 3021              		@ sp needed
 3022 0008 7047     		bx	lr
 3023              		.cfi_endproc
 3024              	.LFE68:
 3026              		.section	.text.PCD_WritePMA,"ax",%progbits
 3027              		.align	1
 3028              		.global	PCD_WritePMA
 3029              		.syntax unified
 3030              		.code	16
 3031              		.thumb_func
 3032              		.fpu softvfp
 3034              	PCD_WritePMA:
 3035              	.LVL233:
 3036              	.LFB69:
1116:Drivers/STM32F0xx_HAL_Driver/Src/stm32f0xx_hal_pcd.c **** /**
1117:Drivers/STM32F0xx_HAL_Driver/Src/stm32f0xx_hal_pcd.c ****   * @}
1118:Drivers/STM32F0xx_HAL_Driver/Src/stm32f0xx_hal_pcd.c ****   */
1119:Drivers/STM32F0xx_HAL_Driver/Src/stm32f0xx_hal_pcd.c ****   
1120:Drivers/STM32F0xx_HAL_Driver/Src/stm32f0xx_hal_pcd.c **** /**
1121:Drivers/STM32F0xx_HAL_Driver/Src/stm32f0xx_hal_pcd.c ****   * @}
1122:Drivers/STM32F0xx_HAL_Driver/Src/stm32f0xx_hal_pcd.c ****   */
1123:Drivers/STM32F0xx_HAL_Driver/Src/stm32f0xx_hal_pcd.c **** 
1124:Drivers/STM32F0xx_HAL_Driver/Src/stm32f0xx_hal_pcd.c **** /** @addtogroup PCD_Private_Functions
1125:Drivers/STM32F0xx_HAL_Driver/Src/stm32f0xx_hal_pcd.c ****   * @{
1126:Drivers/STM32F0xx_HAL_Driver/Src/stm32f0xx_hal_pcd.c ****   */
1127:Drivers/STM32F0xx_HAL_Driver/Src/stm32f0xx_hal_pcd.c **** /**
1128:Drivers/STM32F0xx_HAL_Driver/Src/stm32f0xx_hal_pcd.c ****   * @brief Copy a buffer from user memory area to packet memory area (PMA)
ARM GAS  /tmp/ccHm7VQo.s 			page 79


1129:Drivers/STM32F0xx_HAL_Driver/Src/stm32f0xx_hal_pcd.c ****   * @param   USBx USB peripheral instance register address.
1130:Drivers/STM32F0xx_HAL_Driver/Src/stm32f0xx_hal_pcd.c ****   * @param   pbUsrBuf pointer to user memory area.
1131:Drivers/STM32F0xx_HAL_Driver/Src/stm32f0xx_hal_pcd.c ****   * @param   wPMABufAddr address into PMA.
1132:Drivers/STM32F0xx_HAL_Driver/Src/stm32f0xx_hal_pcd.c ****   * @param   wNBytes no. of bytes to be copied.
1133:Drivers/STM32F0xx_HAL_Driver/Src/stm32f0xx_hal_pcd.c ****   * @retval None
1134:Drivers/STM32F0xx_HAL_Driver/Src/stm32f0xx_hal_pcd.c ****   */
1135:Drivers/STM32F0xx_HAL_Driver/Src/stm32f0xx_hal_pcd.c **** void PCD_WritePMA(USB_TypeDef  *USBx, uint8_t *pbUsrBuf, uint16_t wPMABufAddr, uint16_t wNBytes)
1136:Drivers/STM32F0xx_HAL_Driver/Src/stm32f0xx_hal_pcd.c **** {
 3037              		.loc 1 1136 1 is_stmt 1 view -0
 3038              		.cfi_startproc
 3039              		@ args = 0, pretend = 0, frame = 0
 3040              		@ frame_needed = 0, uses_anonymous_args = 0
 3041              		.loc 1 1136 1 is_stmt 0 view .LVU703
 3042 0000 10B5     		push	{r4, lr}
 3043              	.LCFI10:
 3044              		.cfi_def_cfa_offset 8
 3045              		.cfi_offset 4, -8
 3046              		.cfi_offset 14, -4
1137:Drivers/STM32F0xx_HAL_Driver/Src/stm32f0xx_hal_pcd.c ****   uint32_t n =  ((uint32_t)((uint32_t)wNBytes + 1U)) >> 1U;
 3047              		.loc 1 1137 3 is_stmt 1 view .LVU704
 3048              		.loc 1 1137 18 is_stmt 0 view .LVU705
 3049 0002 0133     		adds	r3, r3, #1
 3050              	.LVL234:
 3051              		.loc 1 1137 12 view .LVU706
 3052 0004 5B08     		lsrs	r3, r3, #1
 3053              	.LVL235:
1138:Drivers/STM32F0xx_HAL_Driver/Src/stm32f0xx_hal_pcd.c ****   uint32_t i;
 3054              		.loc 1 1138 3 is_stmt 1 view .LVU707
1139:Drivers/STM32F0xx_HAL_Driver/Src/stm32f0xx_hal_pcd.c ****   uint16_t temp1, temp2;
 3055              		.loc 1 1139 3 view .LVU708
1140:Drivers/STM32F0xx_HAL_Driver/Src/stm32f0xx_hal_pcd.c ****   uint16_t *pdwVal;
 3056              		.loc 1 1140 3 view .LVU709
1141:Drivers/STM32F0xx_HAL_Driver/Src/stm32f0xx_hal_pcd.c ****   pdwVal = (uint16_t *)((uint32_t)(wPMABufAddr + (uint32_t)USBx + 0x400U));
 3057              		.loc 1 1141 3 view .LVU710
 3058              		.loc 1 1141 48 is_stmt 0 view .LVU711
 3059 0006 1018     		adds	r0, r2, r0
 3060              	.LVL236:
 3061              		.loc 1 1141 25 view .LVU712
 3062 0008 8022     		movs	r2, #128
 3063              	.LVL237:
 3064              		.loc 1 1141 25 view .LVU713
 3065 000a D200     		lsls	r2, r2, #3
 3066 000c 9446     		mov	ip, r2
 3067 000e 6044     		add	r0, r0, ip
 3068              	.LVL238:
1142:Drivers/STM32F0xx_HAL_Driver/Src/stm32f0xx_hal_pcd.c ****   
1143:Drivers/STM32F0xx_HAL_Driver/Src/stm32f0xx_hal_pcd.c ****   for (i = n; i != 0; i--)
 3069              		.loc 1 1143 3 is_stmt 1 view .LVU714
 3070              	.L149:
 3071              		.loc 1 1143 3 is_stmt 0 discriminator 1 view .LVU715
 3072 0010 002B     		cmp	r3, #0
 3073 0012 08D0     		beq	.L151
1144:Drivers/STM32F0xx_HAL_Driver/Src/stm32f0xx_hal_pcd.c ****   {
1145:Drivers/STM32F0xx_HAL_Driver/Src/stm32f0xx_hal_pcd.c ****     temp1 = (uint16_t) * pbUsrBuf;
 3074              		.loc 1 1145 5 is_stmt 1 discriminator 3 view .LVU716
 3075              		.loc 1 1145 11 is_stmt 0 discriminator 3 view .LVU717
 3076 0014 0C78     		ldrb	r4, [r1]
ARM GAS  /tmp/ccHm7VQo.s 			page 80


 3077              	.LVL239:
1146:Drivers/STM32F0xx_HAL_Driver/Src/stm32f0xx_hal_pcd.c ****     pbUsrBuf++;
 3078              		.loc 1 1146 5 is_stmt 1 discriminator 3 view .LVU718
1147:Drivers/STM32F0xx_HAL_Driver/Src/stm32f0xx_hal_pcd.c ****     temp2 = temp1 | ((uint16_t)((uint16_t)  * pbUsrBuf << 8U)) ;
 3079              		.loc 1 1147 5 discriminator 3 view .LVU719
 3080              		.loc 1 1147 45 is_stmt 0 discriminator 3 view .LVU720
 3081 0016 4A78     		ldrb	r2, [r1, #1]
 3082              		.loc 1 1147 22 discriminator 3 view .LVU721
 3083 0018 1202     		lsls	r2, r2, #8
 3084              		.loc 1 1147 11 discriminator 3 view .LVU722
 3085 001a 2243     		orrs	r2, r4
 3086              	.LVL240:
1148:Drivers/STM32F0xx_HAL_Driver/Src/stm32f0xx_hal_pcd.c ****     *pdwVal++ = temp2;
 3087              		.loc 1 1148 5 is_stmt 1 discriminator 3 view .LVU723
 3088              		.loc 1 1148 15 is_stmt 0 discriminator 3 view .LVU724
 3089 001c 0280     		strh	r2, [r0]
1149:Drivers/STM32F0xx_HAL_Driver/Src/stm32f0xx_hal_pcd.c ****     pbUsrBuf++;
 3090              		.loc 1 1149 5 is_stmt 1 discriminator 3 view .LVU725
 3091              		.loc 1 1149 13 is_stmt 0 discriminator 3 view .LVU726
 3092 001e 0231     		adds	r1, r1, #2
 3093              	.LVL241:
1143:Drivers/STM32F0xx_HAL_Driver/Src/stm32f0xx_hal_pcd.c ****   {
 3094              		.loc 1 1143 24 discriminator 3 view .LVU727
 3095 0020 013B     		subs	r3, r3, #1
 3096              	.LVL242:
1148:Drivers/STM32F0xx_HAL_Driver/Src/stm32f0xx_hal_pcd.c ****     *pdwVal++ = temp2;
 3097              		.loc 1 1148 12 discriminator 3 view .LVU728
 3098 0022 0230     		adds	r0, r0, #2
 3099              	.LVL243:
1148:Drivers/STM32F0xx_HAL_Driver/Src/stm32f0xx_hal_pcd.c ****     *pdwVal++ = temp2;
 3100              		.loc 1 1148 12 discriminator 3 view .LVU729
 3101 0024 F4E7     		b	.L149
 3102              	.LVL244:
 3103              	.L151:
1150:Drivers/STM32F0xx_HAL_Driver/Src/stm32f0xx_hal_pcd.c ****   }
1151:Drivers/STM32F0xx_HAL_Driver/Src/stm32f0xx_hal_pcd.c **** }
 3104              		.loc 1 1151 1 view .LVU730
 3105              		@ sp needed
 3106 0026 10BD     		pop	{r4, pc}
 3107              		.cfi_endproc
 3108              	.LFE69:
 3110              		.section	.text.HAL_PCD_EP_Transmit,"ax",%progbits
 3111              		.align	1
 3112              		.global	HAL_PCD_EP_Transmit
 3113              		.syntax unified
 3114              		.code	16
 3115              		.thumb_func
 3116              		.fpu softvfp
 3118              	HAL_PCD_EP_Transmit:
 3119              	.LVL245:
 3120              	.LFB62:
 894:Drivers/STM32F0xx_HAL_Driver/Src/stm32f0xx_hal_pcd.c ****   PCD_EPTypeDef *ep;
 3121              		.loc 1 894 1 is_stmt 1 view -0
 3122              		.cfi_startproc
 3123              		@ args = 0, pretend = 0, frame = 0
 3124              		@ frame_needed = 0, uses_anonymous_args = 0
 894:Drivers/STM32F0xx_HAL_Driver/Src/stm32f0xx_hal_pcd.c ****   PCD_EPTypeDef *ep;
ARM GAS  /tmp/ccHm7VQo.s 			page 81


 3125              		.loc 1 894 1 is_stmt 0 view .LVU732
 3126 0000 F8B5     		push	{r3, r4, r5, r6, r7, lr}
 3127              	.LCFI11:
 3128              		.cfi_def_cfa_offset 24
 3129              		.cfi_offset 3, -24
 3130              		.cfi_offset 4, -20
 3131              		.cfi_offset 5, -16
 3132              		.cfi_offset 6, -12
 3133              		.cfi_offset 7, -8
 3134              		.cfi_offset 14, -4
 3135 0002 0500     		movs	r5, r0
 895:Drivers/STM32F0xx_HAL_Driver/Src/stm32f0xx_hal_pcd.c ****   uint16_t pmabuffer = 0U;
 3136              		.loc 1 895 3 is_stmt 1 view .LVU733
 896:Drivers/STM32F0xx_HAL_Driver/Src/stm32f0xx_hal_pcd.c ****     
 3137              		.loc 1 896 3 view .LVU734
 3138              	.LVL246:
 898:Drivers/STM32F0xx_HAL_Driver/Src/stm32f0xx_hal_pcd.c ****   
 3139              		.loc 1 898 3 view .LVU735
 3140 0004 7F24     		movs	r4, #127
 3141 0006 0C40     		ands	r4, r1
 3142              	.LVL247:
 901:Drivers/STM32F0xx_HAL_Driver/Src/stm32f0xx_hal_pcd.c ****   ep->xfer_len = len;
 3143              		.loc 1 901 3 view .LVU736
 901:Drivers/STM32F0xx_HAL_Driver/Src/stm32f0xx_hal_pcd.c ****   ep->xfer_len = len;
 3144              		.loc 1 901 17 is_stmt 0 view .LVU737
 3145 0008 E100     		lsls	r1, r4, #3
 3146              	.LVL248:
 901:Drivers/STM32F0xx_HAL_Driver/Src/stm32f0xx_hal_pcd.c ****   ep->xfer_len = len;
 3147              		.loc 1 901 17 view .LVU738
 3148 000a 091B     		subs	r1, r1, r4
 3149 000c 8900     		lsls	r1, r1, #2
 3150 000e 4118     		adds	r1, r0, r1
 3151 0010 8A63     		str	r2, [r1, #56]
 902:Drivers/STM32F0xx_HAL_Driver/Src/stm32f0xx_hal_pcd.c ****   ep->xfer_count = 0U;
 3152              		.loc 1 902 3 is_stmt 1 view .LVU739
 902:Drivers/STM32F0xx_HAL_Driver/Src/stm32f0xx_hal_pcd.c ****   ep->xfer_count = 0U;
 3153              		.loc 1 902 16 is_stmt 0 view .LVU740
 3154 0012 CB63     		str	r3, [r1, #60]
 903:Drivers/STM32F0xx_HAL_Driver/Src/stm32f0xx_hal_pcd.c ****   ep->is_in = 1U;
 3155              		.loc 1 903 3 is_stmt 1 view .LVU741
 903:Drivers/STM32F0xx_HAL_Driver/Src/stm32f0xx_hal_pcd.c ****   ep->is_in = 1U;
 3156              		.loc 1 903 18 is_stmt 0 view .LVU742
 3157 0014 0022     		movs	r2, #0
 3158              	.LVL249:
 903:Drivers/STM32F0xx_HAL_Driver/Src/stm32f0xx_hal_pcd.c ****   ep->is_in = 1U;
 3159              		.loc 1 903 18 view .LVU743
 3160 0016 0A64     		str	r2, [r1, #64]
 904:Drivers/STM32F0xx_HAL_Driver/Src/stm32f0xx_hal_pcd.c ****   ep->num = ep_addr & 0x7FU;
 3161              		.loc 1 904 3 is_stmt 1 view .LVU744
 904:Drivers/STM32F0xx_HAL_Driver/Src/stm32f0xx_hal_pcd.c ****   ep->num = ep_addr & 0x7FU;
 3162              		.loc 1 904 13 is_stmt 0 view .LVU745
 3163 0018 0A00     		movs	r2, r1
 3164 001a 2932     		adds	r2, r2, #41
 3165 001c 0120     		movs	r0, #1
 3166              	.LVL250:
 904:Drivers/STM32F0xx_HAL_Driver/Src/stm32f0xx_hal_pcd.c ****   ep->num = ep_addr & 0x7FU;
 3167              		.loc 1 904 13 view .LVU746
ARM GAS  /tmp/ccHm7VQo.s 			page 82


 3168 001e 1070     		strb	r0, [r2]
 905:Drivers/STM32F0xx_HAL_Driver/Src/stm32f0xx_hal_pcd.c ****   
 3169              		.loc 1 905 3 is_stmt 1 view .LVU747
 905:Drivers/STM32F0xx_HAL_Driver/Src/stm32f0xx_hal_pcd.c ****   
 3170              		.loc 1 905 11 is_stmt 0 view .LVU748
 3171 0020 013A     		subs	r2, r2, #1
 3172 0022 1470     		strb	r4, [r2]
 908:Drivers/STM32F0xx_HAL_Driver/Src/stm32f0xx_hal_pcd.c ****   {
 3173              		.loc 1 908 3 is_stmt 1 view .LVU749
 908:Drivers/STM32F0xx_HAL_Driver/Src/stm32f0xx_hal_pcd.c ****   {
 3174              		.loc 1 908 24 is_stmt 0 view .LVU750
 3175 0024 4F6B     		ldr	r7, [r1, #52]
 908:Drivers/STM32F0xx_HAL_Driver/Src/stm32f0xx_hal_pcd.c ****   {
 3176              		.loc 1 908 6 view .LVU751
 3177 0026 BB42     		cmp	r3, r7
 3178 0028 33D9     		bls	.L153
 910:Drivers/STM32F0xx_HAL_Driver/Src/stm32f0xx_hal_pcd.c ****     ep->xfer_len-=len; 
 3179              		.loc 1 910 5 is_stmt 1 view .LVU752
 3180              	.LVL251:
 911:Drivers/STM32F0xx_HAL_Driver/Src/stm32f0xx_hal_pcd.c ****   }
 3181              		.loc 1 911 5 view .LVU753
 911:Drivers/STM32F0xx_HAL_Driver/Src/stm32f0xx_hal_pcd.c ****   }
 3182              		.loc 1 911 17 is_stmt 0 view .LVU754
 3183 002a DB1B     		subs	r3, r3, r7
 3184 002c CB63     		str	r3, [r1, #60]
 3185              	.LVL252:
 3186              	.L154:
 920:Drivers/STM32F0xx_HAL_Driver/Src/stm32f0xx_hal_pcd.c ****   {
 3187              		.loc 1 920 3 is_stmt 1 view .LVU755
 920:Drivers/STM32F0xx_HAL_Driver/Src/stm32f0xx_hal_pcd.c ****   {
 3188              		.loc 1 920 9 is_stmt 0 view .LVU756
 3189 002e E200     		lsls	r2, r4, #3
 3190 0030 121B     		subs	r2, r2, r4
 3191 0032 9200     		lsls	r2, r2, #2
 3192 0034 AA18     		adds	r2, r5, r2
 3193 0036 3232     		adds	r2, r2, #50
 3194 0038 1378     		ldrb	r3, [r2]
 920:Drivers/STM32F0xx_HAL_Driver/Src/stm32f0xx_hal_pcd.c ****   {
 3195              		.loc 1 920 6 view .LVU757
 3196 003a 002B     		cmp	r3, #0
 3197 003c 31D0     		beq	.L170
 928:Drivers/STM32F0xx_HAL_Driver/Src/stm32f0xx_hal_pcd.c ****     {
 3198              		.loc 1 928 5 is_stmt 1 view .LVU758
 928:Drivers/STM32F0xx_HAL_Driver/Src/stm32f0xx_hal_pcd.c ****     {
 3199              		.loc 1 928 10 is_stmt 0 view .LVU759
 3200 003e 2A68     		ldr	r2, [r5]
 3201 0040 E300     		lsls	r3, r4, #3
 3202 0042 1B1B     		subs	r3, r3, r4
 3203 0044 9B00     		lsls	r3, r3, #2
 3204 0046 EB18     		adds	r3, r5, r3
 3205 0048 2833     		adds	r3, r3, #40
 3206 004a 1878     		ldrb	r0, [r3]
 3207 004c 8300     		lsls	r3, r0, #2
 3208 004e D35A     		ldrh	r3, [r2, r3]
 928:Drivers/STM32F0xx_HAL_Driver/Src/stm32f0xx_hal_pcd.c ****     {
 3209              		.loc 1 928 8 view .LVU760
 3210 0050 5B06     		lsls	r3, r3, #25
ARM GAS  /tmp/ccHm7VQo.s 			page 83


 3211 0052 00D4     		bmi	.LCB3223
 3212 0054 84E0     		b	.L157	@long jump
 3213              	.LCB3223:
 931:Drivers/STM32F0xx_HAL_Driver/Src/stm32f0xx_hal_pcd.c ****       pmabuffer = ep->pmaaddr1;
 3214              		.loc 1 931 7 is_stmt 1 view .LVU761
 3215 0056 E300     		lsls	r3, r4, #3
 3216 0058 1B1B     		subs	r3, r3, r4
 3217 005a 9B00     		lsls	r3, r3, #2
 3218 005c EB18     		adds	r3, r5, r3
 3219 005e 2933     		adds	r3, r3, #41
 3220 0060 1B78     		ldrb	r3, [r3]
 3221 0062 002B     		cmp	r3, #0
 3222 0064 3ED1     		bne	.L158
 3223              	.LBB34:
 931:Drivers/STM32F0xx_HAL_Driver/Src/stm32f0xx_hal_pcd.c ****       pmabuffer = ep->pmaaddr1;
 3224              		.loc 1 931 7 discriminator 1 view .LVU762
 3225 0066 5033     		adds	r3, r3, #80
 3226 0068 D35A     		ldrh	r3, [r2, r3]
 3227 006a C000     		lsls	r0, r0, #3
 3228 006c 1818     		adds	r0, r3, r0
 3229 006e 8218     		adds	r2, r0, r2
 3230 0070 604B     		ldr	r3, .L173
 3231 0072 9C46     		mov	ip, r3
 3232 0074 6244     		add	r2, r2, ip
 3233              	.LVL253:
 3234              	.LBB35:
 931:Drivers/STM32F0xx_HAL_Driver/Src/stm32f0xx_hal_pcd.c ****       pmabuffer = ep->pmaaddr1;
 3235              		.loc 1 931 7 discriminator 1 view .LVU763
 931:Drivers/STM32F0xx_HAL_Driver/Src/stm32f0xx_hal_pcd.c ****       pmabuffer = ep->pmaaddr1;
 3236              		.loc 1 931 7 discriminator 1 view .LVU764
 3237 0076 3E2F     		cmp	r7, #62
 3238 0078 2BD9     		bls	.L159
 931:Drivers/STM32F0xx_HAL_Driver/Src/stm32f0xx_hal_pcd.c ****       pmabuffer = ep->pmaaddr1;
 3239              		.loc 1 931 7 discriminator 3 view .LVU765
 3240 007a 7B09     		lsrs	r3, r7, #5
 3241 007c 9BB2     		uxth	r3, r3
 3242              	.LVL254:
 931:Drivers/STM32F0xx_HAL_Driver/Src/stm32f0xx_hal_pcd.c ****       pmabuffer = ep->pmaaddr1;
 3243              		.loc 1 931 7 discriminator 3 view .LVU766
 3244 007e F906     		lsls	r1, r7, #27
 3245 0080 01D1     		bne	.L160
 931:Drivers/STM32F0xx_HAL_Driver/Src/stm32f0xx_hal_pcd.c ****       pmabuffer = ep->pmaaddr1;
 3246              		.loc 1 931 7 discriminator 5 view .LVU767
 3247 0082 013B     		subs	r3, r3, #1
 3248              	.LVL255:
 931:Drivers/STM32F0xx_HAL_Driver/Src/stm32f0xx_hal_pcd.c ****       pmabuffer = ep->pmaaddr1;
 3249              		.loc 1 931 7 is_stmt 0 discriminator 5 view .LVU768
 3250 0084 9BB2     		uxth	r3, r3
 3251              	.LVL256:
 3252              	.L160:
 931:Drivers/STM32F0xx_HAL_Driver/Src/stm32f0xx_hal_pcd.c ****       pmabuffer = ep->pmaaddr1;
 3253              		.loc 1 931 7 is_stmt 1 discriminator 7 view .LVU769
 3254 0086 9B02     		lsls	r3, r3, #10
 3255              	.LVL257:
 931:Drivers/STM32F0xx_HAL_Driver/Src/stm32f0xx_hal_pcd.c ****       pmabuffer = ep->pmaaddr1;
 3256              		.loc 1 931 7 is_stmt 0 discriminator 7 view .LVU770
 3257 0088 9BB2     		uxth	r3, r3
ARM GAS  /tmp/ccHm7VQo.s 			page 84


 3258 008a 5B48     		ldr	r0, .L173+4
 3259 008c 0343     		orrs	r3, r0
 3260 008e 1380     		strh	r3, [r2]
 3261 0090 2AE0     		b	.L161
 3262              	.LVL258:
 3263              	.L153:
 931:Drivers/STM32F0xx_HAL_Driver/Src/stm32f0xx_hal_pcd.c ****       pmabuffer = ep->pmaaddr1;
 3264              		.loc 1 931 7 discriminator 7 view .LVU771
 3265              	.LBE35:
 3266              	.LBE34:
 915:Drivers/STM32F0xx_HAL_Driver/Src/stm32f0xx_hal_pcd.c ****     ep->xfer_len =0U;
 3267              		.loc 1 915 5 is_stmt 1 view .LVU772
 916:Drivers/STM32F0xx_HAL_Driver/Src/stm32f0xx_hal_pcd.c ****   }
 3268              		.loc 1 916 5 view .LVU773
 916:Drivers/STM32F0xx_HAL_Driver/Src/stm32f0xx_hal_pcd.c ****   }
 3269              		.loc 1 916 18 is_stmt 0 view .LVU774
 3270 0092 E200     		lsls	r2, r4, #3
 3271 0094 121B     		subs	r2, r2, r4
 3272 0096 9200     		lsls	r2, r2, #2
 3273 0098 AA18     		adds	r2, r5, r2
 3274 009a 0021     		movs	r1, #0
 3275              	.LVL259:
 916:Drivers/STM32F0xx_HAL_Driver/Src/stm32f0xx_hal_pcd.c ****   }
 3276              		.loc 1 916 18 view .LVU775
 3277 009c D163     		str	r1, [r2, #60]
 3278              	.LVL260:
 915:Drivers/STM32F0xx_HAL_Driver/Src/stm32f0xx_hal_pcd.c ****     ep->xfer_len =0U;
 3279              		.loc 1 915 8 view .LVU776
 3280 009e 1F00     		movs	r7, r3
 3281 00a0 C5E7     		b	.L154
 3282              	.LVL261:
 3283              	.L170:
 922:Drivers/STM32F0xx_HAL_Driver/Src/stm32f0xx_hal_pcd.c ****     PCD_SET_EP_TX_CNT(hpcd->Instance, ep->num, len);
 3284              		.loc 1 922 5 is_stmt 1 view .LVU777
 3285 00a2 BFB2     		uxth	r7, r7
 3286              	.LVL262:
 922:Drivers/STM32F0xx_HAL_Driver/Src/stm32f0xx_hal_pcd.c ****     PCD_SET_EP_TX_CNT(hpcd->Instance, ep->num, len);
 3287              		.loc 1 922 5 is_stmt 0 view .LVU778
 3288 00a4 E600     		lsls	r6, r4, #3
 3289 00a6 361B     		subs	r6, r6, r4
 3290 00a8 B600     		lsls	r6, r6, #2
 3291 00aa AE19     		adds	r6, r5, r6
 3292 00ac B28D     		ldrh	r2, [r6, #44]
 3293 00ae 3B00     		movs	r3, r7
 3294 00b0 B16B     		ldr	r1, [r6, #56]
 3295 00b2 2868     		ldr	r0, [r5]
 3296 00b4 FFF7FEFF 		bl	PCD_WritePMA
 3297              	.LVL263:
 923:Drivers/STM32F0xx_HAL_Driver/Src/stm32f0xx_hal_pcd.c ****   }
 3298              		.loc 1 923 5 is_stmt 1 view .LVU779
 3299 00b8 2A68     		ldr	r2, [r5]
 3300 00ba 5023     		movs	r3, #80
 3301 00bc D35A     		ldrh	r3, [r2, r3]
 3302 00be 2836     		adds	r6, r6, #40
 3303 00c0 3178     		ldrb	r1, [r6]
 3304 00c2 C900     		lsls	r1, r1, #3
 3305 00c4 5B18     		adds	r3, r3, r1
ARM GAS  /tmp/ccHm7VQo.s 			page 85


 3306 00c6 9B18     		adds	r3, r3, r2
 3307 00c8 4C4A     		ldr	r2, .L173+8
 3308 00ca 9446     		mov	ip, r2
 3309 00cc 6344     		add	r3, r3, ip
 3310 00ce 1F80     		strh	r7, [r3]
 3311 00d0 2AE0     		b	.L156
 3312              	.LVL264:
 3313              	.L159:
 3314              	.LBB37:
 3315              	.LBB36:
 931:Drivers/STM32F0xx_HAL_Driver/Src/stm32f0xx_hal_pcd.c ****       pmabuffer = ep->pmaaddr1;
 3316              		.loc 1 931 7 discriminator 4 view .LVU780
 3317 00d2 7B08     		lsrs	r3, r7, #1
 3318 00d4 9BB2     		uxth	r3, r3
 3319              	.LVL265:
 931:Drivers/STM32F0xx_HAL_Driver/Src/stm32f0xx_hal_pcd.c ****       pmabuffer = ep->pmaaddr1;
 3320              		.loc 1 931 7 discriminator 4 view .LVU781
 3321 00d6 F907     		lsls	r1, r7, #31
 3322 00d8 01D5     		bpl	.L162
 931:Drivers/STM32F0xx_HAL_Driver/Src/stm32f0xx_hal_pcd.c ****       pmabuffer = ep->pmaaddr1;
 3323              		.loc 1 931 7 discriminator 8 view .LVU782
 3324 00da 0133     		adds	r3, r3, #1
 3325              	.LVL266:
 931:Drivers/STM32F0xx_HAL_Driver/Src/stm32f0xx_hal_pcd.c ****       pmabuffer = ep->pmaaddr1;
 3326              		.loc 1 931 7 is_stmt 0 discriminator 8 view .LVU783
 3327 00dc 9BB2     		uxth	r3, r3
 3328              	.LVL267:
 3329              	.L162:
 931:Drivers/STM32F0xx_HAL_Driver/Src/stm32f0xx_hal_pcd.c ****       pmabuffer = ep->pmaaddr1;
 3330              		.loc 1 931 7 is_stmt 1 discriminator 10 view .LVU784
 3331 00de 9B02     		lsls	r3, r3, #10
 3332              	.LVL268:
 931:Drivers/STM32F0xx_HAL_Driver/Src/stm32f0xx_hal_pcd.c ****       pmabuffer = ep->pmaaddr1;
 3333              		.loc 1 931 7 is_stmt 0 discriminator 10 view .LVU785
 3334 00e0 1380     		strh	r3, [r2]
 3335 00e2 01E0     		b	.L161
 3336              	.LVL269:
 3337              	.L158:
 931:Drivers/STM32F0xx_HAL_Driver/Src/stm32f0xx_hal_pcd.c ****       pmabuffer = ep->pmaaddr1;
 3338              		.loc 1 931 7 discriminator 10 view .LVU786
 3339              	.LBE36:
 3340              	.LBE37:
 931:Drivers/STM32F0xx_HAL_Driver/Src/stm32f0xx_hal_pcd.c ****       pmabuffer = ep->pmaaddr1;
 3341              		.loc 1 931 7 is_stmt 1 discriminator 2 view .LVU787
 3342 00e4 012B     		cmp	r3, #1
 3343 00e6 31D0     		beq	.L171
 3344              	.L161:
 932:Drivers/STM32F0xx_HAL_Driver/Src/stm32f0xx_hal_pcd.c ****     }
 3345              		.loc 1 932 7 view .LVU788
 932:Drivers/STM32F0xx_HAL_Driver/Src/stm32f0xx_hal_pcd.c ****     }
 3346              		.loc 1 932 17 is_stmt 0 view .LVU789
 3347 00e8 E300     		lsls	r3, r4, #3
 3348 00ea 1B1B     		subs	r3, r3, r4
 3349 00ec 9B00     		lsls	r3, r3, #2
 3350 00ee EB18     		adds	r3, r5, r3
 3351 00f0 1A8E     		ldrh	r2, [r3, #48]
 3352              	.LVL270:
ARM GAS  /tmp/ccHm7VQo.s 			page 86


 3353              	.L163:
 941:Drivers/STM32F0xx_HAL_Driver/Src/stm32f0xx_hal_pcd.c ****     PCD_FreeUserBuffer(hpcd->Instance, ep->num, ep->is_in)
 3354              		.loc 1 941 5 is_stmt 1 view .LVU790
 3355 00f2 BBB2     		uxth	r3, r7
 3356 00f4 E600     		lsls	r6, r4, #3
 3357 00f6 361B     		subs	r6, r6, r4
 3358 00f8 B600     		lsls	r6, r6, #2
 3359 00fa AE19     		adds	r6, r5, r6
 3360 00fc B16B     		ldr	r1, [r6, #56]
 3361 00fe 2868     		ldr	r0, [r5]
 3362 0100 FFF7FEFF 		bl	PCD_WritePMA
 3363              	.LVL271:
 942:Drivers/STM32F0xx_HAL_Driver/Src/stm32f0xx_hal_pcd.c ****   }
 3364              		.loc 1 942 5 view .LVU791
 3365 0104 2936     		adds	r6, r6, #41
 3366 0106 3378     		ldrb	r3, [r6]
 3367 0108 002B     		cmp	r3, #0
 3368 010a 62D1     		bne	.L169
 942:Drivers/STM32F0xx_HAL_Driver/Src/stm32f0xx_hal_pcd.c ****   }
 3369              		.loc 1 942 5 discriminator 1 view .LVU792
 3370 010c 2A68     		ldr	r2, [r5]
 3371 010e E300     		lsls	r3, r4, #3
 3372 0110 1B1B     		subs	r3, r3, r4
 3373 0112 9B00     		lsls	r3, r3, #2
 3374 0114 EB18     		adds	r3, r5, r3
 3375 0116 2833     		adds	r3, r3, #40
 3376 0118 1B78     		ldrb	r3, [r3]
 3377 011a 9B00     		lsls	r3, r3, #2
 3378 011c D15A     		ldrh	r1, [r2, r3]
 3379 011e 3848     		ldr	r0, .L173+12
 3380 0120 0840     		ands	r0, r1
 3381 0122 3849     		ldr	r1, .L173+16
 3382 0124 0143     		orrs	r1, r0
 3383 0126 D152     		strh	r1, [r2, r3]
 3384              	.LVL272:
 3385              	.L156:
 3386              	.LBB38:
 945:Drivers/STM32F0xx_HAL_Driver/Src/stm32f0xx_hal_pcd.c ****      
 3387              		.loc 1 945 3 view .LVU793
 945:Drivers/STM32F0xx_HAL_Driver/Src/stm32f0xx_hal_pcd.c ****      
 3388              		.loc 1 945 3 view .LVU794
 3389 0128 2868     		ldr	r0, [r5]
 3390 012a E100     		lsls	r1, r4, #3
 3391 012c 0C1B     		subs	r4, r1, r4
 3392              	.LVL273:
 945:Drivers/STM32F0xx_HAL_Driver/Src/stm32f0xx_hal_pcd.c ****      
 3393              		.loc 1 945 3 is_stmt 0 view .LVU795
 3394 012e A400     		lsls	r4, r4, #2
 3395 0130 2D19     		adds	r5, r5, r4
 3396              	.LVL274:
 945:Drivers/STM32F0xx_HAL_Driver/Src/stm32f0xx_hal_pcd.c ****      
 3397              		.loc 1 945 3 view .LVU796
 3398 0132 2835     		adds	r5, r5, #40
 3399 0134 2A78     		ldrb	r2, [r5]
 3400 0136 9200     		lsls	r2, r2, #2
 3401 0138 835A     		ldrh	r3, [r0, r2]
 3402 013a 3349     		ldr	r1, .L173+20
ARM GAS  /tmp/ccHm7VQo.s 			page 87


 3403 013c 0B40     		ands	r3, r1
 3404              	.LVL275:
 945:Drivers/STM32F0xx_HAL_Driver/Src/stm32f0xx_hal_pcd.c ****      
 3405              		.loc 1 945 3 is_stmt 1 view .LVU797
 945:Drivers/STM32F0xx_HAL_Driver/Src/stm32f0xx_hal_pcd.c ****      
 3406              		.loc 1 945 3 view .LVU798
 945:Drivers/STM32F0xx_HAL_Driver/Src/stm32f0xx_hal_pcd.c ****      
 3407              		.loc 1 945 3 view .LVU799
 945:Drivers/STM32F0xx_HAL_Driver/Src/stm32f0xx_hal_pcd.c ****      
 3408              		.loc 1 945 3 view .LVU800
 3409 013e 3021     		movs	r1, #48
 3410 0140 4B40     		eors	r3, r1
 3411              	.LVL276:
 945:Drivers/STM32F0xx_HAL_Driver/Src/stm32f0xx_hal_pcd.c ****      
 3412              		.loc 1 945 3 view .LVU801
 3413 0142 3249     		ldr	r1, .L173+24
 3414 0144 0B43     		orrs	r3, r1
 3415              	.LVL277:
 945:Drivers/STM32F0xx_HAL_Driver/Src/stm32f0xx_hal_pcd.c ****      
 3416              		.loc 1 945 3 is_stmt 0 view .LVU802
 3417 0146 8352     		strh	r3, [r0, r2]
 945:Drivers/STM32F0xx_HAL_Driver/Src/stm32f0xx_hal_pcd.c ****      
 3418              		.loc 1 945 3 view .LVU803
 3419              	.LBE38:
 947:Drivers/STM32F0xx_HAL_Driver/Src/stm32f0xx_hal_pcd.c **** }
 3420              		.loc 1 947 3 is_stmt 1 view .LVU804
 948:Drivers/STM32F0xx_HAL_Driver/Src/stm32f0xx_hal_pcd.c **** 
 3421              		.loc 1 948 1 is_stmt 0 view .LVU805
 3422 0148 0020     		movs	r0, #0
 3423              		@ sp needed
 3424 014a F8BD     		pop	{r3, r4, r5, r6, r7, pc}
 3425              	.LVL278:
 3426              	.L171:
 931:Drivers/STM32F0xx_HAL_Driver/Src/stm32f0xx_hal_pcd.c ****       pmabuffer = ep->pmaaddr1;
 3427              		.loc 1 931 7 is_stmt 1 discriminator 11 view .LVU806
 3428 014c 4F33     		adds	r3, r3, #79
 3429 014e D35A     		ldrh	r3, [r2, r3]
 3430 0150 C000     		lsls	r0, r0, #3
 3431 0152 1818     		adds	r0, r3, r0
 3432 0154 8218     		adds	r2, r0, r2
 3433 0156 274B     		ldr	r3, .L173
 3434 0158 9C46     		mov	ip, r3
 3435 015a 6244     		add	r2, r2, ip
 3436 015c 1780     		strh	r7, [r2]
 3437 015e C3E7     		b	.L161
 3438              	.L157:
 937:Drivers/STM32F0xx_HAL_Driver/Src/stm32f0xx_hal_pcd.c ****       pmabuffer = ep->pmaaddr0;
 3439              		.loc 1 937 7 view .LVU807
 3440 0160 E300     		lsls	r3, r4, #3
 3441 0162 1B1B     		subs	r3, r3, r4
 3442 0164 9B00     		lsls	r3, r3, #2
 3443 0166 EB18     		adds	r3, r5, r3
 3444 0168 2933     		adds	r3, r3, #41
 3445 016a 1B78     		ldrb	r3, [r3]
 3446 016c 002B     		cmp	r3, #0
 3447 016e 1ED1     		bne	.L164
 3448              	.LBB39:
ARM GAS  /tmp/ccHm7VQo.s 			page 88


 937:Drivers/STM32F0xx_HAL_Driver/Src/stm32f0xx_hal_pcd.c ****       pmabuffer = ep->pmaaddr0;
 3449              		.loc 1 937 7 discriminator 1 view .LVU808
 3450 0170 5033     		adds	r3, r3, #80
 3451 0172 D35A     		ldrh	r3, [r2, r3]
 3452 0174 C000     		lsls	r0, r0, #3
 3453 0176 1818     		adds	r0, r3, r0
 3454 0178 8218     		adds	r2, r0, r2
 3455 017a 204B     		ldr	r3, .L173+8
 3456 017c 9C46     		mov	ip, r3
 3457 017e 6244     		add	r2, r2, ip
 3458              	.LVL279:
 3459              	.LBB40:
 937:Drivers/STM32F0xx_HAL_Driver/Src/stm32f0xx_hal_pcd.c ****       pmabuffer = ep->pmaaddr0;
 3460              		.loc 1 937 7 discriminator 1 view .LVU809
 937:Drivers/STM32F0xx_HAL_Driver/Src/stm32f0xx_hal_pcd.c ****       pmabuffer = ep->pmaaddr0;
 3461              		.loc 1 937 7 discriminator 1 view .LVU810
 3462 0180 3E2F     		cmp	r7, #62
 3463 0182 0BD9     		bls	.L165
 937:Drivers/STM32F0xx_HAL_Driver/Src/stm32f0xx_hal_pcd.c ****       pmabuffer = ep->pmaaddr0;
 3464              		.loc 1 937 7 discriminator 3 view .LVU811
 3465 0184 7B09     		lsrs	r3, r7, #5
 3466 0186 9BB2     		uxth	r3, r3
 3467              	.LVL280:
 937:Drivers/STM32F0xx_HAL_Driver/Src/stm32f0xx_hal_pcd.c ****       pmabuffer = ep->pmaaddr0;
 3468              		.loc 1 937 7 discriminator 3 view .LVU812
 3469 0188 F906     		lsls	r1, r7, #27
 3470 018a 01D1     		bne	.L166
 937:Drivers/STM32F0xx_HAL_Driver/Src/stm32f0xx_hal_pcd.c ****       pmabuffer = ep->pmaaddr0;
 3471              		.loc 1 937 7 discriminator 5 view .LVU813
 3472 018c 013B     		subs	r3, r3, #1
 3473              	.LVL281:
 937:Drivers/STM32F0xx_HAL_Driver/Src/stm32f0xx_hal_pcd.c ****       pmabuffer = ep->pmaaddr0;
 3474              		.loc 1 937 7 is_stmt 0 discriminator 5 view .LVU814
 3475 018e 9BB2     		uxth	r3, r3
 3476              	.LVL282:
 3477              	.L166:
 937:Drivers/STM32F0xx_HAL_Driver/Src/stm32f0xx_hal_pcd.c ****       pmabuffer = ep->pmaaddr0;
 3478              		.loc 1 937 7 is_stmt 1 discriminator 7 view .LVU815
 3479 0190 9B02     		lsls	r3, r3, #10
 3480              	.LVL283:
 937:Drivers/STM32F0xx_HAL_Driver/Src/stm32f0xx_hal_pcd.c ****       pmabuffer = ep->pmaaddr0;
 3481              		.loc 1 937 7 is_stmt 0 discriminator 7 view .LVU816
 3482 0192 9BB2     		uxth	r3, r3
 3483 0194 1848     		ldr	r0, .L173+4
 3484 0196 0343     		orrs	r3, r0
 3485 0198 1380     		strh	r3, [r2]
 3486 019a 0AE0     		b	.L167
 3487              	.L165:
 937:Drivers/STM32F0xx_HAL_Driver/Src/stm32f0xx_hal_pcd.c ****       pmabuffer = ep->pmaaddr0;
 3488              		.loc 1 937 7 is_stmt 1 discriminator 4 view .LVU817
 3489 019c 7B08     		lsrs	r3, r7, #1
 3490 019e 9BB2     		uxth	r3, r3
 3491              	.LVL284:
 937:Drivers/STM32F0xx_HAL_Driver/Src/stm32f0xx_hal_pcd.c ****       pmabuffer = ep->pmaaddr0;
 3492              		.loc 1 937 7 discriminator 4 view .LVU818
 3493 01a0 F907     		lsls	r1, r7, #31
 3494 01a2 01D5     		bpl	.L168
ARM GAS  /tmp/ccHm7VQo.s 			page 89


 937:Drivers/STM32F0xx_HAL_Driver/Src/stm32f0xx_hal_pcd.c ****       pmabuffer = ep->pmaaddr0;
 3495              		.loc 1 937 7 discriminator 8 view .LVU819
 3496 01a4 0133     		adds	r3, r3, #1
 3497              	.LVL285:
 937:Drivers/STM32F0xx_HAL_Driver/Src/stm32f0xx_hal_pcd.c ****       pmabuffer = ep->pmaaddr0;
 3498              		.loc 1 937 7 is_stmt 0 discriminator 8 view .LVU820
 3499 01a6 9BB2     		uxth	r3, r3
 3500              	.LVL286:
 3501              	.L168:
 937:Drivers/STM32F0xx_HAL_Driver/Src/stm32f0xx_hal_pcd.c ****       pmabuffer = ep->pmaaddr0;
 3502              		.loc 1 937 7 is_stmt 1 discriminator 10 view .LVU821
 3503 01a8 9B02     		lsls	r3, r3, #10
 3504              	.LVL287:
 937:Drivers/STM32F0xx_HAL_Driver/Src/stm32f0xx_hal_pcd.c ****       pmabuffer = ep->pmaaddr0;
 3505              		.loc 1 937 7 is_stmt 0 discriminator 10 view .LVU822
 3506 01aa 1380     		strh	r3, [r2]
 3507 01ac 01E0     		b	.L167
 3508              	.LVL288:
 3509              	.L164:
 937:Drivers/STM32F0xx_HAL_Driver/Src/stm32f0xx_hal_pcd.c ****       pmabuffer = ep->pmaaddr0;
 3510              		.loc 1 937 7 discriminator 10 view .LVU823
 3511              	.LBE40:
 3512              	.LBE39:
 937:Drivers/STM32F0xx_HAL_Driver/Src/stm32f0xx_hal_pcd.c ****       pmabuffer = ep->pmaaddr0;
 3513              		.loc 1 937 7 is_stmt 1 discriminator 2 view .LVU824
 3514 01ae 012B     		cmp	r3, #1
 3515 01b0 05D0     		beq	.L172
 3516              	.L167:
 938:Drivers/STM32F0xx_HAL_Driver/Src/stm32f0xx_hal_pcd.c ****     }
 3517              		.loc 1 938 7 view .LVU825
 938:Drivers/STM32F0xx_HAL_Driver/Src/stm32f0xx_hal_pcd.c ****     }
 3518              		.loc 1 938 17 is_stmt 0 view .LVU826
 3519 01b2 E300     		lsls	r3, r4, #3
 3520 01b4 1B1B     		subs	r3, r3, r4
 3521 01b6 9B00     		lsls	r3, r3, #2
 3522 01b8 EB18     		adds	r3, r5, r3
 3523 01ba DA8D     		ldrh	r2, [r3, #46]
 3524              	.LVL289:
 938:Drivers/STM32F0xx_HAL_Driver/Src/stm32f0xx_hal_pcd.c ****     }
 3525              		.loc 1 938 17 view .LVU827
 3526 01bc 99E7     		b	.L163
 3527              	.LVL290:
 3528              	.L172:
 937:Drivers/STM32F0xx_HAL_Driver/Src/stm32f0xx_hal_pcd.c ****       pmabuffer = ep->pmaaddr0;
 3529              		.loc 1 937 7 is_stmt 1 discriminator 11 view .LVU828
 3530 01be 4F33     		adds	r3, r3, #79
 3531 01c0 D35A     		ldrh	r3, [r2, r3]
 3532 01c2 C000     		lsls	r0, r0, #3
 3533 01c4 1818     		adds	r0, r3, r0
 3534 01c6 8218     		adds	r2, r0, r2
 3535 01c8 0C4B     		ldr	r3, .L173+8
 3536 01ca 9C46     		mov	ip, r3
 3537 01cc 6244     		add	r2, r2, ip
 3538 01ce 1780     		strh	r7, [r2]
 3539 01d0 EFE7     		b	.L167
 3540              	.LVL291:
 3541              	.L169:
ARM GAS  /tmp/ccHm7VQo.s 			page 90


 942:Drivers/STM32F0xx_HAL_Driver/Src/stm32f0xx_hal_pcd.c ****   }
 3542              		.loc 1 942 5 discriminator 2 view .LVU829
 3543 01d2 012B     		cmp	r3, #1
 3544 01d4 A8D1     		bne	.L156
 942:Drivers/STM32F0xx_HAL_Driver/Src/stm32f0xx_hal_pcd.c ****   }
 3545              		.loc 1 942 5 discriminator 3 view .LVU830
 3546 01d6 2A68     		ldr	r2, [r5]
 3547 01d8 E300     		lsls	r3, r4, #3
 3548 01da 1B1B     		subs	r3, r3, r4
 3549 01dc 9B00     		lsls	r3, r3, #2
 3550 01de EB18     		adds	r3, r5, r3
 3551 01e0 2833     		adds	r3, r3, #40
 3552 01e2 1B78     		ldrb	r3, [r3]
 3553 01e4 9B00     		lsls	r3, r3, #2
 3554 01e6 D15A     		ldrh	r1, [r2, r3]
 3555 01e8 0548     		ldr	r0, .L173+12
 3556 01ea 0840     		ands	r0, r1
 3557 01ec 0849     		ldr	r1, .L173+28
 3558 01ee 0143     		orrs	r1, r0
 3559 01f0 D152     		strh	r1, [r2, r3]
 3560 01f2 99E7     		b	.L156
 3561              	.L174:
 3562              		.align	2
 3563              	.L173:
 3564 01f4 06040000 		.word	1030
 3565 01f8 0080FFFF 		.word	-32768
 3566 01fc 02040000 		.word	1026
 3567 0200 0F0F0000 		.word	3855
 3568 0204 C080FFFF 		.word	-32576
 3569 0208 BF8FFFFF 		.word	-28737
 3570 020c 8080FFFF 		.word	-32640
 3571 0210 80C0FFFF 		.word	-16256
 3572              		.cfi_endproc
 3573              	.LFE62:
 3575              		.section	.text.PCD_ReadPMA,"ax",%progbits
 3576              		.align	1
 3577              		.global	PCD_ReadPMA
 3578              		.syntax unified
 3579              		.code	16
 3580              		.thumb_func
 3581              		.fpu softvfp
 3583              	PCD_ReadPMA:
 3584              	.LVL292:
 3585              	.LFB70:
1152:Drivers/STM32F0xx_HAL_Driver/Src/stm32f0xx_hal_pcd.c **** 
1153:Drivers/STM32F0xx_HAL_Driver/Src/stm32f0xx_hal_pcd.c **** /**
1154:Drivers/STM32F0xx_HAL_Driver/Src/stm32f0xx_hal_pcd.c ****   * @brief Copy a buffer from user memory area to packet memory area (PMA)
1155:Drivers/STM32F0xx_HAL_Driver/Src/stm32f0xx_hal_pcd.c ****   * @param   USBx USB peripheral instance register address.
1156:Drivers/STM32F0xx_HAL_Driver/Src/stm32f0xx_hal_pcd.c ****   * @param   pbUsrBuf    = pointer to user memory area.
1157:Drivers/STM32F0xx_HAL_Driver/Src/stm32f0xx_hal_pcd.c ****   * @param   wPMABufAddr address into PMA.
1158:Drivers/STM32F0xx_HAL_Driver/Src/stm32f0xx_hal_pcd.c ****   * @param   wNBytes no. of bytes to be copied.
1159:Drivers/STM32F0xx_HAL_Driver/Src/stm32f0xx_hal_pcd.c ****   * @retval None
1160:Drivers/STM32F0xx_HAL_Driver/Src/stm32f0xx_hal_pcd.c ****   */
1161:Drivers/STM32F0xx_HAL_Driver/Src/stm32f0xx_hal_pcd.c **** void PCD_ReadPMA(USB_TypeDef  *USBx, uint8_t *pbUsrBuf, uint16_t wPMABufAddr, uint16_t wNBytes)
1162:Drivers/STM32F0xx_HAL_Driver/Src/stm32f0xx_hal_pcd.c **** {
 3586              		.loc 1 1162 1 view -0
 3587              		.cfi_startproc
ARM GAS  /tmp/ccHm7VQo.s 			page 91


 3588              		@ args = 0, pretend = 0, frame = 0
 3589              		@ frame_needed = 0, uses_anonymous_args = 0
 3590              		.loc 1 1162 1 is_stmt 0 view .LVU832
 3591 0000 10B5     		push	{r4, lr}
 3592              	.LCFI12:
 3593              		.cfi_def_cfa_offset 8
 3594              		.cfi_offset 4, -8
 3595              		.cfi_offset 14, -4
1163:Drivers/STM32F0xx_HAL_Driver/Src/stm32f0xx_hal_pcd.c ****   uint32_t n = (uint32_t)wNBytes >> 1U;
 3596              		.loc 1 1163 3 is_stmt 1 view .LVU833
 3597              		.loc 1 1163 34 is_stmt 0 view .LVU834
 3598 0002 5C08     		lsrs	r4, r3, #1
 3599              	.LVL293:
1164:Drivers/STM32F0xx_HAL_Driver/Src/stm32f0xx_hal_pcd.c ****   uint32_t i;
 3600              		.loc 1 1164 3 is_stmt 1 view .LVU835
1165:Drivers/STM32F0xx_HAL_Driver/Src/stm32f0xx_hal_pcd.c ****   uint16_t *pdwVal;
 3601              		.loc 1 1165 3 view .LVU836
1166:Drivers/STM32F0xx_HAL_Driver/Src/stm32f0xx_hal_pcd.c ****   uint32_t temp;
 3602              		.loc 1 1166 3 view .LVU837
1167:Drivers/STM32F0xx_HAL_Driver/Src/stm32f0xx_hal_pcd.c ****   pdwVal = (uint16_t *)((uint32_t)(wPMABufAddr + (uint32_t)USBx + 0x400U));
 3603              		.loc 1 1167 3 view .LVU838
 3604              		.loc 1 1167 48 is_stmt 0 view .LVU839
 3605 0004 1018     		adds	r0, r2, r0
 3606              	.LVL294:
 3607              		.loc 1 1167 25 view .LVU840
 3608 0006 8022     		movs	r2, #128
 3609              	.LVL295:
 3610              		.loc 1 1167 25 view .LVU841
 3611 0008 D200     		lsls	r2, r2, #3
 3612 000a 9446     		mov	ip, r2
 3613 000c 6044     		add	r0, r0, ip
 3614              	.LVL296:
1168:Drivers/STM32F0xx_HAL_Driver/Src/stm32f0xx_hal_pcd.c ****   
1169:Drivers/STM32F0xx_HAL_Driver/Src/stm32f0xx_hal_pcd.c ****   for (i = n; i != 0U; i--)
 3615              		.loc 1 1169 3 is_stmt 1 view .LVU842
 3616              	.L176:
 3617              		.loc 1 1169 3 is_stmt 0 discriminator 1 view .LVU843
 3618 000e 002C     		cmp	r4, #0
 3619 0010 07D0     		beq	.L179
1170:Drivers/STM32F0xx_HAL_Driver/Src/stm32f0xx_hal_pcd.c ****   {
1171:Drivers/STM32F0xx_HAL_Driver/Src/stm32f0xx_hal_pcd.c ****     temp = *pdwVal++;
 3620              		.loc 1 1171 5 is_stmt 1 discriminator 3 view .LVU844
 3621              	.LVL297:
 3622              		.loc 1 1171 12 is_stmt 0 discriminator 3 view .LVU845
 3623 0012 0288     		ldrh	r2, [r0]
 3624              	.LVL298:
1172:Drivers/STM32F0xx_HAL_Driver/Src/stm32f0xx_hal_pcd.c ****     *pbUsrBuf++ = ((temp >> 0) & 0xFF);
 3625              		.loc 1 1172 5 is_stmt 1 discriminator 3 view .LVU846
 3626              		.loc 1 1172 17 is_stmt 0 discriminator 3 view .LVU847
 3627 0014 0A70     		strb	r2, [r1]
1173:Drivers/STM32F0xx_HAL_Driver/Src/stm32f0xx_hal_pcd.c ****     *pbUsrBuf++ = ((temp >> 8) & 0xFF);
 3628              		.loc 1 1173 5 is_stmt 1 discriminator 3 view .LVU848
 3629              		.loc 1 1173 26 is_stmt 0 discriminator 3 view .LVU849
 3630 0016 120A     		lsrs	r2, r2, #8
 3631              	.LVL299:
 3632              		.loc 1 1173 17 discriminator 3 view .LVU850
 3633 0018 4A70     		strb	r2, [r1, #1]
ARM GAS  /tmp/ccHm7VQo.s 			page 92


1169:Drivers/STM32F0xx_HAL_Driver/Src/stm32f0xx_hal_pcd.c ****   {
 3634              		.loc 1 1169 25 discriminator 3 view .LVU851
 3635 001a 013C     		subs	r4, r4, #1
 3636              	.LVL300:
1171:Drivers/STM32F0xx_HAL_Driver/Src/stm32f0xx_hal_pcd.c ****     *pbUsrBuf++ = ((temp >> 0) & 0xFF);
 3637              		.loc 1 1171 19 discriminator 3 view .LVU852
 3638 001c 0230     		adds	r0, r0, #2
 3639              	.LVL301:
 3640              		.loc 1 1173 14 discriminator 3 view .LVU853
 3641 001e 0231     		adds	r1, r1, #2
 3642              	.LVL302:
 3643              		.loc 1 1173 14 discriminator 3 view .LVU854
 3644 0020 F5E7     		b	.L176
 3645              	.L179:
1174:Drivers/STM32F0xx_HAL_Driver/Src/stm32f0xx_hal_pcd.c ****   }
1175:Drivers/STM32F0xx_HAL_Driver/Src/stm32f0xx_hal_pcd.c ****   
1176:Drivers/STM32F0xx_HAL_Driver/Src/stm32f0xx_hal_pcd.c ****   if (wNBytes % 2)
 3646              		.loc 1 1176 3 is_stmt 1 view .LVU855
 3647              		.loc 1 1176 6 is_stmt 0 view .LVU856
 3648 0022 DB07     		lsls	r3, r3, #31
 3649 0024 01D5     		bpl	.L175
 3650              	.LVL303:
1177:Drivers/STM32F0xx_HAL_Driver/Src/stm32f0xx_hal_pcd.c ****   {
1178:Drivers/STM32F0xx_HAL_Driver/Src/stm32f0xx_hal_pcd.c ****     temp = *pdwVal++;
 3651              		.loc 1 1178 5 is_stmt 1 view .LVU857
 3652              		.loc 1 1178 12 is_stmt 0 view .LVU858
 3653 0026 0388     		ldrh	r3, [r0]
 3654              	.LVL304:
1179:Drivers/STM32F0xx_HAL_Driver/Src/stm32f0xx_hal_pcd.c ****     *pbUsrBuf++ = ((temp >> 0) & 0xFF);
 3655              		.loc 1 1179 5 is_stmt 1 view .LVU859
 3656              		.loc 1 1179 17 is_stmt 0 view .LVU860
 3657 0028 0B70     		strb	r3, [r1]
 3658              	.LVL305:
 3659              	.L175:
1180:Drivers/STM32F0xx_HAL_Driver/Src/stm32f0xx_hal_pcd.c ****   }
1181:Drivers/STM32F0xx_HAL_Driver/Src/stm32f0xx_hal_pcd.c **** }
 3660              		.loc 1 1181 1 view .LVU861
 3661              		@ sp needed
 3662              	.LVL306:
 3663              		.loc 1 1181 1 view .LVU862
 3664 002a 10BD     		pop	{r4, pc}
 3665              		.cfi_endproc
 3666              	.LFE70:
 3668              		.section	.text.PCD_EP_ISR_Handler,"ax",%progbits
 3669              		.align	1
 3670              		.syntax unified
 3671              		.code	16
 3672              		.thumb_func
 3673              		.fpu softvfp
 3675              	PCD_EP_ISR_Handler:
 3676              	.LVL307:
 3677              	.LFB71:
1182:Drivers/STM32F0xx_HAL_Driver/Src/stm32f0xx_hal_pcd.c **** 
1183:Drivers/STM32F0xx_HAL_Driver/Src/stm32f0xx_hal_pcd.c **** /**
1184:Drivers/STM32F0xx_HAL_Driver/Src/stm32f0xx_hal_pcd.c ****   * @brief  This function handles PCD Endpoint interrupt request.
1185:Drivers/STM32F0xx_HAL_Driver/Src/stm32f0xx_hal_pcd.c ****   * @param  hpcd PCD handle
1186:Drivers/STM32F0xx_HAL_Driver/Src/stm32f0xx_hal_pcd.c ****   * @retval HAL status
ARM GAS  /tmp/ccHm7VQo.s 			page 93


1187:Drivers/STM32F0xx_HAL_Driver/Src/stm32f0xx_hal_pcd.c ****   */
1188:Drivers/STM32F0xx_HAL_Driver/Src/stm32f0xx_hal_pcd.c **** static HAL_StatusTypeDef PCD_EP_ISR_Handler(PCD_HandleTypeDef *hpcd)
1189:Drivers/STM32F0xx_HAL_Driver/Src/stm32f0xx_hal_pcd.c **** {
 3678              		.loc 1 1189 1 is_stmt 1 view -0
 3679              		.cfi_startproc
 3680              		@ args = 0, pretend = 0, frame = 8
 3681              		@ frame_needed = 0, uses_anonymous_args = 0
 3682              		.loc 1 1189 1 is_stmt 0 view .LVU864
 3683 0000 F0B5     		push	{r4, r5, r6, r7, lr}
 3684              	.LCFI13:
 3685              		.cfi_def_cfa_offset 20
 3686              		.cfi_offset 4, -20
 3687              		.cfi_offset 5, -16
 3688              		.cfi_offset 6, -12
 3689              		.cfi_offset 7, -8
 3690              		.cfi_offset 14, -4
 3691 0002 83B0     		sub	sp, sp, #12
 3692              	.LCFI14:
 3693              		.cfi_def_cfa_offset 32
 3694 0004 0400     		movs	r4, r0
1190:Drivers/STM32F0xx_HAL_Driver/Src/stm32f0xx_hal_pcd.c ****   PCD_EPTypeDef *ep;
 3695              		.loc 1 1190 3 is_stmt 1 view .LVU865
1191:Drivers/STM32F0xx_HAL_Driver/Src/stm32f0xx_hal_pcd.c ****   uint16_t count=0U;
 3696              		.loc 1 1191 3 view .LVU866
 3697              	.LVL308:
1192:Drivers/STM32F0xx_HAL_Driver/Src/stm32f0xx_hal_pcd.c ****   uint8_t EPindex;
 3698              		.loc 1 1192 3 view .LVU867
1193:Drivers/STM32F0xx_HAL_Driver/Src/stm32f0xx_hal_pcd.c ****   __IO uint16_t wIstr;  
 3699              		.loc 1 1193 3 view .LVU868
1194:Drivers/STM32F0xx_HAL_Driver/Src/stm32f0xx_hal_pcd.c ****   __IO uint16_t wEPVal = 0U;
 3700              		.loc 1 1194 3 view .LVU869
 3701              		.loc 1 1194 17 is_stmt 0 view .LVU870
 3702 0006 01AB     		add	r3, sp, #4
 3703 0008 0022     		movs	r2, #0
 3704 000a 1A80     		strh	r2, [r3]
1195:Drivers/STM32F0xx_HAL_Driver/Src/stm32f0xx_hal_pcd.c ****   
1196:Drivers/STM32F0xx_HAL_Driver/Src/stm32f0xx_hal_pcd.c ****   /* stay in loop while pending interrupts */
1197:Drivers/STM32F0xx_HAL_Driver/Src/stm32f0xx_hal_pcd.c ****   while (((wIstr = hpcd->Instance->ISTR) & USB_ISTR_CTR) != 0U)
 3705              		.loc 1 1197 3 is_stmt 1 view .LVU871
 3706              		.loc 1 1197 9 is_stmt 0 view .LVU872
 3707 000c B4E1     		b	.L181
 3708              	.LVL309:
 3709              	.L208:
1198:Drivers/STM32F0xx_HAL_Driver/Src/stm32f0xx_hal_pcd.c ****   {
1199:Drivers/STM32F0xx_HAL_Driver/Src/stm32f0xx_hal_pcd.c ****     /* extract highest priority endpoint number */
1200:Drivers/STM32F0xx_HAL_Driver/Src/stm32f0xx_hal_pcd.c ****     EPindex = (uint8_t)(wIstr & USB_ISTR_EP_ID);
1201:Drivers/STM32F0xx_HAL_Driver/Src/stm32f0xx_hal_pcd.c ****     
1202:Drivers/STM32F0xx_HAL_Driver/Src/stm32f0xx_hal_pcd.c ****     if (EPindex == 0U)
1203:Drivers/STM32F0xx_HAL_Driver/Src/stm32f0xx_hal_pcd.c ****     {
1204:Drivers/STM32F0xx_HAL_Driver/Src/stm32f0xx_hal_pcd.c ****       /* Decode and service control endpoint interrupt */
1205:Drivers/STM32F0xx_HAL_Driver/Src/stm32f0xx_hal_pcd.c ****       
1206:Drivers/STM32F0xx_HAL_Driver/Src/stm32f0xx_hal_pcd.c ****       /* DIR bit = origin of the interrupt */   
1207:Drivers/STM32F0xx_HAL_Driver/Src/stm32f0xx_hal_pcd.c ****       if ((wIstr & USB_ISTR_DIR) == 0U)
1208:Drivers/STM32F0xx_HAL_Driver/Src/stm32f0xx_hal_pcd.c ****       {
1209:Drivers/STM32F0xx_HAL_Driver/Src/stm32f0xx_hal_pcd.c ****         /* DIR = 0 */
1210:Drivers/STM32F0xx_HAL_Driver/Src/stm32f0xx_hal_pcd.c ****         
1211:Drivers/STM32F0xx_HAL_Driver/Src/stm32f0xx_hal_pcd.c ****         /* DIR = 0      => IN  int */
ARM GAS  /tmp/ccHm7VQo.s 			page 94


1212:Drivers/STM32F0xx_HAL_Driver/Src/stm32f0xx_hal_pcd.c ****         /* DIR = 0 implies that (EP_CTR_TX = 1) always  */
1213:Drivers/STM32F0xx_HAL_Driver/Src/stm32f0xx_hal_pcd.c ****         PCD_CLEAR_TX_EP_CTR(hpcd->Instance, PCD_ENDP0);
 3710              		.loc 1 1213 9 is_stmt 1 view .LVU873
 3711 000e 0388     		ldrh	r3, [r0]
 3712 0010 AA4A     		ldr	r2, .L211
 3713 0012 1340     		ands	r3, r2
 3714 0014 0380     		strh	r3, [r0]
1214:Drivers/STM32F0xx_HAL_Driver/Src/stm32f0xx_hal_pcd.c ****         ep = &hpcd->IN_ep[0];
 3715              		.loc 1 1214 9 view .LVU874
 3716              	.LVL310:
1215:Drivers/STM32F0xx_HAL_Driver/Src/stm32f0xx_hal_pcd.c ****         
1216:Drivers/STM32F0xx_HAL_Driver/Src/stm32f0xx_hal_pcd.c ****         ep->xfer_count = PCD_GET_EP_TX_CNT(hpcd->Instance, ep->num);
 3717              		.loc 1 1216 9 view .LVU875
 3718              		.loc 1 1216 26 is_stmt 0 view .LVU876
 3719 0016 2168     		ldr	r1, [r4]
 3720 0018 5023     		movs	r3, #80
 3721 001a CB5A     		ldrh	r3, [r1, r3]
 3722 001c 2822     		movs	r2, #40
 3723 001e A25C     		ldrb	r2, [r4, r2]
 3724 0020 D200     		lsls	r2, r2, #3
 3725 0022 9B18     		adds	r3, r3, r2
 3726 0024 5B18     		adds	r3, r3, r1
 3727 0026 A64A     		ldr	r2, .L211+4
 3728 0028 9446     		mov	ip, r2
 3729 002a 6344     		add	r3, r3, ip
 3730 002c 1B88     		ldrh	r3, [r3]
 3731 002e 9B05     		lsls	r3, r3, #22
 3732 0030 9B0D     		lsrs	r3, r3, #22
 3733              		.loc 1 1216 24 view .LVU877
 3734 0032 2364     		str	r3, [r4, #64]
1217:Drivers/STM32F0xx_HAL_Driver/Src/stm32f0xx_hal_pcd.c ****         ep->xfer_buff += ep->xfer_count;
 3735              		.loc 1 1217 9 is_stmt 1 view .LVU878
 3736              		.loc 1 1217 23 is_stmt 0 view .LVU879
 3737 0034 A26B     		ldr	r2, [r4, #56]
 3738 0036 9446     		mov	ip, r2
 3739 0038 6344     		add	r3, r3, ip
 3740 003a A363     		str	r3, [r4, #56]
1218:Drivers/STM32F0xx_HAL_Driver/Src/stm32f0xx_hal_pcd.c ****  
1219:Drivers/STM32F0xx_HAL_Driver/Src/stm32f0xx_hal_pcd.c ****         /* TX COMPLETE */
1220:Drivers/STM32F0xx_HAL_Driver/Src/stm32f0xx_hal_pcd.c ****         HAL_PCD_DataInStageCallback(hpcd, 0U);
 3741              		.loc 1 1220 9 is_stmt 1 view .LVU880
 3742 003c 0021     		movs	r1, #0
 3743 003e 2000     		movs	r0, r4
 3744 0040 FFF7FEFF 		bl	HAL_PCD_DataInStageCallback
 3745              	.LVL311:
1221:Drivers/STM32F0xx_HAL_Driver/Src/stm32f0xx_hal_pcd.c ****         
1222:Drivers/STM32F0xx_HAL_Driver/Src/stm32f0xx_hal_pcd.c ****         
1223:Drivers/STM32F0xx_HAL_Driver/Src/stm32f0xx_hal_pcd.c ****         if((hpcd->USB_Address > 0U)&& ( ep->xfer_len == 0U))
 3746              		.loc 1 1223 9 view .LVU881
 3747              		.loc 1 1223 17 is_stmt 0 view .LVU882
 3748 0044 2423     		movs	r3, #36
 3749 0046 E35C     		ldrb	r3, [r4, r3]
 3750              		.loc 1 1223 11 view .LVU883
 3751 0048 002B     		cmp	r3, #0
 3752 004a 00D1     		bne	.LCB3852
 3753 004c 94E1     		b	.L181	@long jump
 3754              	.LCB3852:
ARM GAS  /tmp/ccHm7VQo.s 			page 95


 3755              		.loc 1 1223 36 discriminator 1 view .LVU884
 3756 004e E36B     		ldr	r3, [r4, #60]
 3757 0050 002B     		cmp	r3, #0
 3758 0052 00D0     		beq	.LCB3856
 3759 0054 90E1     		b	.L181	@long jump
 3760              	.LCB3856:
1224:Drivers/STM32F0xx_HAL_Driver/Src/stm32f0xx_hal_pcd.c ****         {
1225:Drivers/STM32F0xx_HAL_Driver/Src/stm32f0xx_hal_pcd.c ****           hpcd->Instance->DADDR = (hpcd->USB_Address | USB_DADDR_EF);
 3761              		.loc 1 1225 11 is_stmt 1 view .LVU885
 3762              		.loc 1 1225 40 is_stmt 0 view .LVU886
 3763 0056 2422     		movs	r2, #36
 3764 0058 A35C     		ldrb	r3, [r4, r2]
 3765              		.loc 1 1225 33 view .LVU887
 3766 005a 8021     		movs	r1, #128
 3767 005c 4942     		rsbs	r1, r1, #0
 3768 005e 0B43     		orrs	r3, r1
 3769 0060 DBB2     		uxtb	r3, r3
 3770 0062 CC31     		adds	r1, r1, #204
 3771 0064 2068     		ldr	r0, [r4]
 3772 0066 4352     		strh	r3, [r0, r1]
1226:Drivers/STM32F0xx_HAL_Driver/Src/stm32f0xx_hal_pcd.c ****           hpcd->USB_Address = 0U;
 3773              		.loc 1 1226 11 is_stmt 1 view .LVU888
 3774              		.loc 1 1226 29 is_stmt 0 view .LVU889
 3775 0068 0023     		movs	r3, #0
 3776 006a A354     		strb	r3, [r4, r2]
 3777 006c 84E1     		b	.L181
 3778              	.LVL312:
 3779              	.L209:
1227:Drivers/STM32F0xx_HAL_Driver/Src/stm32f0xx_hal_pcd.c ****         }
1228:Drivers/STM32F0xx_HAL_Driver/Src/stm32f0xx_hal_pcd.c ****         
1229:Drivers/STM32F0xx_HAL_Driver/Src/stm32f0xx_hal_pcd.c ****       }
1230:Drivers/STM32F0xx_HAL_Driver/Src/stm32f0xx_hal_pcd.c ****       else
1231:Drivers/STM32F0xx_HAL_Driver/Src/stm32f0xx_hal_pcd.c ****       {
1232:Drivers/STM32F0xx_HAL_Driver/Src/stm32f0xx_hal_pcd.c ****         /* DIR = 1 */
1233:Drivers/STM32F0xx_HAL_Driver/Src/stm32f0xx_hal_pcd.c ****         
1234:Drivers/STM32F0xx_HAL_Driver/Src/stm32f0xx_hal_pcd.c ****         /* DIR = 1 & CTR_RX       => SETUP or OUT int */
1235:Drivers/STM32F0xx_HAL_Driver/Src/stm32f0xx_hal_pcd.c ****         /* DIR = 1 & (CTR_TX | CTR_RX) => 2 int pending */
1236:Drivers/STM32F0xx_HAL_Driver/Src/stm32f0xx_hal_pcd.c ****         ep = &hpcd->OUT_ep[0];
1237:Drivers/STM32F0xx_HAL_Driver/Src/stm32f0xx_hal_pcd.c ****         wEPVal = PCD_GET_ENDPOINT(hpcd->Instance, PCD_ENDP0);
1238:Drivers/STM32F0xx_HAL_Driver/Src/stm32f0xx_hal_pcd.c ****         
1239:Drivers/STM32F0xx_HAL_Driver/Src/stm32f0xx_hal_pcd.c ****         if ((wEPVal & USB_EP_SETUP) != 0U)
1240:Drivers/STM32F0xx_HAL_Driver/Src/stm32f0xx_hal_pcd.c ****         {
1241:Drivers/STM32F0xx_HAL_Driver/Src/stm32f0xx_hal_pcd.c ****           /* Get SETUP Packet*/
1242:Drivers/STM32F0xx_HAL_Driver/Src/stm32f0xx_hal_pcd.c ****           ep->xfer_count = PCD_GET_EP_RX_CNT(hpcd->Instance, ep->num);
 3780              		.loc 1 1242 11 is_stmt 1 view .LVU890
 3781              		.loc 1 1242 28 is_stmt 0 view .LVU891
 3782 006e 5023     		movs	r3, #80
 3783 0070 C35A     		ldrh	r3, [r0, r3]
 3784 0072 8422     		movs	r2, #132
 3785 0074 5200     		lsls	r2, r2, #1
 3786 0076 A25C     		ldrb	r2, [r4, r2]
 3787 0078 D200     		lsls	r2, r2, #3
 3788 007a 9B18     		adds	r3, r3, r2
 3789 007c 1B18     		adds	r3, r3, r0
 3790 007e 914A     		ldr	r2, .L211+8
 3791 0080 9446     		mov	ip, r2
 3792 0082 6344     		add	r3, r3, ip
ARM GAS  /tmp/ccHm7VQo.s 			page 96


 3793 0084 1B88     		ldrh	r3, [r3]
 3794 0086 9B05     		lsls	r3, r3, #22
 3795 0088 9B0D     		lsrs	r3, r3, #22
 3796              		.loc 1 1242 26 view .LVU892
 3797 008a 2200     		movs	r2, r4
 3798 008c 0932     		adds	r2, r2, #9
 3799 008e FF32     		adds	r2, r2, #255
 3800 0090 9361     		str	r3, [r2, #24]
1243:Drivers/STM32F0xx_HAL_Driver/Src/stm32f0xx_hal_pcd.c ****           PCD_ReadPMA(hpcd->Instance, (uint8_t*)(void*)hpcd->Setup ,ep->pmaadress , ep->xfer_count)
 3801              		.loc 1 1243 11 is_stmt 1 view .LVU893
 3802              		.loc 1 1243 56 is_stmt 0 view .LVU894
 3803 0092 2100     		movs	r1, r4
 3804 0094 ED31     		adds	r1, r1, #237
 3805 0096 FF31     		adds	r1, r1, #255
 3806              		.loc 1 1243 11 view .LVU895
 3807 0098 9288     		ldrh	r2, [r2, #4]
 3808 009a FFF7FEFF 		bl	PCD_ReadPMA
 3809              	.LVL313:
1244:Drivers/STM32F0xx_HAL_Driver/Src/stm32f0xx_hal_pcd.c ****           /* SETUP bit kept frozen while CTR_RX = 1*/ 
1245:Drivers/STM32F0xx_HAL_Driver/Src/stm32f0xx_hal_pcd.c ****           PCD_CLEAR_RX_EP_CTR(hpcd->Instance, PCD_ENDP0); 
 3810              		.loc 1 1245 11 is_stmt 1 view .LVU896
 3811 009e 2268     		ldr	r2, [r4]
 3812 00a0 1388     		ldrh	r3, [r2]
 3813 00a2 8949     		ldr	r1, .L211+12
 3814 00a4 0B40     		ands	r3, r1
 3815 00a6 1380     		strh	r3, [r2]
1246:Drivers/STM32F0xx_HAL_Driver/Src/stm32f0xx_hal_pcd.c ****           
1247:Drivers/STM32F0xx_HAL_Driver/Src/stm32f0xx_hal_pcd.c ****           /* Process SETUP Packet*/
1248:Drivers/STM32F0xx_HAL_Driver/Src/stm32f0xx_hal_pcd.c ****           HAL_PCD_SetupStageCallback(hpcd);
 3816              		.loc 1 1248 11 view .LVU897
 3817 00a8 2000     		movs	r0, r4
 3818 00aa FFF7FEFF 		bl	HAL_PCD_SetupStageCallback
 3819              	.LVL314:
 3820 00ae 63E1     		b	.L181
 3821              	.L210:
1249:Drivers/STM32F0xx_HAL_Driver/Src/stm32f0xx_hal_pcd.c ****         }
1250:Drivers/STM32F0xx_HAL_Driver/Src/stm32f0xx_hal_pcd.c ****         
1251:Drivers/STM32F0xx_HAL_Driver/Src/stm32f0xx_hal_pcd.c ****         else if ((wEPVal & USB_EP_CTR_RX) != 0U)
1252:Drivers/STM32F0xx_HAL_Driver/Src/stm32f0xx_hal_pcd.c ****         {
1253:Drivers/STM32F0xx_HAL_Driver/Src/stm32f0xx_hal_pcd.c ****           PCD_CLEAR_RX_EP_CTR(hpcd->Instance, PCD_ENDP0);
1254:Drivers/STM32F0xx_HAL_Driver/Src/stm32f0xx_hal_pcd.c ****           /* Get Control Data OUT Packet*/
1255:Drivers/STM32F0xx_HAL_Driver/Src/stm32f0xx_hal_pcd.c ****           ep->xfer_count = PCD_GET_EP_RX_CNT(hpcd->Instance, ep->num);
1256:Drivers/STM32F0xx_HAL_Driver/Src/stm32f0xx_hal_pcd.c ****           
1257:Drivers/STM32F0xx_HAL_Driver/Src/stm32f0xx_hal_pcd.c ****           if (ep->xfer_count != 0U)
1258:Drivers/STM32F0xx_HAL_Driver/Src/stm32f0xx_hal_pcd.c ****           {
1259:Drivers/STM32F0xx_HAL_Driver/Src/stm32f0xx_hal_pcd.c ****             PCD_ReadPMA(hpcd->Instance, ep->xfer_buff, ep->pmaadress, ep->xfer_count);
 3822              		.loc 1 1259 13 view .LVU898
 3823 00b0 1500     		movs	r5, r2
 3824              	.LVL315:
 3825              		.loc 1 1259 13 is_stmt 0 view .LVU899
 3826 00b2 9288     		ldrh	r2, [r2, #4]
 3827 00b4 2969     		ldr	r1, [r5, #16]
 3828 00b6 FFF7FEFF 		bl	PCD_ReadPMA
 3829              	.LVL316:
1260:Drivers/STM32F0xx_HAL_Driver/Src/stm32f0xx_hal_pcd.c ****             ep->xfer_buff+=ep->xfer_count;
 3830              		.loc 1 1260 13 is_stmt 1 view .LVU900
 3831              		.loc 1 1260 26 is_stmt 0 view .LVU901
ARM GAS  /tmp/ccHm7VQo.s 			page 97


 3832 00ba 2B69     		ldr	r3, [r5, #16]
 3833 00bc AA69     		ldr	r2, [r5, #24]
 3834 00be 9446     		mov	ip, r2
 3835 00c0 6344     		add	r3, r3, ip
 3836 00c2 2B61     		str	r3, [r5, #16]
 3837 00c4 96E1     		b	.L186
 3838              	.LVL317:
 3839              	.L187:
 3840              	.LBB41:
 3841              	.LBB42:
1261:Drivers/STM32F0xx_HAL_Driver/Src/stm32f0xx_hal_pcd.c ****           }
1262:Drivers/STM32F0xx_HAL_Driver/Src/stm32f0xx_hal_pcd.c ****           
1263:Drivers/STM32F0xx_HAL_Driver/Src/stm32f0xx_hal_pcd.c ****           /* Process Control Data OUT Packet*/
1264:Drivers/STM32F0xx_HAL_Driver/Src/stm32f0xx_hal_pcd.c ****            HAL_PCD_DataOutStageCallback(hpcd, 0U);
1265:Drivers/STM32F0xx_HAL_Driver/Src/stm32f0xx_hal_pcd.c ****           
1266:Drivers/STM32F0xx_HAL_Driver/Src/stm32f0xx_hal_pcd.c ****           PCD_SET_EP_RX_CNT(hpcd->Instance, PCD_ENDP0, ep->maxpacket)
 3842              		.loc 1 1266 11 is_stmt 1 discriminator 2 view .LVU902
 3843 00c6 4B08     		lsrs	r3, r1, #1
 3844 00c8 9BB2     		uxth	r3, r3
 3845              	.LVL318:
 3846              		.loc 1 1266 11 discriminator 2 view .LVU903
 3847 00ca C907     		lsls	r1, r1, #31
 3848 00cc 01D5     		bpl	.L190
 3849              		.loc 1 1266 11 discriminator 6 view .LVU904
 3850 00ce 0133     		adds	r3, r3, #1
 3851              	.LVL319:
 3852              		.loc 1 1266 11 is_stmt 0 discriminator 6 view .LVU905
 3853 00d0 9BB2     		uxth	r3, r3
 3854              	.LVL320:
 3855              	.L190:
 3856              		.loc 1 1266 11 is_stmt 1 discriminator 8 view .LVU906
 3857 00d2 9B02     		lsls	r3, r3, #10
 3858              	.LVL321:
 3859              		.loc 1 1266 11 is_stmt 0 discriminator 8 view .LVU907
 3860 00d4 1380     		strh	r3, [r2]
 3861 00d6 AAE1     		b	.L189
 3862              	.LVL322:
 3863              	.L182:
 3864              		.loc 1 1266 11 discriminator 8 view .LVU908
 3865              	.LBE42:
 3866              	.LBE41:
1267:Drivers/STM32F0xx_HAL_Driver/Src/stm32f0xx_hal_pcd.c ****           PCD_SET_EP_RX_STATUS(hpcd->Instance, PCD_ENDP0, USB_EP_RX_VALID)
1268:Drivers/STM32F0xx_HAL_Driver/Src/stm32f0xx_hal_pcd.c ****         }
1269:Drivers/STM32F0xx_HAL_Driver/Src/stm32f0xx_hal_pcd.c ****       }
1270:Drivers/STM32F0xx_HAL_Driver/Src/stm32f0xx_hal_pcd.c ****     }
1271:Drivers/STM32F0xx_HAL_Driver/Src/stm32f0xx_hal_pcd.c ****     else
1272:Drivers/STM32F0xx_HAL_Driver/Src/stm32f0xx_hal_pcd.c ****     {
1273:Drivers/STM32F0xx_HAL_Driver/Src/stm32f0xx_hal_pcd.c ****       
1274:Drivers/STM32F0xx_HAL_Driver/Src/stm32f0xx_hal_pcd.c ****       /* Decode and service non control endpoints interrupt  */
1275:Drivers/STM32F0xx_HAL_Driver/Src/stm32f0xx_hal_pcd.c ****       
1276:Drivers/STM32F0xx_HAL_Driver/Src/stm32f0xx_hal_pcd.c ****       /* process related endpoint register */
1277:Drivers/STM32F0xx_HAL_Driver/Src/stm32f0xx_hal_pcd.c ****       wEPVal = PCD_GET_ENDPOINT(hpcd->Instance, EPindex);
 3867              		.loc 1 1277 7 is_stmt 1 view .LVU909
 3868              		.loc 1 1277 16 is_stmt 0 view .LVU910
 3869 00d8 AE00     		lsls	r6, r5, #2
 3870 00da 8119     		adds	r1, r0, r6
 3871 00dc 825B     		ldrh	r2, [r0, r6]
ARM GAS  /tmp/ccHm7VQo.s 			page 98


 3872              		.loc 1 1277 14 view .LVU911
 3873 00de 01AB     		add	r3, sp, #4
 3874 00e0 1A80     		strh	r2, [r3]
1278:Drivers/STM32F0xx_HAL_Driver/Src/stm32f0xx_hal_pcd.c ****       if ((wEPVal & USB_EP_CTR_RX) != 0U)
 3875              		.loc 1 1278 7 is_stmt 1 view .LVU912
 3876              		.loc 1 1278 36 is_stmt 0 view .LVU913
 3877 00e2 1B88     		ldrh	r3, [r3]
 3878 00e4 1BB2     		sxth	r3, r3
 3879              		.loc 1 1278 10 view .LVU914
 3880 00e6 002B     		cmp	r3, #0
 3881 00e8 2EDB     		blt	.L204
 3882              	.L191:
1279:Drivers/STM32F0xx_HAL_Driver/Src/stm32f0xx_hal_pcd.c ****       {  
1280:Drivers/STM32F0xx_HAL_Driver/Src/stm32f0xx_hal_pcd.c ****         /* clear int flag */
1281:Drivers/STM32F0xx_HAL_Driver/Src/stm32f0xx_hal_pcd.c ****         PCD_CLEAR_RX_EP_CTR(hpcd->Instance, EPindex);
1282:Drivers/STM32F0xx_HAL_Driver/Src/stm32f0xx_hal_pcd.c ****         ep = &hpcd->OUT_ep[EPindex];
1283:Drivers/STM32F0xx_HAL_Driver/Src/stm32f0xx_hal_pcd.c ****         
1284:Drivers/STM32F0xx_HAL_Driver/Src/stm32f0xx_hal_pcd.c ****         /* OUT double Buffering*/
1285:Drivers/STM32F0xx_HAL_Driver/Src/stm32f0xx_hal_pcd.c ****         if (ep->doublebuffer == 0U)
1286:Drivers/STM32F0xx_HAL_Driver/Src/stm32f0xx_hal_pcd.c ****         {
1287:Drivers/STM32F0xx_HAL_Driver/Src/stm32f0xx_hal_pcd.c ****           count = PCD_GET_EP_RX_CNT(hpcd->Instance, ep->num);
1288:Drivers/STM32F0xx_HAL_Driver/Src/stm32f0xx_hal_pcd.c ****           if (count != 0U)
1289:Drivers/STM32F0xx_HAL_Driver/Src/stm32f0xx_hal_pcd.c ****           {
1290:Drivers/STM32F0xx_HAL_Driver/Src/stm32f0xx_hal_pcd.c ****             PCD_ReadPMA(hpcd->Instance, ep->xfer_buff, ep->pmaadress, count);
1291:Drivers/STM32F0xx_HAL_Driver/Src/stm32f0xx_hal_pcd.c ****           }
1292:Drivers/STM32F0xx_HAL_Driver/Src/stm32f0xx_hal_pcd.c ****         }
1293:Drivers/STM32F0xx_HAL_Driver/Src/stm32f0xx_hal_pcd.c ****         else
1294:Drivers/STM32F0xx_HAL_Driver/Src/stm32f0xx_hal_pcd.c ****         {
1295:Drivers/STM32F0xx_HAL_Driver/Src/stm32f0xx_hal_pcd.c ****           
1296:Drivers/STM32F0xx_HAL_Driver/Src/stm32f0xx_hal_pcd.c ****           if ((PCD_GET_ENDPOINT(hpcd->Instance, ep->num)& USB_EP_DTOG_RX) == USB_EP_DTOG_RX)
1297:Drivers/STM32F0xx_HAL_Driver/Src/stm32f0xx_hal_pcd.c ****           {
1298:Drivers/STM32F0xx_HAL_Driver/Src/stm32f0xx_hal_pcd.c ****             /*read from endpoint BUF0Addr buffer*/
1299:Drivers/STM32F0xx_HAL_Driver/Src/stm32f0xx_hal_pcd.c ****             count = PCD_GET_EP_DBUF0_CNT(hpcd->Instance, ep->num);
1300:Drivers/STM32F0xx_HAL_Driver/Src/stm32f0xx_hal_pcd.c ****             if (count != 0U)
1301:Drivers/STM32F0xx_HAL_Driver/Src/stm32f0xx_hal_pcd.c ****             {
1302:Drivers/STM32F0xx_HAL_Driver/Src/stm32f0xx_hal_pcd.c ****               PCD_ReadPMA(hpcd->Instance, ep->xfer_buff, ep->pmaaddr0, count);
1303:Drivers/STM32F0xx_HAL_Driver/Src/stm32f0xx_hal_pcd.c ****             }
1304:Drivers/STM32F0xx_HAL_Driver/Src/stm32f0xx_hal_pcd.c ****           }
1305:Drivers/STM32F0xx_HAL_Driver/Src/stm32f0xx_hal_pcd.c ****           else
1306:Drivers/STM32F0xx_HAL_Driver/Src/stm32f0xx_hal_pcd.c ****           {
1307:Drivers/STM32F0xx_HAL_Driver/Src/stm32f0xx_hal_pcd.c ****             /*read from endpoint BUF1Addr buffer*/
1308:Drivers/STM32F0xx_HAL_Driver/Src/stm32f0xx_hal_pcd.c ****             count = PCD_GET_EP_DBUF1_CNT(hpcd->Instance, ep->num);
1309:Drivers/STM32F0xx_HAL_Driver/Src/stm32f0xx_hal_pcd.c ****             if (count != 0U)
1310:Drivers/STM32F0xx_HAL_Driver/Src/stm32f0xx_hal_pcd.c ****             {
1311:Drivers/STM32F0xx_HAL_Driver/Src/stm32f0xx_hal_pcd.c ****               PCD_ReadPMA(hpcd->Instance, ep->xfer_buff, ep->pmaaddr1, count);
1312:Drivers/STM32F0xx_HAL_Driver/Src/stm32f0xx_hal_pcd.c ****             }
1313:Drivers/STM32F0xx_HAL_Driver/Src/stm32f0xx_hal_pcd.c ****           }
1314:Drivers/STM32F0xx_HAL_Driver/Src/stm32f0xx_hal_pcd.c ****           PCD_FreeUserBuffer(hpcd->Instance, ep->num, PCD_EP_DBUF_OUT)  
1315:Drivers/STM32F0xx_HAL_Driver/Src/stm32f0xx_hal_pcd.c ****         }
1316:Drivers/STM32F0xx_HAL_Driver/Src/stm32f0xx_hal_pcd.c ****         /*multi-packet on the NON control OUT endpoint*/
1317:Drivers/STM32F0xx_HAL_Driver/Src/stm32f0xx_hal_pcd.c ****         ep->xfer_count+=count;
1318:Drivers/STM32F0xx_HAL_Driver/Src/stm32f0xx_hal_pcd.c ****         ep->xfer_buff+=count;
1319:Drivers/STM32F0xx_HAL_Driver/Src/stm32f0xx_hal_pcd.c ****        
1320:Drivers/STM32F0xx_HAL_Driver/Src/stm32f0xx_hal_pcd.c ****         if ((ep->xfer_len == 0U) || (count < ep->maxpacket))
1321:Drivers/STM32F0xx_HAL_Driver/Src/stm32f0xx_hal_pcd.c ****         {
1322:Drivers/STM32F0xx_HAL_Driver/Src/stm32f0xx_hal_pcd.c ****           /* RX COMPLETE */
1323:Drivers/STM32F0xx_HAL_Driver/Src/stm32f0xx_hal_pcd.c ****           HAL_PCD_DataOutStageCallback(hpcd, ep->num);
ARM GAS  /tmp/ccHm7VQo.s 			page 99


1324:Drivers/STM32F0xx_HAL_Driver/Src/stm32f0xx_hal_pcd.c ****         }
1325:Drivers/STM32F0xx_HAL_Driver/Src/stm32f0xx_hal_pcd.c ****         else
1326:Drivers/STM32F0xx_HAL_Driver/Src/stm32f0xx_hal_pcd.c ****         {
1327:Drivers/STM32F0xx_HAL_Driver/Src/stm32f0xx_hal_pcd.c ****           HAL_PCD_EP_Receive(hpcd, ep->num, ep->xfer_buff, ep->xfer_len);
1328:Drivers/STM32F0xx_HAL_Driver/Src/stm32f0xx_hal_pcd.c ****         }
1329:Drivers/STM32F0xx_HAL_Driver/Src/stm32f0xx_hal_pcd.c ****         
1330:Drivers/STM32F0xx_HAL_Driver/Src/stm32f0xx_hal_pcd.c ****       } /* if((wEPVal & EP_CTR_RX) */
1331:Drivers/STM32F0xx_HAL_Driver/Src/stm32f0xx_hal_pcd.c ****       
1332:Drivers/STM32F0xx_HAL_Driver/Src/stm32f0xx_hal_pcd.c ****       if ((wEPVal & USB_EP_CTR_TX) != 0U)
 3883              		.loc 1 1332 7 is_stmt 1 view .LVU915
 3884              		.loc 1 1332 19 is_stmt 0 view .LVU916
 3885 00ea 01AB     		add	r3, sp, #4
 3886 00ec 1B88     		ldrh	r3, [r3]
 3887              		.loc 1 1332 10 view .LVU917
 3888 00ee 1B06     		lsls	r3, r3, #24
 3889 00f0 00D4     		bmi	.LCB4002
 3890 00f2 41E1     		b	.L181	@long jump
 3891              	.LCB4002:
1333:Drivers/STM32F0xx_HAL_Driver/Src/stm32f0xx_hal_pcd.c ****       {
1334:Drivers/STM32F0xx_HAL_Driver/Src/stm32f0xx_hal_pcd.c ****         ep = &hpcd->IN_ep[EPindex];
 3892              		.loc 1 1334 9 is_stmt 1 view .LVU918
 3893              	.LVL323:
1335:Drivers/STM32F0xx_HAL_Driver/Src/stm32f0xx_hal_pcd.c ****         
1336:Drivers/STM32F0xx_HAL_Driver/Src/stm32f0xx_hal_pcd.c ****         /* clear int flag */
1337:Drivers/STM32F0xx_HAL_Driver/Src/stm32f0xx_hal_pcd.c ****         PCD_CLEAR_TX_EP_CTR(hpcd->Instance, EPindex);
 3894              		.loc 1 1337 9 view .LVU919
 3895 00f4 2268     		ldr	r2, [r4]
 3896 00f6 935B     		ldrh	r3, [r2, r6]
 3897 00f8 7049     		ldr	r1, .L211
 3898 00fa 0B40     		ands	r3, r1
 3899 00fc 9353     		strh	r3, [r2, r6]
1338:Drivers/STM32F0xx_HAL_Driver/Src/stm32f0xx_hal_pcd.c ****         
1339:Drivers/STM32F0xx_HAL_Driver/Src/stm32f0xx_hal_pcd.c ****         /* IN double Buffering*/
1340:Drivers/STM32F0xx_HAL_Driver/Src/stm32f0xx_hal_pcd.c ****         if (ep->doublebuffer == 0U)
 3900              		.loc 1 1340 9 view .LVU920
 3901              		.loc 1 1340 15 is_stmt 0 view .LVU921
 3902 00fe EB00     		lsls	r3, r5, #3
 3903 0100 5B1B     		subs	r3, r3, r5
 3904 0102 9B00     		lsls	r3, r3, #2
 3905 0104 E318     		adds	r3, r4, r3
 3906 0106 3233     		adds	r3, r3, #50
 3907 0108 1B78     		ldrb	r3, [r3]
 3908              		.loc 1 1340 12 view .LVU922
 3909 010a 002B     		cmp	r3, #0
 3910 010c 00D0     		beq	.LCB4021
 3911 010e E1E0     		b	.L198	@long jump
 3912              	.LCB4021:
1341:Drivers/STM32F0xx_HAL_Driver/Src/stm32f0xx_hal_pcd.c ****         {
1342:Drivers/STM32F0xx_HAL_Driver/Src/stm32f0xx_hal_pcd.c ****           ep->xfer_count = PCD_GET_EP_TX_CNT(hpcd->Instance, ep->num);
 3913              		.loc 1 1342 11 is_stmt 1 view .LVU923
 3914              		.loc 1 1342 28 is_stmt 0 view .LVU924
 3915 0110 2068     		ldr	r0, [r4]
 3916 0112 5033     		adds	r3, r3, #80
 3917 0114 C35A     		ldrh	r3, [r0, r3]
 3918 0116 EA00     		lsls	r2, r5, #3
 3919 0118 521B     		subs	r2, r2, r5
 3920 011a 9200     		lsls	r2, r2, #2
ARM GAS  /tmp/ccHm7VQo.s 			page 100


 3921 011c A218     		adds	r2, r4, r2
 3922 011e 1100     		movs	r1, r2
 3923 0120 2831     		adds	r1, r1, #40
 3924 0122 0978     		ldrb	r1, [r1]
 3925 0124 C900     		lsls	r1, r1, #3
 3926 0126 5B18     		adds	r3, r3, r1
 3927 0128 1B18     		adds	r3, r3, r0
 3928 012a 6549     		ldr	r1, .L211+4
 3929 012c 8C46     		mov	ip, r1
 3930 012e 6344     		add	r3, r3, ip
 3931 0130 1B88     		ldrh	r3, [r3]
 3932 0132 9B05     		lsls	r3, r3, #22
 3933 0134 9B0D     		lsrs	r3, r3, #22
 3934              		.loc 1 1342 26 view .LVU925
 3935 0136 1364     		str	r3, [r2, #64]
1343:Drivers/STM32F0xx_HAL_Driver/Src/stm32f0xx_hal_pcd.c ****           if (ep->xfer_count != 0)
 3936              		.loc 1 1343 11 is_stmt 1 view .LVU926
 3937              		.loc 1 1343 14 is_stmt 0 view .LVU927
 3938 0138 00D1     		bne	.LCB4047
 3939 013a F8E0     		b	.L199	@long jump
 3940              	.LCB4047:
1344:Drivers/STM32F0xx_HAL_Driver/Src/stm32f0xx_hal_pcd.c ****           {
1345:Drivers/STM32F0xx_HAL_Driver/Src/stm32f0xx_hal_pcd.c ****             PCD_WritePMA(hpcd->Instance, ep->xfer_buff, ep->pmaadress, ep->xfer_count);
 3941              		.loc 1 1345 13 is_stmt 1 view .LVU928
 3942 013c 1100     		movs	r1, r2
 3943 013e 928D     		ldrh	r2, [r2, #44]
 3944 0140 896B     		ldr	r1, [r1, #56]
 3945 0142 FFF7FEFF 		bl	PCD_WritePMA
 3946              	.LVL324:
 3947 0146 F2E0     		b	.L199
 3948              	.LVL325:
 3949              	.L204:
1281:Drivers/STM32F0xx_HAL_Driver/Src/stm32f0xx_hal_pcd.c ****         ep = &hpcd->OUT_ep[EPindex];
 3950              		.loc 1 1281 9 view .LVU929
 3951 0148 5F4B     		ldr	r3, .L211+12
 3952 014a 1A40     		ands	r2, r3
 3953 014c 0A80     		strh	r2, [r1]
1282:Drivers/STM32F0xx_HAL_Driver/Src/stm32f0xx_hal_pcd.c ****         
 3954              		.loc 1 1282 9 view .LVU930
 3955              	.LVL326:
1285:Drivers/STM32F0xx_HAL_Driver/Src/stm32f0xx_hal_pcd.c ****         {
 3956              		.loc 1 1285 9 view .LVU931
1285:Drivers/STM32F0xx_HAL_Driver/Src/stm32f0xx_hal_pcd.c ****         {
 3957              		.loc 1 1285 15 is_stmt 0 view .LVU932
 3958 014e EB00     		lsls	r3, r5, #3
 3959 0150 5B1B     		subs	r3, r3, r5
 3960 0152 9B00     		lsls	r3, r3, #2
 3961 0154 E318     		adds	r3, r4, r3
 3962 0156 1333     		adds	r3, r3, #19
 3963 0158 FF33     		adds	r3, r3, #255
 3964 015a 1B78     		ldrb	r3, [r3]
1285:Drivers/STM32F0xx_HAL_Driver/Src/stm32f0xx_hal_pcd.c ****         {
 3965              		.loc 1 1285 12 view .LVU933
 3966 015c 002B     		cmp	r3, #0
 3967 015e 23D1     		bne	.L192
1287:Drivers/STM32F0xx_HAL_Driver/Src/stm32f0xx_hal_pcd.c ****           if (count != 0U)
 3968              		.loc 1 1287 11 is_stmt 1 view .LVU934
ARM GAS  /tmp/ccHm7VQo.s 			page 101


1287:Drivers/STM32F0xx_HAL_Driver/Src/stm32f0xx_hal_pcd.c ****           if (count != 0U)
 3969              		.loc 1 1287 19 is_stmt 0 view .LVU935
 3970 0160 2068     		ldr	r0, [r4]
 3971 0162 5033     		adds	r3, r3, #80
 3972 0164 C25A     		ldrh	r2, [r0, r3]
 3973 0166 EB00     		lsls	r3, r5, #3
 3974 0168 5B1B     		subs	r3, r3, r5
 3975 016a 9B00     		lsls	r3, r3, #2
 3976 016c E318     		adds	r3, r4, r3
 3977 016e 0933     		adds	r3, r3, #9
 3978 0170 FF33     		adds	r3, r3, #255
 3979 0172 1B78     		ldrb	r3, [r3]
 3980 0174 DB00     		lsls	r3, r3, #3
 3981 0176 D318     		adds	r3, r2, r3
 3982 0178 1B18     		adds	r3, r3, r0
 3983 017a 524A     		ldr	r2, .L211+8
 3984 017c 9446     		mov	ip, r2
 3985 017e 6344     		add	r3, r3, ip
 3986 0180 1B88     		ldrh	r3, [r3]
1287:Drivers/STM32F0xx_HAL_Driver/Src/stm32f0xx_hal_pcd.c ****           if (count != 0U)
 3987              		.loc 1 1287 17 view .LVU936
 3988 0182 9B05     		lsls	r3, r3, #22
 3989 0184 9F0D     		lsrs	r7, r3, #22
 3990              	.LVL327:
1288:Drivers/STM32F0xx_HAL_Driver/Src/stm32f0xx_hal_pcd.c ****           {
 3991              		.loc 1 1288 11 is_stmt 1 view .LVU937
1288:Drivers/STM32F0xx_HAL_Driver/Src/stm32f0xx_hal_pcd.c ****           {
 3992              		.loc 1 1288 14 is_stmt 0 view .LVU938
 3993 0186 002B     		cmp	r3, #0
 3994 0188 36D0     		beq	.L193
1290:Drivers/STM32F0xx_HAL_Driver/Src/stm32f0xx_hal_pcd.c ****           }
 3995              		.loc 1 1290 13 is_stmt 1 view .LVU939
 3996 018a EB00     		lsls	r3, r5, #3
 3997 018c 5B1B     		subs	r3, r3, r5
 3998 018e 9B00     		lsls	r3, r3, #2
 3999 0190 E318     		adds	r3, r4, r3
 4000 0192 1A00     		movs	r2, r3
 4001 0194 0D32     		adds	r2, r2, #13
 4002 0196 FF32     		adds	r2, r2, #255
 4003 0198 1288     		ldrh	r2, [r2]
 4004 019a 1933     		adds	r3, r3, #25
 4005 019c FF33     		adds	r3, r3, #255
 4006 019e 1968     		ldr	r1, [r3]
 4007 01a0 3B00     		movs	r3, r7
 4008 01a2 FFF7FEFF 		bl	PCD_ReadPMA
 4009              	.LVL328:
 4010 01a6 27E0     		b	.L193
 4011              	.LVL329:
 4012              	.L192:
1296:Drivers/STM32F0xx_HAL_Driver/Src/stm32f0xx_hal_pcd.c ****           {
 4013              		.loc 1 1296 11 view .LVU940
1296:Drivers/STM32F0xx_HAL_Driver/Src/stm32f0xx_hal_pcd.c ****           {
 4014              		.loc 1 1296 16 is_stmt 0 view .LVU941
 4015 01a8 2068     		ldr	r0, [r4]
 4016 01aa EB00     		lsls	r3, r5, #3
 4017 01ac 5B1B     		subs	r3, r3, r5
 4018 01ae 9B00     		lsls	r3, r3, #2
ARM GAS  /tmp/ccHm7VQo.s 			page 102


 4019 01b0 E318     		adds	r3, r4, r3
 4020 01b2 0933     		adds	r3, r3, #9
 4021 01b4 FF33     		adds	r3, r3, #255
 4022 01b6 1B78     		ldrb	r3, [r3]
 4023 01b8 9A00     		lsls	r2, r3, #2
 4024 01ba 825A     		ldrh	r2, [r0, r2]
1296:Drivers/STM32F0xx_HAL_Driver/Src/stm32f0xx_hal_pcd.c ****           {
 4025              		.loc 1 1296 14 view .LVU942
 4026 01bc 5204     		lsls	r2, r2, #17
 4027 01be 55D5     		bpl	.L194
1299:Drivers/STM32F0xx_HAL_Driver/Src/stm32f0xx_hal_pcd.c ****             if (count != 0U)
 4028              		.loc 1 1299 13 is_stmt 1 view .LVU943
1299:Drivers/STM32F0xx_HAL_Driver/Src/stm32f0xx_hal_pcd.c ****             if (count != 0U)
 4029              		.loc 1 1299 21 is_stmt 0 view .LVU944
 4030 01c0 5022     		movs	r2, #80
 4031 01c2 825A     		ldrh	r2, [r0, r2]
 4032 01c4 DB00     		lsls	r3, r3, #3
 4033 01c6 D318     		adds	r3, r2, r3
 4034 01c8 1B18     		adds	r3, r3, r0
 4035 01ca 3D4A     		ldr	r2, .L211+4
 4036 01cc 9446     		mov	ip, r2
 4037 01ce 6344     		add	r3, r3, ip
 4038 01d0 1B88     		ldrh	r3, [r3]
1299:Drivers/STM32F0xx_HAL_Driver/Src/stm32f0xx_hal_pcd.c ****             if (count != 0U)
 4039              		.loc 1 1299 19 view .LVU945
 4040 01d2 9B05     		lsls	r3, r3, #22
 4041 01d4 9F0D     		lsrs	r7, r3, #22
 4042              	.LVL330:
1300:Drivers/STM32F0xx_HAL_Driver/Src/stm32f0xx_hal_pcd.c ****             {
 4043              		.loc 1 1300 13 is_stmt 1 view .LVU946
1300:Drivers/STM32F0xx_HAL_Driver/Src/stm32f0xx_hal_pcd.c ****             {
 4044              		.loc 1 1300 16 is_stmt 0 view .LVU947
 4045 01d6 002B     		cmp	r3, #0
 4046 01d8 39D1     		bne	.L205
 4047              	.L195:
1314:Drivers/STM32F0xx_HAL_Driver/Src/stm32f0xx_hal_pcd.c ****         }
 4048              		.loc 1 1314 11 is_stmt 1 discriminator 1 view .LVU948
1314:Drivers/STM32F0xx_HAL_Driver/Src/stm32f0xx_hal_pcd.c ****         }
 4049              		.loc 1 1314 11 discriminator 1 view .LVU949
 4050 01da 2268     		ldr	r2, [r4]
 4051 01dc EB00     		lsls	r3, r5, #3
 4052 01de 5B1B     		subs	r3, r3, r5
 4053 01e0 9B00     		lsls	r3, r3, #2
 4054 01e2 E318     		adds	r3, r4, r3
 4055 01e4 0933     		adds	r3, r3, #9
 4056 01e6 FF33     		adds	r3, r3, #255
 4057 01e8 1B78     		ldrb	r3, [r3]
 4058 01ea 9B00     		lsls	r3, r3, #2
 4059 01ec D15A     		ldrh	r1, [r2, r3]
 4060 01ee 3748     		ldr	r0, .L211+16
 4061 01f0 0840     		ands	r0, r1
 4062 01f2 3749     		ldr	r1, .L211+20
 4063 01f4 0143     		orrs	r1, r0
 4064 01f6 D152     		strh	r1, [r2, r3]
 4065              	.L193:
1317:Drivers/STM32F0xx_HAL_Driver/Src/stm32f0xx_hal_pcd.c ****         ep->xfer_buff+=count;
 4066              		.loc 1 1317 9 view .LVU950
ARM GAS  /tmp/ccHm7VQo.s 			page 103


1317:Drivers/STM32F0xx_HAL_Driver/Src/stm32f0xx_hal_pcd.c ****         ep->xfer_buff+=count;
 4067              		.loc 1 1317 23 is_stmt 0 view .LVU951
 4068 01f8 3800     		movs	r0, r7
 4069 01fa E900     		lsls	r1, r5, #3
 4070 01fc 491B     		subs	r1, r1, r5
 4071 01fe 8900     		lsls	r1, r1, #2
 4072 0200 6118     		adds	r1, r4, r1
 4073 0202 0A00     		movs	r2, r1
 4074 0204 2132     		adds	r2, r2, #33
 4075 0206 FF32     		adds	r2, r2, #255
 4076 0208 1368     		ldr	r3, [r2]
 4077 020a DB19     		adds	r3, r3, r7
 4078 020c 1360     		str	r3, [r2]
1318:Drivers/STM32F0xx_HAL_Driver/Src/stm32f0xx_hal_pcd.c ****        
 4079              		.loc 1 1318 9 is_stmt 1 view .LVU952
1318:Drivers/STM32F0xx_HAL_Driver/Src/stm32f0xx_hal_pcd.c ****        
 4080              		.loc 1 1318 22 is_stmt 0 view .LVU953
 4081 020e 0B00     		movs	r3, r1
 4082 0210 1933     		adds	r3, r3, #25
 4083 0212 FF33     		adds	r3, r3, #255
 4084 0214 1A68     		ldr	r2, [r3]
 4085 0216 9446     		mov	ip, r2
 4086 0218 6744     		add	r7, r7, ip
 4087              	.LVL331:
1318:Drivers/STM32F0xx_HAL_Driver/Src/stm32f0xx_hal_pcd.c ****        
 4088              		.loc 1 1318 22 view .LVU954
 4089 021a 1F60     		str	r7, [r3]
1320:Drivers/STM32F0xx_HAL_Driver/Src/stm32f0xx_hal_pcd.c ****         {
 4090              		.loc 1 1320 9 is_stmt 1 view .LVU955
1320:Drivers/STM32F0xx_HAL_Driver/Src/stm32f0xx_hal_pcd.c ****         {
 4091              		.loc 1 1320 16 is_stmt 0 view .LVU956
 4092 021c 1D31     		adds	r1, r1, #29
 4093 021e FF31     		adds	r1, r1, #255
 4094 0220 0B68     		ldr	r3, [r1]
1320:Drivers/STM32F0xx_HAL_Driver/Src/stm32f0xx_hal_pcd.c ****         {
 4095              		.loc 1 1320 12 view .LVU957
 4096 0222 002B     		cmp	r3, #0
 4097 0224 08D0     		beq	.L196
1320:Drivers/STM32F0xx_HAL_Driver/Src/stm32f0xx_hal_pcd.c ****         {
 4098              		.loc 1 1320 48 discriminator 1 view .LVU958
 4099 0226 E900     		lsls	r1, r5, #3
 4100 0228 491B     		subs	r1, r1, r5
 4101 022a 8900     		lsls	r1, r1, #2
 4102 022c 6118     		adds	r1, r4, r1
 4103 022e 1531     		adds	r1, r1, #21
 4104 0230 FF31     		adds	r1, r1, #255
 4105 0232 0A68     		ldr	r2, [r1]
1320:Drivers/STM32F0xx_HAL_Driver/Src/stm32f0xx_hal_pcd.c ****         {
 4106              		.loc 1 1320 34 discriminator 1 view .LVU959
 4107 0234 9042     		cmp	r0, r2
 4108 0236 35D2     		bcs	.L197
 4109              	.L196:
1323:Drivers/STM32F0xx_HAL_Driver/Src/stm32f0xx_hal_pcd.c ****         }
 4110              		.loc 1 1323 11 is_stmt 1 view .LVU960
 4111 0238 EB00     		lsls	r3, r5, #3
 4112 023a 5B1B     		subs	r3, r3, r5
 4113 023c 9B00     		lsls	r3, r3, #2
ARM GAS  /tmp/ccHm7VQo.s 			page 104


 4114 023e E318     		adds	r3, r4, r3
 4115 0240 0933     		adds	r3, r3, #9
 4116 0242 FF33     		adds	r3, r3, #255
 4117 0244 1978     		ldrb	r1, [r3]
 4118 0246 2000     		movs	r0, r4
 4119 0248 FFF7FEFF 		bl	HAL_PCD_DataOutStageCallback
 4120              	.LVL332:
 4121 024c 4DE7     		b	.L191
 4122              	.LVL333:
 4123              	.L205:
1302:Drivers/STM32F0xx_HAL_Driver/Src/stm32f0xx_hal_pcd.c ****             }
 4124              		.loc 1 1302 15 view .LVU961
 4125 024e EB00     		lsls	r3, r5, #3
 4126 0250 5B1B     		subs	r3, r3, r5
 4127 0252 9B00     		lsls	r3, r3, #2
 4128 0254 E318     		adds	r3, r4, r3
 4129 0256 1A00     		movs	r2, r3
 4130 0258 0F32     		adds	r2, r2, #15
 4131 025a FF32     		adds	r2, r2, #255
 4132 025c 1288     		ldrh	r2, [r2]
 4133 025e 1933     		adds	r3, r3, #25
 4134 0260 FF33     		adds	r3, r3, #255
 4135 0262 1968     		ldr	r1, [r3]
 4136 0264 3B00     		movs	r3, r7
 4137 0266 FFF7FEFF 		bl	PCD_ReadPMA
 4138              	.LVL334:
 4139 026a B6E7     		b	.L195
 4140              	.LVL335:
 4141              	.L194:
1308:Drivers/STM32F0xx_HAL_Driver/Src/stm32f0xx_hal_pcd.c ****             if (count != 0U)
 4142              		.loc 1 1308 13 view .LVU962
1308:Drivers/STM32F0xx_HAL_Driver/Src/stm32f0xx_hal_pcd.c ****             if (count != 0U)
 4143              		.loc 1 1308 21 is_stmt 0 view .LVU963
 4144 026c 5022     		movs	r2, #80
 4145 026e 825A     		ldrh	r2, [r0, r2]
 4146 0270 DB00     		lsls	r3, r3, #3
 4147 0272 D318     		adds	r3, r2, r3
 4148 0274 1B18     		adds	r3, r3, r0
 4149 0276 134A     		ldr	r2, .L211+8
 4150 0278 9446     		mov	ip, r2
 4151 027a 6344     		add	r3, r3, ip
 4152 027c 1B88     		ldrh	r3, [r3]
1308:Drivers/STM32F0xx_HAL_Driver/Src/stm32f0xx_hal_pcd.c ****             if (count != 0U)
 4153              		.loc 1 1308 19 view .LVU964
 4154 027e 9B05     		lsls	r3, r3, #22
 4155 0280 9F0D     		lsrs	r7, r3, #22
 4156              	.LVL336:
1309:Drivers/STM32F0xx_HAL_Driver/Src/stm32f0xx_hal_pcd.c ****             {
 4157              		.loc 1 1309 13 is_stmt 1 view .LVU965
1309:Drivers/STM32F0xx_HAL_Driver/Src/stm32f0xx_hal_pcd.c ****             {
 4158              		.loc 1 1309 16 is_stmt 0 view .LVU966
 4159 0282 002B     		cmp	r3, #0
 4160 0284 A9D0     		beq	.L195
1311:Drivers/STM32F0xx_HAL_Driver/Src/stm32f0xx_hal_pcd.c ****             }
 4161              		.loc 1 1311 15 is_stmt 1 view .LVU967
 4162 0286 EB00     		lsls	r3, r5, #3
 4163 0288 5B1B     		subs	r3, r3, r5
ARM GAS  /tmp/ccHm7VQo.s 			page 105


 4164 028a 9B00     		lsls	r3, r3, #2
 4165 028c E318     		adds	r3, r4, r3
 4166 028e 1A00     		movs	r2, r3
 4167 0290 1132     		adds	r2, r2, #17
 4168 0292 FF32     		adds	r2, r2, #255
 4169 0294 1288     		ldrh	r2, [r2]
 4170 0296 1933     		adds	r3, r3, #25
 4171 0298 FF33     		adds	r3, r3, #255
 4172 029a 1968     		ldr	r1, [r3]
 4173 029c 3B00     		movs	r3, r7
 4174 029e FFF7FEFF 		bl	PCD_ReadPMA
 4175              	.LVL337:
 4176 02a2 9AE7     		b	.L195
 4177              	.LVL338:
 4178              	.L197:
1327:Drivers/STM32F0xx_HAL_Driver/Src/stm32f0xx_hal_pcd.c ****         }
 4179              		.loc 1 1327 11 view .LVU968
 4180 02a4 EA00     		lsls	r2, r5, #3
 4181 02a6 521B     		subs	r2, r2, r5
 4182 02a8 9200     		lsls	r2, r2, #2
 4183 02aa A218     		adds	r2, r4, r2
 4184 02ac 0932     		adds	r2, r2, #9
 4185 02ae FF32     		adds	r2, r2, #255
 4186 02b0 1178     		ldrb	r1, [r2]
 4187 02b2 3A00     		movs	r2, r7
 4188 02b4 2000     		movs	r0, r4
 4189 02b6 FFF7FEFF 		bl	HAL_PCD_EP_Receive
 4190              	.LVL339:
 4191 02ba 16E7     		b	.L191
 4192              	.L212:
 4193              		.align	2
 4194              	.L211:
 4195 02bc 0F8FFFFF 		.word	-28913
 4196 02c0 02040000 		.word	1026
 4197 02c4 06040000 		.word	1030
 4198 02c8 8F0F0000 		.word	3983
 4199 02cc 0F0F0000 		.word	3855
 4200 02d0 C080FFFF 		.word	-32576
 4201              	.LVL340:
 4202              	.L198:
1346:Drivers/STM32F0xx_HAL_Driver/Src/stm32f0xx_hal_pcd.c ****           }
1347:Drivers/STM32F0xx_HAL_Driver/Src/stm32f0xx_hal_pcd.c ****         }
1348:Drivers/STM32F0xx_HAL_Driver/Src/stm32f0xx_hal_pcd.c ****         else
1349:Drivers/STM32F0xx_HAL_Driver/Src/stm32f0xx_hal_pcd.c ****         {
1350:Drivers/STM32F0xx_HAL_Driver/Src/stm32f0xx_hal_pcd.c ****           if ((PCD_GET_ENDPOINT(hpcd->Instance, ep->num)& USB_EP_DTOG_TX) == USB_EP_DTOG_TX)
 4203              		.loc 1 1350 11 view .LVU969
 4204              		.loc 1 1350 16 is_stmt 0 view .LVU970
 4205 02d4 2068     		ldr	r0, [r4]
 4206 02d6 EB00     		lsls	r3, r5, #3
 4207 02d8 5B1B     		subs	r3, r3, r5
 4208 02da 9B00     		lsls	r3, r3, #2
 4209 02dc E318     		adds	r3, r4, r3
 4210 02de 2833     		adds	r3, r3, #40
 4211 02e0 1B78     		ldrb	r3, [r3]
 4212 02e2 9A00     		lsls	r2, r3, #2
 4213 02e4 825A     		ldrh	r2, [r0, r2]
 4214              		.loc 1 1350 14 view .LVU971
ARM GAS  /tmp/ccHm7VQo.s 			page 106


 4215 02e6 5206     		lsls	r2, r2, #25
 4216 02e8 00D4     		bmi	.LCB4345
 4217 02ea B1E0     		b	.L200	@long jump
 4218              	.LCB4345:
1351:Drivers/STM32F0xx_HAL_Driver/Src/stm32f0xx_hal_pcd.c ****           {
1352:Drivers/STM32F0xx_HAL_Driver/Src/stm32f0xx_hal_pcd.c ****             /*read from endpoint BUF0Addr buffer*/
1353:Drivers/STM32F0xx_HAL_Driver/Src/stm32f0xx_hal_pcd.c ****             ep->xfer_count = PCD_GET_EP_DBUF0_CNT(hpcd->Instance, ep->num);
 4219              		.loc 1 1353 13 is_stmt 1 view .LVU972
 4220              		.loc 1 1353 30 is_stmt 0 view .LVU973
 4221 02ec 5022     		movs	r2, #80
 4222 02ee 825A     		ldrh	r2, [r0, r2]
 4223 02f0 DB00     		lsls	r3, r3, #3
 4224 02f2 D318     		adds	r3, r2, r3
 4225 02f4 1B18     		adds	r3, r3, r0
 4226 02f6 694A     		ldr	r2, .L213
 4227 02f8 9446     		mov	ip, r2
 4228 02fa 6344     		add	r3, r3, ip
 4229 02fc 1B88     		ldrh	r3, [r3]
 4230 02fe 9B05     		lsls	r3, r3, #22
 4231 0300 9B0D     		lsrs	r3, r3, #22
 4232              		.loc 1 1353 28 view .LVU974
 4233 0302 EA00     		lsls	r2, r5, #3
 4234 0304 521B     		subs	r2, r2, r5
 4235 0306 9200     		lsls	r2, r2, #2
 4236 0308 A218     		adds	r2, r4, r2
 4237 030a 1364     		str	r3, [r2, #64]
1354:Drivers/STM32F0xx_HAL_Driver/Src/stm32f0xx_hal_pcd.c ****             if (ep->xfer_count != 0U)
 4238              		.loc 1 1354 13 is_stmt 1 view .LVU975
 4239              		.loc 1 1354 16 is_stmt 0 view .LVU976
 4240 030c 002B     		cmp	r3, #0
 4241 030e 00D0     		beq	.LCB4367
 4242 0310 98E0     		b	.L206	@long jump
 4243              	.LCB4367:
 4244              	.L201:
1355:Drivers/STM32F0xx_HAL_Driver/Src/stm32f0xx_hal_pcd.c ****             {
1356:Drivers/STM32F0xx_HAL_Driver/Src/stm32f0xx_hal_pcd.c ****               PCD_WritePMA(hpcd->Instance, ep->xfer_buff, ep->pmaaddr0, ep->xfer_count);
1357:Drivers/STM32F0xx_HAL_Driver/Src/stm32f0xx_hal_pcd.c ****             }
1358:Drivers/STM32F0xx_HAL_Driver/Src/stm32f0xx_hal_pcd.c ****           }
1359:Drivers/STM32F0xx_HAL_Driver/Src/stm32f0xx_hal_pcd.c ****           else
1360:Drivers/STM32F0xx_HAL_Driver/Src/stm32f0xx_hal_pcd.c ****           {
1361:Drivers/STM32F0xx_HAL_Driver/Src/stm32f0xx_hal_pcd.c ****             /*read from endpoint BUF1Addr buffer*/
1362:Drivers/STM32F0xx_HAL_Driver/Src/stm32f0xx_hal_pcd.c ****             ep->xfer_count = PCD_GET_EP_DBUF1_CNT(hpcd->Instance, ep->num);
1363:Drivers/STM32F0xx_HAL_Driver/Src/stm32f0xx_hal_pcd.c ****             if (ep->xfer_count != 0U)
1364:Drivers/STM32F0xx_HAL_Driver/Src/stm32f0xx_hal_pcd.c ****             {
1365:Drivers/STM32F0xx_HAL_Driver/Src/stm32f0xx_hal_pcd.c ****               PCD_WritePMA(hpcd->Instance, ep->xfer_buff, ep->pmaaddr1, ep->xfer_count);
1366:Drivers/STM32F0xx_HAL_Driver/Src/stm32f0xx_hal_pcd.c ****             }
1367:Drivers/STM32F0xx_HAL_Driver/Src/stm32f0xx_hal_pcd.c ****           }
1368:Drivers/STM32F0xx_HAL_Driver/Src/stm32f0xx_hal_pcd.c ****           PCD_FreeUserBuffer(hpcd->Instance, ep->num, PCD_EP_DBUF_IN) 
 4245              		.loc 1 1368 11 is_stmt 1 discriminator 3 view .LVU977
 4246              		.loc 1 1368 11 discriminator 3 view .LVU978
 4247              		.loc 1 1368 11 discriminator 3 view .LVU979
 4248 0312 2268     		ldr	r2, [r4]
 4249 0314 EB00     		lsls	r3, r5, #3
 4250 0316 5B1B     		subs	r3, r3, r5
 4251 0318 9B00     		lsls	r3, r3, #2
 4252 031a E318     		adds	r3, r4, r3
 4253 031c 2833     		adds	r3, r3, #40
ARM GAS  /tmp/ccHm7VQo.s 			page 107


 4254 031e 1B78     		ldrb	r3, [r3]
 4255 0320 9B00     		lsls	r3, r3, #2
 4256 0322 D15A     		ldrh	r1, [r2, r3]
 4257 0324 5E48     		ldr	r0, .L213+4
 4258 0326 0840     		ands	r0, r1
 4259 0328 5E49     		ldr	r1, .L213+8
 4260 032a 0143     		orrs	r1, r0
 4261 032c D152     		strh	r1, [r2, r3]
 4262              	.L199:
1369:Drivers/STM32F0xx_HAL_Driver/Src/stm32f0xx_hal_pcd.c ****         }
1370:Drivers/STM32F0xx_HAL_Driver/Src/stm32f0xx_hal_pcd.c ****         /*multi-packet on the NON control IN endpoint*/
1371:Drivers/STM32F0xx_HAL_Driver/Src/stm32f0xx_hal_pcd.c ****         ep->xfer_count = PCD_GET_EP_TX_CNT(hpcd->Instance, ep->num);
 4263              		.loc 1 1371 9 view .LVU980
 4264              		.loc 1 1371 26 is_stmt 0 view .LVU981
 4265 032e 2168     		ldr	r1, [r4]
 4266 0330 5023     		movs	r3, #80
 4267 0332 CA5A     		ldrh	r2, [r1, r3]
 4268 0334 EB00     		lsls	r3, r5, #3
 4269 0336 5B1B     		subs	r3, r3, r5
 4270 0338 9B00     		lsls	r3, r3, #2
 4271 033a E318     		adds	r3, r4, r3
 4272 033c 1800     		movs	r0, r3
 4273 033e 2830     		adds	r0, r0, #40
 4274 0340 0078     		ldrb	r0, [r0]
 4275 0342 C000     		lsls	r0, r0, #3
 4276 0344 1218     		adds	r2, r2, r0
 4277 0346 5218     		adds	r2, r2, r1
 4278 0348 5449     		ldr	r1, .L213
 4279 034a 8C46     		mov	ip, r1
 4280 034c 6244     		add	r2, r2, ip
 4281 034e 1288     		ldrh	r2, [r2]
 4282 0350 9205     		lsls	r2, r2, #22
 4283 0352 920D     		lsrs	r2, r2, #22
 4284              		.loc 1 1371 24 view .LVU982
 4285 0354 1A64     		str	r2, [r3, #64]
1372:Drivers/STM32F0xx_HAL_Driver/Src/stm32f0xx_hal_pcd.c ****         ep->xfer_buff+=ep->xfer_count;
 4286              		.loc 1 1372 9 is_stmt 1 view .LVU983
 4287              		.loc 1 1372 22 is_stmt 0 view .LVU984
 4288 0356 996B     		ldr	r1, [r3, #56]
 4289 0358 8C46     		mov	ip, r1
 4290 035a 6244     		add	r2, r2, ip
 4291 035c 9A63     		str	r2, [r3, #56]
1373:Drivers/STM32F0xx_HAL_Driver/Src/stm32f0xx_hal_pcd.c ****        
1374:Drivers/STM32F0xx_HAL_Driver/Src/stm32f0xx_hal_pcd.c ****         /* Zero Length Packet? */
1375:Drivers/STM32F0xx_HAL_Driver/Src/stm32f0xx_hal_pcd.c ****         if (ep->xfer_len == 0U)
 4292              		.loc 1 1375 9 is_stmt 1 view .LVU985
 4293              		.loc 1 1375 15 is_stmt 0 view .LVU986
 4294 035e DB6B     		ldr	r3, [r3, #60]
 4295              		.loc 1 1375 12 view .LVU987
 4296 0360 002B     		cmp	r3, #0
 4297 0362 00D0     		beq	.LCB4425
 4298 0364 8DE0     		b	.L202	@long jump
 4299              	.LCB4425:
1376:Drivers/STM32F0xx_HAL_Driver/Src/stm32f0xx_hal_pcd.c ****         {
1377:Drivers/STM32F0xx_HAL_Driver/Src/stm32f0xx_hal_pcd.c ****           /* TX COMPLETE */
1378:Drivers/STM32F0xx_HAL_Driver/Src/stm32f0xx_hal_pcd.c ****           HAL_PCD_DataInStageCallback(hpcd, ep->num);
 4300              		.loc 1 1378 11 is_stmt 1 view .LVU988
ARM GAS  /tmp/ccHm7VQo.s 			page 108


 4301 0366 EB00     		lsls	r3, r5, #3
 4302 0368 5B1B     		subs	r3, r3, r5
 4303 036a 9B00     		lsls	r3, r3, #2
 4304 036c E318     		adds	r3, r4, r3
 4305 036e 2833     		adds	r3, r3, #40
 4306 0370 1978     		ldrb	r1, [r3]
 4307 0372 2000     		movs	r0, r4
 4308 0374 FFF7FEFF 		bl	HAL_PCD_DataInStageCallback
 4309              	.LVL341:
 4310              	.L181:
1197:Drivers/STM32F0xx_HAL_Driver/Src/stm32f0xx_hal_pcd.c ****   {
 4311              		.loc 1 1197 24 is_stmt 0 view .LVU989
 4312 0378 2068     		ldr	r0, [r4]
1197:Drivers/STM32F0xx_HAL_Driver/Src/stm32f0xx_hal_pcd.c ****   {
 4313              		.loc 1 1197 34 view .LVU990
 4314 037a 4423     		movs	r3, #68
 4315 037c C35A     		ldrh	r3, [r0, r3]
 4316 037e 9BB2     		uxth	r3, r3
1197:Drivers/STM32F0xx_HAL_Driver/Src/stm32f0xx_hal_pcd.c ****   {
 4317              		.loc 1 1197 18 view .LVU991
 4318 0380 6A46     		mov	r2, sp
 4319 0382 D380     		strh	r3, [r2, #6]
1197:Drivers/STM32F0xx_HAL_Driver/Src/stm32f0xx_hal_pcd.c ****   {
 4320              		.loc 1 1197 58 view .LVU992
 4321 0384 1BB2     		sxth	r3, r3
1197:Drivers/STM32F0xx_HAL_Driver/Src/stm32f0xx_hal_pcd.c ****   {
 4322              		.loc 1 1197 9 view .LVU993
 4323 0386 002B     		cmp	r3, #0
 4324 0388 00DB     		blt	.LCB4448
 4325 038a 84E0     		b	.L207	@long jump
 4326              	.LCB4448:
1200:Drivers/STM32F0xx_HAL_Driver/Src/stm32f0xx_hal_pcd.c ****     
 4327              		.loc 1 1200 5 is_stmt 1 view .LVU994
1200:Drivers/STM32F0xx_HAL_Driver/Src/stm32f0xx_hal_pcd.c ****     
 4328              		.loc 1 1200 31 is_stmt 0 view .LVU995
 4329 038c 6B46     		mov	r3, sp
 4330 038e DA88     		ldrh	r2, [r3, #6]
1200:Drivers/STM32F0xx_HAL_Driver/Src/stm32f0xx_hal_pcd.c ****     
 4331              		.loc 1 1200 13 view .LVU996
 4332 0390 0F23     		movs	r3, #15
 4333 0392 1500     		movs	r5, r2
 4334 0394 1D40     		ands	r5, r3
 4335              	.LVL342:
1202:Drivers/STM32F0xx_HAL_Driver/Src/stm32f0xx_hal_pcd.c ****     {
 4336              		.loc 1 1202 5 is_stmt 1 view .LVU997
1202:Drivers/STM32F0xx_HAL_Driver/Src/stm32f0xx_hal_pcd.c ****     {
 4337              		.loc 1 1202 8 is_stmt 0 view .LVU998
 4338 0396 1A42     		tst	r2, r3
 4339 0398 00D0     		beq	.LCB4461
 4340 039a 9DE6     		b	.L182	@long jump
 4341              	.LCB4461:
1207:Drivers/STM32F0xx_HAL_Driver/Src/stm32f0xx_hal_pcd.c ****       {
 4342              		.loc 1 1207 7 is_stmt 1 view .LVU999
1207:Drivers/STM32F0xx_HAL_Driver/Src/stm32f0xx_hal_pcd.c ****       {
 4343              		.loc 1 1207 18 is_stmt 0 view .LVU1000
 4344 039c 6B46     		mov	r3, sp
 4345 039e 0633     		adds	r3, r3, #6
ARM GAS  /tmp/ccHm7VQo.s 			page 109


 4346 03a0 1B88     		ldrh	r3, [r3]
1207:Drivers/STM32F0xx_HAL_Driver/Src/stm32f0xx_hal_pcd.c ****       {
 4347              		.loc 1 1207 10 view .LVU1001
 4348 03a2 DB06     		lsls	r3, r3, #27
 4349 03a4 00D4     		bmi	.LCB4471
 4350 03a6 32E6     		b	.L208	@long jump
 4351              	.LCB4471:
1236:Drivers/STM32F0xx_HAL_Driver/Src/stm32f0xx_hal_pcd.c ****         wEPVal = PCD_GET_ENDPOINT(hpcd->Instance, PCD_ENDP0);
 4352              		.loc 1 1236 9 is_stmt 1 view .LVU1002
 4353              	.LVL343:
1237:Drivers/STM32F0xx_HAL_Driver/Src/stm32f0xx_hal_pcd.c ****         
 4354              		.loc 1 1237 9 view .LVU1003
1237:Drivers/STM32F0xx_HAL_Driver/Src/stm32f0xx_hal_pcd.c ****         
 4355              		.loc 1 1237 18 is_stmt 0 view .LVU1004
 4356 03a8 0288     		ldrh	r2, [r0]
1237:Drivers/STM32F0xx_HAL_Driver/Src/stm32f0xx_hal_pcd.c ****         
 4357              		.loc 1 1237 16 view .LVU1005
 4358 03aa 01AB     		add	r3, sp, #4
 4359 03ac 1A80     		strh	r2, [r3]
1239:Drivers/STM32F0xx_HAL_Driver/Src/stm32f0xx_hal_pcd.c ****         {
 4360              		.loc 1 1239 9 is_stmt 1 view .LVU1006
1239:Drivers/STM32F0xx_HAL_Driver/Src/stm32f0xx_hal_pcd.c ****         {
 4361              		.loc 1 1239 21 is_stmt 0 view .LVU1007
 4362 03ae 1B88     		ldrh	r3, [r3]
1239:Drivers/STM32F0xx_HAL_Driver/Src/stm32f0xx_hal_pcd.c ****         {
 4363              		.loc 1 1239 12 view .LVU1008
 4364 03b0 1B05     		lsls	r3, r3, #20
 4365 03b2 00D5     		bpl	.LCB4485
 4366 03b4 5BE6     		b	.L209	@long jump
 4367              	.LCB4485:
1251:Drivers/STM32F0xx_HAL_Driver/Src/stm32f0xx_hal_pcd.c ****         {
 4368              		.loc 1 1251 14 is_stmt 1 view .LVU1009
1251:Drivers/STM32F0xx_HAL_Driver/Src/stm32f0xx_hal_pcd.c ****         {
 4369              		.loc 1 1251 43 is_stmt 0 view .LVU1010
 4370 03b6 01AB     		add	r3, sp, #4
 4371 03b8 1B88     		ldrh	r3, [r3]
 4372 03ba 1BB2     		sxth	r3, r3
1251:Drivers/STM32F0xx_HAL_Driver/Src/stm32f0xx_hal_pcd.c ****         {
 4373              		.loc 1 1251 17 view .LVU1011
 4374 03bc 002B     		cmp	r3, #0
 4375 03be DBDA     		bge	.L181
1253:Drivers/STM32F0xx_HAL_Driver/Src/stm32f0xx_hal_pcd.c ****           /* Get Control Data OUT Packet*/
 4376              		.loc 1 1253 11 is_stmt 1 view .LVU1012
 4377 03c0 0388     		ldrh	r3, [r0]
 4378 03c2 394A     		ldr	r2, .L213+12
 4379 03c4 1340     		ands	r3, r2
 4380 03c6 0380     		strh	r3, [r0]
1255:Drivers/STM32F0xx_HAL_Driver/Src/stm32f0xx_hal_pcd.c ****           
 4381              		.loc 1 1255 11 view .LVU1013
1255:Drivers/STM32F0xx_HAL_Driver/Src/stm32f0xx_hal_pcd.c ****           
 4382              		.loc 1 1255 28 is_stmt 0 view .LVU1014
 4383 03c8 2068     		ldr	r0, [r4]
 4384 03ca 5023     		movs	r3, #80
 4385 03cc C35A     		ldrh	r3, [r0, r3]
 4386 03ce 8422     		movs	r2, #132
 4387 03d0 5200     		lsls	r2, r2, #1
 4388 03d2 A25C     		ldrb	r2, [r4, r2]
ARM GAS  /tmp/ccHm7VQo.s 			page 110


 4389 03d4 D200     		lsls	r2, r2, #3
 4390 03d6 9B18     		adds	r3, r3, r2
 4391 03d8 1B18     		adds	r3, r3, r0
 4392 03da 344A     		ldr	r2, .L213+16
 4393 03dc 9446     		mov	ip, r2
 4394 03de 6344     		add	r3, r3, ip
 4395 03e0 1B88     		ldrh	r3, [r3]
 4396 03e2 9B05     		lsls	r3, r3, #22
 4397 03e4 9B0D     		lsrs	r3, r3, #22
1255:Drivers/STM32F0xx_HAL_Driver/Src/stm32f0xx_hal_pcd.c ****           
 4398              		.loc 1 1255 26 view .LVU1015
 4399 03e6 2200     		movs	r2, r4
 4400 03e8 0932     		adds	r2, r2, #9
 4401 03ea FF32     		adds	r2, r2, #255
 4402 03ec 9361     		str	r3, [r2, #24]
1257:Drivers/STM32F0xx_HAL_Driver/Src/stm32f0xx_hal_pcd.c ****           {
 4403              		.loc 1 1257 11 is_stmt 1 view .LVU1016
1257:Drivers/STM32F0xx_HAL_Driver/Src/stm32f0xx_hal_pcd.c ****           {
 4404              		.loc 1 1257 14 is_stmt 0 view .LVU1017
 4405 03ee 002B     		cmp	r3, #0
 4406 03f0 00D0     		beq	.LCB4523
 4407 03f2 5DE6     		b	.L210	@long jump
 4408              	.LCB4523:
 4409              	.LVL344:
 4410              	.L186:
1264:Drivers/STM32F0xx_HAL_Driver/Src/stm32f0xx_hal_pcd.c ****           
 4411              		.loc 1 1264 12 is_stmt 1 view .LVU1018
 4412 03f4 0021     		movs	r1, #0
 4413 03f6 2000     		movs	r0, r4
 4414 03f8 FFF7FEFF 		bl	HAL_PCD_DataOutStageCallback
 4415              	.LVL345:
 4416              	.LBB44:
1266:Drivers/STM32F0xx_HAL_Driver/Src/stm32f0xx_hal_pcd.c ****           PCD_SET_EP_RX_STATUS(hpcd->Instance, PCD_ENDP0, USB_EP_RX_VALID)
 4417              		.loc 1 1266 11 view .LVU1019
 4418 03fc 2368     		ldr	r3, [r4]
 4419 03fe 5022     		movs	r2, #80
 4420 0400 9A5A     		ldrh	r2, [r3, r2]
 4421 0402 9A18     		adds	r2, r3, r2
 4422 0404 294B     		ldr	r3, .L213+16
 4423 0406 9C46     		mov	ip, r3
 4424 0408 6244     		add	r2, r2, ip
 4425              	.LVL346:
 4426              	.LBB43:
1266:Drivers/STM32F0xx_HAL_Driver/Src/stm32f0xx_hal_pcd.c ****           PCD_SET_EP_RX_STATUS(hpcd->Instance, PCD_ENDP0, USB_EP_RX_VALID)
 4427              		.loc 1 1266 11 view .LVU1020
1266:Drivers/STM32F0xx_HAL_Driver/Src/stm32f0xx_hal_pcd.c ****           PCD_SET_EP_RX_STATUS(hpcd->Instance, PCD_ENDP0, USB_EP_RX_VALID)
 4428              		.loc 1 1266 11 view .LVU1021
 4429 040a 2300     		movs	r3, r4
 4430 040c 0933     		adds	r3, r3, #9
 4431 040e FF33     		adds	r3, r3, #255
 4432 0410 D968     		ldr	r1, [r3, #12]
 4433 0412 3E29     		cmp	r1, #62
 4434 0414 00D8     		bhi	.LCB4549
 4435 0416 56E6     		b	.L187	@long jump
 4436              	.LCB4549:
1266:Drivers/STM32F0xx_HAL_Driver/Src/stm32f0xx_hal_pcd.c ****           PCD_SET_EP_RX_STATUS(hpcd->Instance, PCD_ENDP0, USB_EP_RX_VALID)
 4437              		.loc 1 1266 11 discriminator 1 view .LVU1022
ARM GAS  /tmp/ccHm7VQo.s 			page 111


 4438 0418 4B09     		lsrs	r3, r1, #5
 4439 041a 9BB2     		uxth	r3, r3
 4440              	.LVL347:
1266:Drivers/STM32F0xx_HAL_Driver/Src/stm32f0xx_hal_pcd.c ****           PCD_SET_EP_RX_STATUS(hpcd->Instance, PCD_ENDP0, USB_EP_RX_VALID)
 4441              		.loc 1 1266 11 discriminator 1 view .LVU1023
 4442 041c C906     		lsls	r1, r1, #27
 4443 041e 01D1     		bne	.L188
1266:Drivers/STM32F0xx_HAL_Driver/Src/stm32f0xx_hal_pcd.c ****           PCD_SET_EP_RX_STATUS(hpcd->Instance, PCD_ENDP0, USB_EP_RX_VALID)
 4444              		.loc 1 1266 11 discriminator 3 view .LVU1024
 4445 0420 013B     		subs	r3, r3, #1
 4446              	.LVL348:
1266:Drivers/STM32F0xx_HAL_Driver/Src/stm32f0xx_hal_pcd.c ****           PCD_SET_EP_RX_STATUS(hpcd->Instance, PCD_ENDP0, USB_EP_RX_VALID)
 4447              		.loc 1 1266 11 is_stmt 0 discriminator 3 view .LVU1025
 4448 0422 9BB2     		uxth	r3, r3
 4449              	.LVL349:
 4450              	.L188:
1266:Drivers/STM32F0xx_HAL_Driver/Src/stm32f0xx_hal_pcd.c ****           PCD_SET_EP_RX_STATUS(hpcd->Instance, PCD_ENDP0, USB_EP_RX_VALID)
 4451              		.loc 1 1266 11 is_stmt 1 discriminator 5 view .LVU1026
 4452 0424 9B02     		lsls	r3, r3, #10
 4453              	.LVL350:
1266:Drivers/STM32F0xx_HAL_Driver/Src/stm32f0xx_hal_pcd.c ****           PCD_SET_EP_RX_STATUS(hpcd->Instance, PCD_ENDP0, USB_EP_RX_VALID)
 4454              		.loc 1 1266 11 is_stmt 0 discriminator 5 view .LVU1027
 4455 0426 9BB2     		uxth	r3, r3
 4456 0428 2149     		ldr	r1, .L213+20
 4457 042a 0B43     		orrs	r3, r1
 4458 042c 1380     		strh	r3, [r2]
 4459              	.L189:
1266:Drivers/STM32F0xx_HAL_Driver/Src/stm32f0xx_hal_pcd.c ****           PCD_SET_EP_RX_STATUS(hpcd->Instance, PCD_ENDP0, USB_EP_RX_VALID)
 4460              		.loc 1 1266 11 discriminator 5 view .LVU1028
 4461              	.LBE43:
 4462              	.LBE44:
 4463              	.LBB45:
1267:Drivers/STM32F0xx_HAL_Driver/Src/stm32f0xx_hal_pcd.c ****         }
 4464              		.loc 1 1267 11 is_stmt 1 view .LVU1029
1267:Drivers/STM32F0xx_HAL_Driver/Src/stm32f0xx_hal_pcd.c ****         }
 4465              		.loc 1 1267 11 view .LVU1030
 4466 042e 2168     		ldr	r1, [r4]
 4467 0430 0A88     		ldrh	r2, [r1]
 4468              	.LVL351:
1267:Drivers/STM32F0xx_HAL_Driver/Src/stm32f0xx_hal_pcd.c ****         }
 4469              		.loc 1 1267 11 is_stmt 0 view .LVU1031
 4470 0432 204B     		ldr	r3, .L213+24
 4471 0434 1A40     		ands	r2, r3
 4472              	.LVL352:
1267:Drivers/STM32F0xx_HAL_Driver/Src/stm32f0xx_hal_pcd.c ****         }
 4473              		.loc 1 1267 11 is_stmt 1 view .LVU1032
1267:Drivers/STM32F0xx_HAL_Driver/Src/stm32f0xx_hal_pcd.c ****         }
 4474              		.loc 1 1267 11 view .LVU1033
1267:Drivers/STM32F0xx_HAL_Driver/Src/stm32f0xx_hal_pcd.c ****         }
 4475              		.loc 1 1267 11 view .LVU1034
1267:Drivers/STM32F0xx_HAL_Driver/Src/stm32f0xx_hal_pcd.c ****         }
 4476              		.loc 1 1267 11 view .LVU1035
 4477 0436 C023     		movs	r3, #192
 4478 0438 9B01     		lsls	r3, r3, #6
 4479 043a 5A40     		eors	r2, r3
 4480              	.LVL353:
1267:Drivers/STM32F0xx_HAL_Driver/Src/stm32f0xx_hal_pcd.c ****         }
ARM GAS  /tmp/ccHm7VQo.s 			page 112


 4481              		.loc 1 1267 11 view .LVU1036
 4482 043c 1E4B     		ldr	r3, .L213+28
 4483 043e 1343     		orrs	r3, r2
 4484 0440 0B80     		strh	r3, [r1]
 4485 0442 99E7     		b	.L181
 4486              	.LVL354:
 4487              	.L206:
1267:Drivers/STM32F0xx_HAL_Driver/Src/stm32f0xx_hal_pcd.c ****         }
 4488              		.loc 1 1267 11 is_stmt 0 view .LVU1037
 4489              	.LBE45:
1356:Drivers/STM32F0xx_HAL_Driver/Src/stm32f0xx_hal_pcd.c ****             }
 4490              		.loc 1 1356 15 is_stmt 1 view .LVU1038
 4491 0444 1100     		movs	r1, r2
 4492 0446 D28D     		ldrh	r2, [r2, #46]
 4493 0448 896B     		ldr	r1, [r1, #56]
 4494 044a FFF7FEFF 		bl	PCD_WritePMA
 4495              	.LVL355:
 4496 044e 60E7     		b	.L201
 4497              	.L200:
1362:Drivers/STM32F0xx_HAL_Driver/Src/stm32f0xx_hal_pcd.c ****             if (ep->xfer_count != 0U)
 4498              		.loc 1 1362 13 view .LVU1039
1362:Drivers/STM32F0xx_HAL_Driver/Src/stm32f0xx_hal_pcd.c ****             if (ep->xfer_count != 0U)
 4499              		.loc 1 1362 30 is_stmt 0 view .LVU1040
 4500 0450 5022     		movs	r2, #80
 4501 0452 825A     		ldrh	r2, [r0, r2]
 4502 0454 DB00     		lsls	r3, r3, #3
 4503 0456 D318     		adds	r3, r2, r3
 4504 0458 1B18     		adds	r3, r3, r0
 4505 045a 144A     		ldr	r2, .L213+16
 4506 045c 9446     		mov	ip, r2
 4507 045e 6344     		add	r3, r3, ip
 4508 0460 1B88     		ldrh	r3, [r3]
 4509 0462 9B05     		lsls	r3, r3, #22
 4510 0464 9B0D     		lsrs	r3, r3, #22
1362:Drivers/STM32F0xx_HAL_Driver/Src/stm32f0xx_hal_pcd.c ****             if (ep->xfer_count != 0U)
 4511              		.loc 1 1362 28 view .LVU1041
 4512 0466 EA00     		lsls	r2, r5, #3
 4513 0468 521B     		subs	r2, r2, r5
 4514 046a 9200     		lsls	r2, r2, #2
 4515 046c A218     		adds	r2, r4, r2
 4516 046e 1364     		str	r3, [r2, #64]
1363:Drivers/STM32F0xx_HAL_Driver/Src/stm32f0xx_hal_pcd.c ****             {
 4517              		.loc 1 1363 13 is_stmt 1 view .LVU1042
1363:Drivers/STM32F0xx_HAL_Driver/Src/stm32f0xx_hal_pcd.c ****             {
 4518              		.loc 1 1363 16 is_stmt 0 view .LVU1043
 4519 0470 002B     		cmp	r3, #0
 4520 0472 00D1     		bne	.LCB4649
 4521 0474 4DE7     		b	.L201	@long jump
 4522              	.LCB4649:
1365:Drivers/STM32F0xx_HAL_Driver/Src/stm32f0xx_hal_pcd.c ****             }
 4523              		.loc 1 1365 15 is_stmt 1 view .LVU1044
 4524 0476 1100     		movs	r1, r2
 4525 0478 128E     		ldrh	r2, [r2, #48]
 4526 047a 896B     		ldr	r1, [r1, #56]
 4527 047c FFF7FEFF 		bl	PCD_WritePMA
 4528              	.LVL356:
 4529 0480 47E7     		b	.L201
ARM GAS  /tmp/ccHm7VQo.s 			page 113


 4530              	.L202:
1379:Drivers/STM32F0xx_HAL_Driver/Src/stm32f0xx_hal_pcd.c ****         }
1380:Drivers/STM32F0xx_HAL_Driver/Src/stm32f0xx_hal_pcd.c ****         else
1381:Drivers/STM32F0xx_HAL_Driver/Src/stm32f0xx_hal_pcd.c ****         {
1382:Drivers/STM32F0xx_HAL_Driver/Src/stm32f0xx_hal_pcd.c ****           HAL_PCD_EP_Transmit(hpcd, ep->num, ep->xfer_buff, ep->xfer_len);
 4531              		.loc 1 1382 11 view .LVU1045
 4532 0482 E900     		lsls	r1, r5, #3
 4533 0484 491B     		subs	r1, r1, r5
 4534 0486 8900     		lsls	r1, r1, #2
 4535 0488 6118     		adds	r1, r4, r1
 4536 048a 2831     		adds	r1, r1, #40
 4537 048c 0978     		ldrb	r1, [r1]
 4538 048e 2000     		movs	r0, r4
 4539 0490 FFF7FEFF 		bl	HAL_PCD_EP_Transmit
 4540              	.LVL357:
 4541 0494 70E7     		b	.L181
 4542              	.LVL358:
 4543              	.L207:
1383:Drivers/STM32F0xx_HAL_Driver/Src/stm32f0xx_hal_pcd.c ****         }
1384:Drivers/STM32F0xx_HAL_Driver/Src/stm32f0xx_hal_pcd.c ****       } 
1385:Drivers/STM32F0xx_HAL_Driver/Src/stm32f0xx_hal_pcd.c ****     }
1386:Drivers/STM32F0xx_HAL_Driver/Src/stm32f0xx_hal_pcd.c ****   }
1387:Drivers/STM32F0xx_HAL_Driver/Src/stm32f0xx_hal_pcd.c ****   return HAL_OK;
 4544              		.loc 1 1387 3 view .LVU1046
1388:Drivers/STM32F0xx_HAL_Driver/Src/stm32f0xx_hal_pcd.c **** }
 4545              		.loc 1 1388 1 is_stmt 0 view .LVU1047
 4546 0496 0020     		movs	r0, #0
 4547 0498 03B0     		add	sp, sp, #12
 4548              		@ sp needed
 4549              	.LVL359:
 4550              		.loc 1 1388 1 view .LVU1048
 4551 049a F0BD     		pop	{r4, r5, r6, r7, pc}
 4552              	.L214:
 4553              		.align	2
 4554              	.L213:
 4555 049c 02040000 		.word	1026
 4556 04a0 0F0F0000 		.word	3855
 4557 04a4 80C0FFFF 		.word	-16256
 4558 04a8 8F0F0000 		.word	3983
 4559 04ac 06040000 		.word	1030
 4560 04b0 0080FFFF 		.word	-32768
 4561 04b4 8FBFFFFF 		.word	-16497
 4562 04b8 8080FFFF 		.word	-32640
 4563              		.cfi_endproc
 4564              	.LFE71:
 4566              		.section	.text.HAL_PCD_IRQHandler,"ax",%progbits
 4567              		.align	1
 4568              		.global	HAL_PCD_IRQHandler
 4569              		.syntax unified
 4570              		.code	16
 4571              		.thumb_func
 4572              		.fpu softvfp
 4574              	HAL_PCD_IRQHandler:
 4575              	.LVL360:
 4576              	.LFB43:
 328:Drivers/STM32F0xx_HAL_Driver/Src/stm32f0xx_hal_pcd.c ****   uint32_t wInterrupt_Mask = 0U;
 4577              		.loc 1 328 1 is_stmt 1 view -0
ARM GAS  /tmp/ccHm7VQo.s 			page 114


 4578              		.cfi_startproc
 4579              		@ args = 0, pretend = 0, frame = 0
 4580              		@ frame_needed = 0, uses_anonymous_args = 0
 328:Drivers/STM32F0xx_HAL_Driver/Src/stm32f0xx_hal_pcd.c ****   uint32_t wInterrupt_Mask = 0U;
 4581              		.loc 1 328 1 is_stmt 0 view .LVU1050
 4582 0000 70B5     		push	{r4, r5, r6, lr}
 4583              	.LCFI15:
 4584              		.cfi_def_cfa_offset 16
 4585              		.cfi_offset 4, -16
 4586              		.cfi_offset 5, -12
 4587              		.cfi_offset 6, -8
 4588              		.cfi_offset 14, -4
 4589 0002 0400     		movs	r4, r0
 329:Drivers/STM32F0xx_HAL_Driver/Src/stm32f0xx_hal_pcd.c ****   
 4590              		.loc 1 329 3 is_stmt 1 view .LVU1051
 4591              	.LVL361:
 331:Drivers/STM32F0xx_HAL_Driver/Src/stm32f0xx_hal_pcd.c ****   {
 4592              		.loc 1 331 3 view .LVU1052
 331:Drivers/STM32F0xx_HAL_Driver/Src/stm32f0xx_hal_pcd.c ****   {
 4593              		.loc 1 331 7 is_stmt 0 view .LVU1053
 4594 0004 4423     		movs	r3, #68
 4595 0006 0268     		ldr	r2, [r0]
 4596 0008 D35A     		ldrh	r3, [r2, r3]
 331:Drivers/STM32F0xx_HAL_Driver/Src/stm32f0xx_hal_pcd.c ****   {
 4597              		.loc 1 331 6 view .LVU1054
 4598 000a 1BB2     		sxth	r3, r3
 4599 000c 002B     		cmp	r3, #0
 4600 000e 46DB     		blt	.L224
 4601              	.LVL362:
 4602              	.L216:
 338:Drivers/STM32F0xx_HAL_Driver/Src/stm32f0xx_hal_pcd.c ****   {
 4603              		.loc 1 338 3 is_stmt 1 view .LVU1055
 338:Drivers/STM32F0xx_HAL_Driver/Src/stm32f0xx_hal_pcd.c ****   {
 4604              		.loc 1 338 7 is_stmt 0 view .LVU1056
 4605 0010 2368     		ldr	r3, [r4]
 4606 0012 4422     		movs	r2, #68
 4607 0014 9A5A     		ldrh	r2, [r3, r2]
 338:Drivers/STM32F0xx_HAL_Driver/Src/stm32f0xx_hal_pcd.c ****   {
 4608              		.loc 1 338 6 view .LVU1057
 4609 0016 5205     		lsls	r2, r2, #21
 4610 0018 44D4     		bmi	.L225
 4611              	.L217:
 345:Drivers/STM32F0xx_HAL_Driver/Src/stm32f0xx_hal_pcd.c ****   {
 4612              		.loc 1 345 3 is_stmt 1 view .LVU1058
 345:Drivers/STM32F0xx_HAL_Driver/Src/stm32f0xx_hal_pcd.c ****   {
 4613              		.loc 1 345 7 is_stmt 0 view .LVU1059
 4614 001a 2368     		ldr	r3, [r4]
 4615 001c 4422     		movs	r2, #68
 4616 001e 9A5A     		ldrh	r2, [r3, r2]
 345:Drivers/STM32F0xx_HAL_Driver/Src/stm32f0xx_hal_pcd.c ****   {
 4617              		.loc 1 345 6 view .LVU1060
 4618 0020 5204     		lsls	r2, r2, #17
 4619 0022 04D5     		bpl	.L218
 347:Drivers/STM32F0xx_HAL_Driver/Src/stm32f0xx_hal_pcd.c ****   }
 4620              		.loc 1 347 5 is_stmt 1 view .LVU1061
 4621 0024 4421     		movs	r1, #68
 4622 0026 5A5A     		ldrh	r2, [r3, r1]
ARM GAS  /tmp/ccHm7VQo.s 			page 115


 4623 0028 3448     		ldr	r0, .L229
 4624 002a 0240     		ands	r2, r0
 4625 002c 5A52     		strh	r2, [r3, r1]
 4626              	.L218:
 350:Drivers/STM32F0xx_HAL_Driver/Src/stm32f0xx_hal_pcd.c ****   {
 4627              		.loc 1 350 3 view .LVU1062
 350:Drivers/STM32F0xx_HAL_Driver/Src/stm32f0xx_hal_pcd.c ****   {
 4628              		.loc 1 350 7 is_stmt 0 view .LVU1063
 4629 002e 2368     		ldr	r3, [r4]
 4630 0030 4422     		movs	r2, #68
 4631 0032 9A5A     		ldrh	r2, [r3, r2]
 350:Drivers/STM32F0xx_HAL_Driver/Src/stm32f0xx_hal_pcd.c ****   {
 4632              		.loc 1 350 6 view .LVU1064
 4633 0034 9204     		lsls	r2, r2, #18
 4634 0036 04D5     		bpl	.L219
 352:Drivers/STM32F0xx_HAL_Driver/Src/stm32f0xx_hal_pcd.c ****   }
 4635              		.loc 1 352 5 is_stmt 1 view .LVU1065
 4636 0038 4421     		movs	r1, #68
 4637 003a 5A5A     		ldrh	r2, [r3, r1]
 4638 003c 3048     		ldr	r0, .L229+4
 4639 003e 0240     		ands	r2, r0
 4640 0040 5A52     		strh	r2, [r3, r1]
 4641              	.L219:
 355:Drivers/STM32F0xx_HAL_Driver/Src/stm32f0xx_hal_pcd.c ****   {
 4642              		.loc 1 355 3 view .LVU1066
 355:Drivers/STM32F0xx_HAL_Driver/Src/stm32f0xx_hal_pcd.c ****   {
 4643              		.loc 1 355 7 is_stmt 0 view .LVU1067
 4644 0042 2368     		ldr	r3, [r4]
 4645 0044 4422     		movs	r2, #68
 4646 0046 9A5A     		ldrh	r2, [r3, r2]
 355:Drivers/STM32F0xx_HAL_Driver/Src/stm32f0xx_hal_pcd.c ****   {
 4647              		.loc 1 355 6 view .LVU1068
 4648 0048 D204     		lsls	r2, r2, #19
 4649 004a 38D4     		bmi	.L226
 4650              	.LVL363:
 4651              	.L220:
 372:Drivers/STM32F0xx_HAL_Driver/Src/stm32f0xx_hal_pcd.c ****   {    
 4652              		.loc 1 372 3 is_stmt 1 view .LVU1069
 372:Drivers/STM32F0xx_HAL_Driver/Src/stm32f0xx_hal_pcd.c ****   {    
 4653              		.loc 1 372 7 is_stmt 0 view .LVU1070
 4654 004c 2368     		ldr	r3, [r4]
 4655 004e 4422     		movs	r2, #68
 4656 0050 9A5A     		ldrh	r2, [r3, r2]
 372:Drivers/STM32F0xx_HAL_Driver/Src/stm32f0xx_hal_pcd.c ****   {    
 4657              		.loc 1 372 6 view .LVU1071
 4658 0052 1205     		lsls	r2, r2, #20
 4659 0054 13D5     		bpl	.L221
 375:Drivers/STM32F0xx_HAL_Driver/Src/stm32f0xx_hal_pcd.c ****     
 4660              		.loc 1 375 5 is_stmt 1 view .LVU1072
 4661 0056 4422     		movs	r2, #68
 4662 0058 995A     		ldrh	r1, [r3, r2]
 4663 005a 2A48     		ldr	r0, .L229+8
 4664 005c 0140     		ands	r1, r0
 4665 005e 9952     		strh	r1, [r3, r2]
 378:Drivers/STM32F0xx_HAL_Driver/Src/stm32f0xx_hal_pcd.c ****     hpcd->Instance->CNTR |= USB_CNTR_LPMODE;
 4666              		.loc 1 378 5 view .LVU1073
 378:Drivers/STM32F0xx_HAL_Driver/Src/stm32f0xx_hal_pcd.c ****     hpcd->Instance->CNTR |= USB_CNTR_LPMODE;
ARM GAS  /tmp/ccHm7VQo.s 			page 116


 4667              		.loc 1 378 9 is_stmt 0 view .LVU1074
 4668 0060 2068     		ldr	r0, [r4]
 378:Drivers/STM32F0xx_HAL_Driver/Src/stm32f0xx_hal_pcd.c ****     hpcd->Instance->CNTR |= USB_CNTR_LPMODE;
 4669              		.loc 1 378 26 view .LVU1075
 4670 0062 4023     		movs	r3, #64
 4671 0064 C15A     		ldrh	r1, [r0, r3]
 4672 0066 0825     		movs	r5, #8
 4673 0068 2943     		orrs	r1, r5
 4674 006a C152     		strh	r1, [r0, r3]
 379:Drivers/STM32F0xx_HAL_Driver/Src/stm32f0xx_hal_pcd.c **** 
 4675              		.loc 1 379 5 is_stmt 1 view .LVU1076
 379:Drivers/STM32F0xx_HAL_Driver/Src/stm32f0xx_hal_pcd.c **** 
 4676              		.loc 1 379 9 is_stmt 0 view .LVU1077
 4677 006c 2068     		ldr	r0, [r4]
 379:Drivers/STM32F0xx_HAL_Driver/Src/stm32f0xx_hal_pcd.c **** 
 4678              		.loc 1 379 26 view .LVU1078
 4679 006e C15A     		ldrh	r1, [r0, r3]
 4680 0070 0425     		movs	r5, #4
 4681 0072 2943     		orrs	r1, r5
 4682 0074 C152     		strh	r1, [r0, r3]
 381:Drivers/STM32F0xx_HAL_Driver/Src/stm32f0xx_hal_pcd.c ****     {
 4683              		.loc 1 381 5 is_stmt 1 view .LVU1079
 381:Drivers/STM32F0xx_HAL_Driver/Src/stm32f0xx_hal_pcd.c ****     {
 4684              		.loc 1 381 9 is_stmt 0 view .LVU1080
 4685 0076 2368     		ldr	r3, [r4]
 4686 0078 9B5A     		ldrh	r3, [r3, r2]
 381:Drivers/STM32F0xx_HAL_Driver/Src/stm32f0xx_hal_pcd.c ****     {
 4687              		.loc 1 381 8 view .LVU1081
 4688 007a DB04     		lsls	r3, r3, #19
 4689 007c 31D5     		bpl	.L227
 4690              	.L221:
 387:Drivers/STM32F0xx_HAL_Driver/Src/stm32f0xx_hal_pcd.c ****   {
 4691              		.loc 1 387 3 is_stmt 1 view .LVU1082
 387:Drivers/STM32F0xx_HAL_Driver/Src/stm32f0xx_hal_pcd.c ****   {
 4692              		.loc 1 387 7 is_stmt 0 view .LVU1083
 4693 007e 2368     		ldr	r3, [r4]
 4694 0080 4422     		movs	r2, #68
 4695 0082 9A5A     		ldrh	r2, [r3, r2]
 387:Drivers/STM32F0xx_HAL_Driver/Src/stm32f0xx_hal_pcd.c ****   {
 4696              		.loc 1 387 6 view .LVU1084
 4697 0084 9205     		lsls	r2, r2, #22
 4698 0086 30D4     		bmi	.L228
 4699              	.L222:
 393:Drivers/STM32F0xx_HAL_Driver/Src/stm32f0xx_hal_pcd.c ****   {
 4700              		.loc 1 393 3 is_stmt 1 view .LVU1085
 393:Drivers/STM32F0xx_HAL_Driver/Src/stm32f0xx_hal_pcd.c ****   {
 4701              		.loc 1 393 7 is_stmt 0 view .LVU1086
 4702 0088 2368     		ldr	r3, [r4]
 4703 008a 4422     		movs	r2, #68
 4704 008c 9A5A     		ldrh	r2, [r3, r2]
 393:Drivers/STM32F0xx_HAL_Driver/Src/stm32f0xx_hal_pcd.c ****   {
 4705              		.loc 1 393 6 view .LVU1087
 4706 008e D205     		lsls	r2, r2, #23
 4707 0090 04D5     		bpl	.L215
 396:Drivers/STM32F0xx_HAL_Driver/Src/stm32f0xx_hal_pcd.c ****   }
 4708              		.loc 1 396 5 is_stmt 1 view .LVU1088
 4709 0092 4421     		movs	r1, #68
ARM GAS  /tmp/ccHm7VQo.s 			page 117


 4710 0094 5A5A     		ldrh	r2, [r3, r1]
 4711 0096 1C48     		ldr	r0, .L229+12
 4712 0098 0240     		ands	r2, r0
 4713 009a 5A52     		strh	r2, [r3, r1]
 4714              	.L215:
 398:Drivers/STM32F0xx_HAL_Driver/Src/stm32f0xx_hal_pcd.c **** 
 4715              		.loc 1 398 1 is_stmt 0 view .LVU1089
 4716              		@ sp needed
 4717              	.LVL364:
 398:Drivers/STM32F0xx_HAL_Driver/Src/stm32f0xx_hal_pcd.c **** 
 4718              		.loc 1 398 1 view .LVU1090
 4719 009c 70BD     		pop	{r4, r5, r6, pc}
 4720              	.LVL365:
 4721              	.L224:
 335:Drivers/STM32F0xx_HAL_Driver/Src/stm32f0xx_hal_pcd.c ****   }
 4722              		.loc 1 335 5 is_stmt 1 view .LVU1091
 4723 009e FFF7FEFF 		bl	PCD_EP_ISR_Handler
 4724              	.LVL366:
 335:Drivers/STM32F0xx_HAL_Driver/Src/stm32f0xx_hal_pcd.c ****   }
 4725              		.loc 1 335 5 is_stmt 0 view .LVU1092
 4726 00a2 B5E7     		b	.L216
 4727              	.L225:
 340:Drivers/STM32F0xx_HAL_Driver/Src/stm32f0xx_hal_pcd.c ****     HAL_PCD_ResetCallback(hpcd);
 4728              		.loc 1 340 5 is_stmt 1 view .LVU1093
 4729 00a4 4421     		movs	r1, #68
 4730 00a6 5A5A     		ldrh	r2, [r3, r1]
 4731 00a8 1848     		ldr	r0, .L229+16
 4732 00aa 0240     		ands	r2, r0
 4733 00ac 5A52     		strh	r2, [r3, r1]
 341:Drivers/STM32F0xx_HAL_Driver/Src/stm32f0xx_hal_pcd.c ****     HAL_PCD_SetAddress(hpcd, 0U);
 4734              		.loc 1 341 5 view .LVU1094
 4735 00ae 2000     		movs	r0, r4
 4736 00b0 FFF7FEFF 		bl	HAL_PCD_ResetCallback
 4737              	.LVL367:
 342:Drivers/STM32F0xx_HAL_Driver/Src/stm32f0xx_hal_pcd.c ****   }
 4738              		.loc 1 342 5 view .LVU1095
 4739 00b4 0021     		movs	r1, #0
 4740 00b6 2000     		movs	r0, r4
 4741 00b8 FFF7FEFF 		bl	HAL_PCD_SetAddress
 4742              	.LVL368:
 4743 00bc ADE7     		b	.L217
 4744              	.L226:
 358:Drivers/STM32F0xx_HAL_Driver/Src/stm32f0xx_hal_pcd.c **** 
 4745              		.loc 1 358 5 view .LVU1096
 358:Drivers/STM32F0xx_HAL_Driver/Src/stm32f0xx_hal_pcd.c **** 
 4746              		.loc 1 358 26 is_stmt 0 view .LVU1097
 4747 00be 4022     		movs	r2, #64
 4748 00c0 995A     		ldrh	r1, [r3, r2]
 4749 00c2 0420     		movs	r0, #4
 4750 00c4 8143     		bics	r1, r0
 4751 00c6 9952     		strh	r1, [r3, r2]
 361:Drivers/STM32F0xx_HAL_Driver/Src/stm32f0xx_hal_pcd.c ****       | USB_CNTR_ESOFM | USB_CNTR_RESETM;
 4752              		.loc 1 361 5 is_stmt 1 view .LVU1098
 4753              	.LVL369:
 365:Drivers/STM32F0xx_HAL_Driver/Src/stm32f0xx_hal_pcd.c ****     
 4754              		.loc 1 365 5 view .LVU1099
 365:Drivers/STM32F0xx_HAL_Driver/Src/stm32f0xx_hal_pcd.c ****     
ARM GAS  /tmp/ccHm7VQo.s 			page 118


 4755              		.loc 1 365 26 is_stmt 0 view .LVU1100
 4756 00c8 114B     		ldr	r3, .L229+20
 4757 00ca 2168     		ldr	r1, [r4]
 4758 00cc 8B52     		strh	r3, [r1, r2]
 367:Drivers/STM32F0xx_HAL_Driver/Src/stm32f0xx_hal_pcd.c ****     
 4759              		.loc 1 367 5 is_stmt 1 view .LVU1101
 4760 00ce 2000     		movs	r0, r4
 4761 00d0 FFF7FEFF 		bl	HAL_PCD_ResumeCallback
 4762              	.LVL370:
 369:Drivers/STM32F0xx_HAL_Driver/Src/stm32f0xx_hal_pcd.c ****   }
 4763              		.loc 1 369 5 view .LVU1102
 4764 00d4 2168     		ldr	r1, [r4]
 4765 00d6 4422     		movs	r2, #68
 4766 00d8 8B5A     		ldrh	r3, [r1, r2]
 4767 00da 0E48     		ldr	r0, .L229+24
 4768 00dc 0340     		ands	r3, r0
 4769 00de 8B52     		strh	r3, [r1, r2]
 4770 00e0 B4E7     		b	.L220
 4771              	.LVL371:
 4772              	.L227:
 383:Drivers/STM32F0xx_HAL_Driver/Src/stm32f0xx_hal_pcd.c ****     }
 4773              		.loc 1 383 7 view .LVU1103
 4774 00e2 2000     		movs	r0, r4
 4775 00e4 FFF7FEFF 		bl	HAL_PCD_SuspendCallback
 4776              	.LVL372:
 4777 00e8 C9E7     		b	.L221
 4778              	.L228:
 389:Drivers/STM32F0xx_HAL_Driver/Src/stm32f0xx_hal_pcd.c ****     HAL_PCD_SOFCallback(hpcd);
 4779              		.loc 1 389 5 view .LVU1104
 4780 00ea 4421     		movs	r1, #68
 4781 00ec 5A5A     		ldrh	r2, [r3, r1]
 4782 00ee 0A48     		ldr	r0, .L229+28
 4783 00f0 0240     		ands	r2, r0
 4784 00f2 5A52     		strh	r2, [r3, r1]
 390:Drivers/STM32F0xx_HAL_Driver/Src/stm32f0xx_hal_pcd.c ****   }
 4785              		.loc 1 390 5 view .LVU1105
 4786 00f4 2000     		movs	r0, r4
 4787 00f6 FFF7FEFF 		bl	HAL_PCD_SOFCallback
 4788              	.LVL373:
 4789 00fa C5E7     		b	.L222
 4790              	.L230:
 4791              		.align	2
 4792              	.L229:
 4793 00fc FFBFFFFF 		.word	-16385
 4794 0100 FFDFFFFF 		.word	-8193
 4795 0104 FFF7FFFF 		.word	-2049
 4796 0108 FFFEFFFF 		.word	-257
 4797 010c FFFBFFFF 		.word	-1025
 4798 0110 00BDFFFF 		.word	-17152
 4799 0114 FFEFFFFF 		.word	-4097
 4800 0118 FFFDFFFF 		.word	-513
 4801              		.cfi_endproc
 4802              	.LFE43:
 4804              		.text
 4805              	.Letext0:
 4806              		.file 2 "/usr/arm-none-eabi/include/machine/_default_types.h"
 4807              		.file 3 "/usr/arm-none-eabi/include/sys/_stdint.h"
ARM GAS  /tmp/ccHm7VQo.s 			page 119


 4808              		.file 4 "Drivers/CMSIS/Device/ST/STM32F0xx/Include/system_stm32f0xx.h"
 4809              		.file 5 "Drivers/CMSIS/Device/ST/STM32F0xx/Include/stm32f042x6.h"
 4810              		.file 6 "/usr/arm-none-eabi/include/sys/lock.h"
 4811              		.file 7 "/usr/arm-none-eabi/include/sys/_types.h"
 4812              		.file 8 "/usr/lib/gcc/arm-none-eabi/9.1.0/include/stddef.h"
 4813              		.file 9 "/usr/arm-none-eabi/include/sys/reent.h"
 4814              		.file 10 "Drivers/STM32F0xx_HAL_Driver/Inc/stm32f0xx_hal_def.h"
 4815              		.file 11 "Drivers/STM32F0xx_HAL_Driver/Inc/stm32f0xx_hal_pcd.h"
ARM GAS  /tmp/ccHm7VQo.s 			page 120


DEFINED SYMBOLS
                            *ABS*:0000000000000000 stm32f0xx_hal_pcd.c
     /tmp/ccHm7VQo.s:16     .text.HAL_PCD_MspInit:0000000000000000 $t
     /tmp/ccHm7VQo.s:24     .text.HAL_PCD_MspInit:0000000000000000 HAL_PCD_MspInit
     /tmp/ccHm7VQo.s:41     .text.HAL_PCD_Init:0000000000000000 $t
     /tmp/ccHm7VQo.s:48     .text.HAL_PCD_Init:0000000000000000 HAL_PCD_Init
     /tmp/ccHm7VQo.s:253    .text.HAL_PCD_Init:00000000000000bc $d
     /tmp/ccHm7VQo.s:258    .text.HAL_PCD_MspDeInit:0000000000000000 $t
     /tmp/ccHm7VQo.s:265    .text.HAL_PCD_MspDeInit:0000000000000000 HAL_PCD_MspDeInit
     /tmp/ccHm7VQo.s:281    .text.HAL_PCD_Start:0000000000000000 $t
     /tmp/ccHm7VQo.s:288    .text.HAL_PCD_Start:0000000000000000 HAL_PCD_Start
     /tmp/ccHm7VQo.s:316    .text.HAL_PCD_Start:0000000000000014 $d
     /tmp/ccHm7VQo.s:321    .text.HAL_PCD_Stop:0000000000000000 $t
     /tmp/ccHm7VQo.s:328    .text.HAL_PCD_Stop:0000000000000000 HAL_PCD_Stop
     /tmp/ccHm7VQo.s:391    .text.HAL_PCD_DeInit:0000000000000000 $t
     /tmp/ccHm7VQo.s:398    .text.HAL_PCD_DeInit:0000000000000000 HAL_PCD_DeInit
     /tmp/ccHm7VQo.s:454    .text.HAL_PCD_DataOutStageCallback:0000000000000000 $t
     /tmp/ccHm7VQo.s:461    .text.HAL_PCD_DataOutStageCallback:0000000000000000 HAL_PCD_DataOutStageCallback
     /tmp/ccHm7VQo.s:478    .text.HAL_PCD_DataInStageCallback:0000000000000000 $t
     /tmp/ccHm7VQo.s:485    .text.HAL_PCD_DataInStageCallback:0000000000000000 HAL_PCD_DataInStageCallback
     /tmp/ccHm7VQo.s:502    .text.HAL_PCD_SetupStageCallback:0000000000000000 $t
     /tmp/ccHm7VQo.s:509    .text.HAL_PCD_SetupStageCallback:0000000000000000 HAL_PCD_SetupStageCallback
     /tmp/ccHm7VQo.s:525    .text.HAL_PCD_SOFCallback:0000000000000000 $t
     /tmp/ccHm7VQo.s:532    .text.HAL_PCD_SOFCallback:0000000000000000 HAL_PCD_SOFCallback
     /tmp/ccHm7VQo.s:548    .text.HAL_PCD_ResetCallback:0000000000000000 $t
     /tmp/ccHm7VQo.s:555    .text.HAL_PCD_ResetCallback:0000000000000000 HAL_PCD_ResetCallback
     /tmp/ccHm7VQo.s:571    .text.HAL_PCD_SuspendCallback:0000000000000000 $t
     /tmp/ccHm7VQo.s:578    .text.HAL_PCD_SuspendCallback:0000000000000000 HAL_PCD_SuspendCallback
     /tmp/ccHm7VQo.s:594    .text.HAL_PCD_ResumeCallback:0000000000000000 $t
     /tmp/ccHm7VQo.s:601    .text.HAL_PCD_ResumeCallback:0000000000000000 HAL_PCD_ResumeCallback
     /tmp/ccHm7VQo.s:617    .text.HAL_PCD_ISOOUTIncompleteCallback:0000000000000000 $t
     /tmp/ccHm7VQo.s:624    .text.HAL_PCD_ISOOUTIncompleteCallback:0000000000000000 HAL_PCD_ISOOUTIncompleteCallback
     /tmp/ccHm7VQo.s:641    .text.HAL_PCD_ISOINIncompleteCallback:0000000000000000 $t
     /tmp/ccHm7VQo.s:648    .text.HAL_PCD_ISOINIncompleteCallback:0000000000000000 HAL_PCD_ISOINIncompleteCallback
     /tmp/ccHm7VQo.s:665    .text.HAL_PCD_ConnectCallback:0000000000000000 $t
     /tmp/ccHm7VQo.s:672    .text.HAL_PCD_ConnectCallback:0000000000000000 HAL_PCD_ConnectCallback
     /tmp/ccHm7VQo.s:688    .text.HAL_PCD_DisconnectCallback:0000000000000000 $t
     /tmp/ccHm7VQo.s:695    .text.HAL_PCD_DisconnectCallback:0000000000000000 HAL_PCD_DisconnectCallback
     /tmp/ccHm7VQo.s:711    .text.HAL_PCD_DevConnect:0000000000000000 $t
     /tmp/ccHm7VQo.s:718    .text.HAL_PCD_DevConnect:0000000000000000 HAL_PCD_DevConnect
     /tmp/ccHm7VQo.s:776    .text.HAL_PCD_DevConnect:0000000000000030 $d
     /tmp/ccHm7VQo.s:781    .text.HAL_PCD_DevDisconnect:0000000000000000 $t
     /tmp/ccHm7VQo.s:788    .text.HAL_PCD_DevDisconnect:0000000000000000 HAL_PCD_DevDisconnect
     /tmp/ccHm7VQo.s:845    .text.HAL_PCD_SetAddress:0000000000000000 $t
     /tmp/ccHm7VQo.s:852    .text.HAL_PCD_SetAddress:0000000000000000 HAL_PCD_SetAddress
     /tmp/ccHm7VQo.s:917    .text.HAL_PCD_EP_Open:0000000000000000 $t
     /tmp/ccHm7VQo.s:924    .text.HAL_PCD_EP_Open:0000000000000000 HAL_PCD_EP_Open
     /tmp/ccHm7VQo.s:1536   .text.HAL_PCD_EP_Open:00000000000002d8 $d
     /tmp/ccHm7VQo.s:1555   .text.HAL_PCD_EP_Close:0000000000000000 $t
     /tmp/ccHm7VQo.s:1562   .text.HAL_PCD_EP_Close:0000000000000000 HAL_PCD_EP_Close
     /tmp/ccHm7VQo.s:1924   .text.HAL_PCD_EP_Close:000000000000018c $d
     /tmp/ccHm7VQo.s:1934   .text.HAL_PCD_EP_Receive:0000000000000000 $t
     /tmp/ccHm7VQo.s:1941   .text.HAL_PCD_EP_Receive:0000000000000000 HAL_PCD_EP_Receive
     /tmp/ccHm7VQo.s:2394   .text.HAL_PCD_EP_Receive:00000000000001f8 $d
     /tmp/ccHm7VQo.s:2403   .text.HAL_PCD_EP_GetRxCount:0000000000000000 $t
     /tmp/ccHm7VQo.s:2410   .text.HAL_PCD_EP_GetRxCount:0000000000000000 HAL_PCD_EP_GetRxCount
     /tmp/ccHm7VQo.s:2443   .text.HAL_PCD_EP_SetStall:0000000000000000 $t
ARM GAS  /tmp/ccHm7VQo.s 			page 121


     /tmp/ccHm7VQo.s:2450   .text.HAL_PCD_EP_SetStall:0000000000000000 HAL_PCD_EP_SetStall
     /tmp/ccHm7VQo.s:2642   .text.HAL_PCD_EP_SetStall:00000000000000a0 $d
     /tmp/ccHm7VQo.s:2651   .text.HAL_PCD_EP_ClrStall:0000000000000000 $t
     /tmp/ccHm7VQo.s:2658   .text.HAL_PCD_EP_ClrStall:0000000000000000 HAL_PCD_EP_ClrStall
     /tmp/ccHm7VQo.s:2851   .text.HAL_PCD_EP_ClrStall:00000000000000bc $d
     /tmp/ccHm7VQo.s:2861   .text.HAL_PCD_EP_Flush:0000000000000000 $t
     /tmp/ccHm7VQo.s:2868   .text.HAL_PCD_EP_Flush:0000000000000000 HAL_PCD_EP_Flush
     /tmp/ccHm7VQo.s:2887   .text.HAL_PCD_ActivateRemoteWakeup:0000000000000000 $t
     /tmp/ccHm7VQo.s:2894   .text.HAL_PCD_ActivateRemoteWakeup:0000000000000000 HAL_PCD_ActivateRemoteWakeup
     /tmp/ccHm7VQo.s:2942   .text.HAL_PCD_DeActivateRemoteWakeup:0000000000000000 $t
     /tmp/ccHm7VQo.s:2949   .text.HAL_PCD_DeActivateRemoteWakeup:0000000000000000 HAL_PCD_DeActivateRemoteWakeup
     /tmp/ccHm7VQo.s:2997   .text.HAL_PCD_GetState:0000000000000000 $t
     /tmp/ccHm7VQo.s:3004   .text.HAL_PCD_GetState:0000000000000000 HAL_PCD_GetState
     /tmp/ccHm7VQo.s:3027   .text.PCD_WritePMA:0000000000000000 $t
     /tmp/ccHm7VQo.s:3034   .text.PCD_WritePMA:0000000000000000 PCD_WritePMA
     /tmp/ccHm7VQo.s:3111   .text.HAL_PCD_EP_Transmit:0000000000000000 $t
     /tmp/ccHm7VQo.s:3118   .text.HAL_PCD_EP_Transmit:0000000000000000 HAL_PCD_EP_Transmit
     /tmp/ccHm7VQo.s:3564   .text.HAL_PCD_EP_Transmit:00000000000001f4 $d
     /tmp/ccHm7VQo.s:3576   .text.PCD_ReadPMA:0000000000000000 $t
     /tmp/ccHm7VQo.s:3583   .text.PCD_ReadPMA:0000000000000000 PCD_ReadPMA
     /tmp/ccHm7VQo.s:3669   .text.PCD_EP_ISR_Handler:0000000000000000 $t
     /tmp/ccHm7VQo.s:3675   .text.PCD_EP_ISR_Handler:0000000000000000 PCD_EP_ISR_Handler
     /tmp/ccHm7VQo.s:4195   .text.PCD_EP_ISR_Handler:00000000000002bc $d
     /tmp/ccHm7VQo.s:4205   .text.PCD_EP_ISR_Handler:00000000000002d4 $t
     /tmp/ccHm7VQo.s:4555   .text.PCD_EP_ISR_Handler:000000000000049c $d
     /tmp/ccHm7VQo.s:4567   .text.HAL_PCD_IRQHandler:0000000000000000 $t
     /tmp/ccHm7VQo.s:4574   .text.HAL_PCD_IRQHandler:0000000000000000 HAL_PCD_IRQHandler
     /tmp/ccHm7VQo.s:4793   .text.HAL_PCD_IRQHandler:00000000000000fc $d

NO UNDEFINED SYMBOLS
